; ModuleID = 'LLVMDialectModule'
source_filename = "LLVMDialectModule"
target datalayout = "e-m:e-p270:32:32-p271:32:32-p272:64:64-i64:64-f80:128-n8:16:32:64-S128"
target triple = "x86_64-unknown-linux-gnu"

%"struct.std::chrono::duration.0" = type { i64 }
%"struct.std::chrono::duration" = type { i64 }
%"struct.std::chrono::time_point" = type { %"struct.std::chrono::duration" }
%"class.std::vector" = type { %"struct.std::_Vector_base" }
%"struct.std::_Vector_base" = type { %"struct.std::_Vector_base<unsigned long, std::allocator<unsigned long>>::_Vector_impl" }
%"struct.std::_Vector_base<unsigned long, std::allocator<unsigned long>>::_Vector_impl" = type { %"struct.std::_Vector_base<unsigned long, std::allocator<unsigned long>>::_Vector_impl_data" }
%"struct.std::_Vector_base<unsigned long, std::allocator<unsigned long>>::_Vector_impl_data" = type { ptr, ptr, ptr }
%"class.std::vector.1" = type { %"struct.std::_Vector_base.2" }
%"struct.std::_Vector_base.2" = type { %"struct.std::_Vector_base<short, std::allocator<short>>::_Vector_impl" }
%"struct.std::_Vector_base<short, std::allocator<short>>::_Vector_impl" = type { %"struct.std::_Vector_base<short, std::allocator<short>>::_Vector_impl_data" }
%"struct.std::_Vector_base<short, std::allocator<short>>::_Vector_impl_data" = type { ptr, ptr, ptr }
%"_Lowered_rid::class.std::vector.1" = type { %"_Lowered_rid::struct.std::_Vector_base.2" }
%"_Lowered_rid::struct.std::_Vector_base.2" = type { %"_Lowered_rid::struct.std::_Vector_base<unsigned long, std::allocator<unsigned long>>::_Vector_impl" }
%"_Lowered_rid::struct.std::_Vector_base<unsigned long, std::allocator<unsigned long>>::_Vector_impl" = type { %"_Lowered_rid::struct.std::_Vector_base<unsigned long, std::allocator<unsigned long>>::_Vector_impl_data" }
%"_Lowered_rid::struct.std::_Vector_base<unsigned long, std::allocator<unsigned long>>::_Vector_impl_data" = type { ptr, ptr, ptr }
%"class.std::move_iterator" = type { ptr }
%"class.std::move_iterator.6" = type { ptr }
%"_Lowered_rdur::class.std::vector" = type { %"_Lowered_rdur::struct.std::_Vector_base" }
%"_Lowered_rdur::struct.std::_Vector_base" = type { %"_Lowered_rdur::struct.std::_Vector_base<unsigned long, std::allocator<unsigned long>>::_Vector_impl" }
%"_Lowered_rdur::struct.std::_Vector_base<unsigned long, std::allocator<unsigned long>>::_Vector_impl" = type { %"_Lowered_rdur::struct.std::_Vector_base<unsigned long, std::allocator<unsigned long>>::_Vector_impl_data" }
%"_Lowered_rdur::struct.std::_Vector_base<unsigned long, std::allocator<unsigned long>>::_Vector_impl_data" = type { ptr, ptr, ptr }
%"_Lowered_rday::class.std::vector.1" = type { %"_Lowered_rday::struct.std::_Vector_base.2" }
%"_Lowered_rday::struct.std::_Vector_base.2" = type { %"_Lowered_rday::struct.std::_Vector_base<short, std::allocator<short>>::_Vector_impl" }
%"_Lowered_rday::struct.std::_Vector_base<short, std::allocator<short>>::_Vector_impl" = type { %"_Lowered_rday::struct.std::_Vector_base<short, std::allocator<short>>::_Vector_impl_data" }
%"_Lowered_rday::struct.std::_Vector_base<short, std::allocator<short>>::_Vector_impl_data" = type { ptr, ptr, ptr }
%"_Lowered_rmon::class.std::vector.1" = type { %"_Lowered_rmon::struct.std::_Vector_base.2" }
%"_Lowered_rmon::struct.std::_Vector_base.2" = type { %"_Lowered_rmon::struct.std::_Vector_base<short, std::allocator<short>>::_Vector_impl" }
%"_Lowered_rmon::struct.std::_Vector_base<short, std::allocator<short>>::_Vector_impl" = type { %"_Lowered_rmon::struct.std::_Vector_base<short, std::allocator<short>>::_Vector_impl_data" }
%"_Lowered_rmon::struct.std::_Vector_base<short, std::allocator<short>>::_Vector_impl_data" = type { ptr, ptr, ptr }
%"class.__gnu_cxx::__normal_iterator" = type { ptr }
%"class.__gnu_cxx::__normal_iterator.7" = type { ptr }
%"struct.std::__is_move_insertable" = type { i8 }
%"struct.std::__is_move_insertable.8" = type { i8 }
%"struct.std::integral_constant" = type { i8 }

@tokens = external global [33554432 x { i64, i8, i8, i16, i32 }]
@_rbuf = external global ptr
@str6 = internal constant [26 x i8] c"vector::_M_realloc_insert\00"
@str5 = internal constant [16 x i8] c"vector::reserve\00"
@pick_month_col = external global ptr
@duration_col = external global ptr
@pick_day_col = external global ptr
@index_col = external global ptr
@str4 = internal constant [52 x i8] c"analyze_trip_durations_of_timestamps() on key = %s\0A\00"
@str3 = internal constant [16 x i8] c"Step 8: %ld us\0A\00"
@str2 = internal constant [16 x i8] c"Step 7: %ld us\0A\00"
@str1 = internal constant [13 x i8] c"pickup_month\00"
@str0 = internal constant [11 x i8] c"pickup_day\00"

declare ptr @malloc(i64)

declare void @free(ptr)

declare void @poll_qid14(i32, i16)

declare i32 @cache_request_impl_14(i32, i64, i32, i8)

declare void @poll_qid10(i32, i16)

declare i32 @cache_request_impl_10(i32, i64, i32, i8)

declare i32 @cache_request_impl_13(i32, i64, i32, i8)

declare i32 @cache_request_impl_11(i32, i64, i32, i8)

declare i32 @printf(ptr, ...)

define i32 @main() !dbg !3 {
  %1 = alloca %"struct.std::chrono::duration.0", i64 1, align 8, !dbg !7
  %2 = alloca %"struct.std::chrono::duration", i64 1, align 8, !dbg !9
  %3 = alloca %"struct.std::chrono::duration.0", i64 1, align 8, !dbg !10
  %4 = alloca %"struct.std::chrono::duration", i64 1, align 8, !dbg !11
  %5 = alloca %"struct.std::chrono::time_point", i64 1, align 8, !dbg !12
  %6 = alloca %"struct.std::chrono::time_point", i64 1, align 8, !dbg !13
  %7 = alloca %"struct.std::chrono::time_point", i64 1, align 8, !dbg !14
  %8 = alloca [10 x %"struct.std::chrono::time_point"], i64 1, align 8, !dbg !15
  call void @_Z9ext_setupv(), !dbg !16
  %9 = getelementptr [10 x %"struct.std::chrono::time_point"], ptr %8, i32 0, i32 0, !dbg !17
  br label %10, !dbg !18

10:                                               ; preds = %13, %0
  %11 = phi i64 [ %15, %13 ], [ 0, %0 ]
  %12 = icmp slt i64 %11, 10, !dbg !19
  br i1 %12, label %13, label %16, !dbg !20

13:                                               ; preds = %10
  %14 = getelementptr %"struct.std::chrono::time_point", ptr %9, i64 %11, !dbg !21
  call void @_ZNSt6chrono10time_pointINS_3_V212steady_clockENS_8durationIlSt5ratioILl1ELl1000000000EEEEEC1Ev(ptr %14), !dbg !22
  %15 = add i64 %11, 1, !dbg !23
  br label %10, !dbg !24

16:                                               ; preds = %10
  %17 = call %"struct.std::chrono::time_point" @_ZNSt6chrono3_V212steady_clock3nowEv(), !dbg !25
  store %"struct.std::chrono::time_point" %17, ptr %7, align 8, !dbg !26
  %18 = call ptr @_ZNSt6chrono10time_pointINS_3_V212steady_clockENS_8durationIlSt5ratioILl1ELl1000000000EEEEEaSEOS7_(ptr %9, ptr %7), !dbg !27
  call void @_Z29analyze_trip_durations_of_dayIsEvPKc(ptr @str0), !dbg !28
  %19 = getelementptr %"struct.std::chrono::time_point", ptr %9, i32 1, !dbg !29
  %20 = call %"struct.std::chrono::time_point" @_ZNSt6chrono3_V212steady_clock3nowEv(), !dbg !30
  store %"struct.std::chrono::time_point" %20, ptr %6, align 8, !dbg !31
  %21 = call ptr @_ZNSt6chrono10time_pointINS_3_V212steady_clockENS_8durationIlSt5ratioILl1ELl1000000000EEEEEaSEOS7_(ptr %19, ptr %6), !dbg !32
  call void @_Z31analyze_trip_durations_of_monthIsEvPKc(ptr @str1), !dbg !33
  %22 = getelementptr %"struct.std::chrono::time_point", ptr %9, i32 2, !dbg !34
  %23 = call %"struct.std::chrono::time_point" @_ZNSt6chrono3_V212steady_clock3nowEv(), !dbg !35
  store %"struct.std::chrono::time_point" %23, ptr %5, align 8, !dbg !36
  %24 = call ptr @_ZNSt6chrono10time_pointINS_3_V212steady_clockENS_8durationIlSt5ratioILl1ELl1000000000EEEEEaSEOS7_(ptr %22, ptr %5), !dbg !37
  %25 = call %"struct.std::chrono::duration" @_ZNSt6chronomiINS_3_V212steady_clockENS_8durationIlSt5ratioILl1ELl1000000000EEEES6_EENSt11common_typeIJT0_T1_EE4typeERKNS_10time_pointIT_S8_EERKNSC_ISD_S9_EE(ptr %19, ptr %9), !dbg !38
  store %"struct.std::chrono::duration" %25, ptr %4, align 8, !dbg !39
  %26 = call %"struct.std::chrono::duration.0" @_ZNSt6chrono13duration_castINS_8durationIlSt5ratioILl1ELl1000000EEEElS2_ILl1ELl1000000000EEEENSt9enable_ifIXsr13__is_durationIT_EE5valueES7_E4typeERKNS1_IT0_T1_EE(ptr %4), !dbg !40
  store %"struct.std::chrono::duration.0" %26, ptr %3, align 8, !dbg !41
  %27 = call i64 @_ZNKSt6chrono8durationIlSt5ratioILl1ELl1000000EEE5countEv(ptr %3), !dbg !42
  %28 = call i32 (ptr, ...) @printf(ptr @str2, i64 %27), !dbg !43
  %29 = call %"struct.std::chrono::duration" @_ZNSt6chronomiINS_3_V212steady_clockENS_8durationIlSt5ratioILl1ELl1000000000EEEES6_EENSt11common_typeIJT0_T1_EE4typeERKNS_10time_pointIT_S8_EERKNSC_ISD_S9_EE(ptr %22, ptr %19), !dbg !44
  store %"struct.std::chrono::duration" %29, ptr %2, align 8, !dbg !45
  %30 = call %"struct.std::chrono::duration.0" @_ZNSt6chrono13duration_castINS_8durationIlSt5ratioILl1ELl1000000EEEElS2_ILl1ELl1000000000EEEENSt9enable_ifIXsr13__is_durationIT_EE5valueES7_E4typeERKNS1_IT0_T1_EE(ptr %2), !dbg !46
  store %"struct.std::chrono::duration.0" %30, ptr %1, align 8, !dbg !47
  %31 = call i64 @_ZNKSt6chrono8durationIlSt5ratioILl1ELl1000000EEE5countEv(ptr %1), !dbg !48
  %32 = call i32 (ptr, ...) @printf(ptr @str3, i64 %31), !dbg !49
  ret i32 undef, !dbg !50
}

declare void @_Z9ext_setupv()

define linkonce_odr void @_ZNSt6chrono10time_pointINS_3_V212steady_clockENS_8durationIlSt5ratioILl1ELl1000000000EEEEEC1Ev(ptr %0) !dbg !51 {
  %2 = alloca %"struct.std::chrono::duration", i64 1, align 8, !dbg !52
  %3 = alloca %"struct.std::chrono::duration", i64 1, align 8, !dbg !54
  %4 = call %"struct.std::chrono::duration" @_ZNSt6chrono8durationIlSt5ratioILl1ELl1000000000EEE4zeroEv(), !dbg !55
  store %"struct.std::chrono::duration" %4, ptr %2, align 8, !dbg !56
  call void @_ZNSt6chrono8durationIlSt5ratioILl1ELl1000000000EEEC1ERKS3_(ptr %3, ptr %2), !dbg !57
  %5 = getelementptr %"struct.std::chrono::time_point", ptr %0, i32 0, i32 0, !dbg !58
  %6 = load %"struct.std::chrono::duration", ptr %3, align 8, !dbg !59
  store %"struct.std::chrono::duration" %6, ptr %5, align 8, !dbg !60
  ret void, !dbg !61
}

define linkonce_odr ptr @_ZNSt6chrono10time_pointINS_3_V212steady_clockENS_8durationIlSt5ratioILl1ELl1000000000EEEEEaSEOS7_(ptr %0, ptr %1) !dbg !62 {
  %3 = getelementptr %"struct.std::chrono::time_point", ptr %0, i32 0, i32 0, !dbg !63
  %4 = getelementptr %"struct.std::chrono::time_point", ptr %1, i32 0, i32 0, !dbg !65
  %5 = call ptr @_ZNSt6chrono8durationIlSt5ratioILl1ELl1000000000EEEaSERKS3_(ptr %3, ptr %4), !dbg !66
  ret ptr %0, !dbg !67
}

declare %"struct.std::chrono::time_point" @_ZNSt6chrono3_V212steady_clock3nowEv()

define linkonce_odr void @_Z29analyze_trip_durations_of_dayIsEvPKc(ptr %0) !dbg !68 {
  %2 = alloca i64, i64 1, align 8, !dbg !69
  store i64 undef, ptr %2, align 8, !dbg !71
  %3 = alloca i16, i64 1, align 2, !dbg !72
  store i16 undef, ptr %3, align 2, !dbg !73
  %4 = alloca i64, i64 1, align 8, !dbg !74
  store i64 undef, ptr %4, align 8, !dbg !75
  %5 = alloca %"class.std::vector", i64 1, align 8, !dbg !76
  %6 = alloca %"class.std::vector.1", i64 1, align 8, !dbg !77
  %7 = alloca %"class.std::vector", i64 1, align 8, !dbg !78
  %8 = call i32 (ptr, ...) @printf(ptr @str4, ptr %0), !dbg !79
  %9 = load ptr, ptr @index_col, align 8, !dbg !80
  %10 = load ptr, ptr @pick_day_col, align 8, !dbg !81
  %11 = load ptr, ptr @duration_col, align 8, !dbg !82
  %12 = call i64 @ridx_size_i64(ptr %9), !dbg !83
  call void @_ZNSt6vectorImSaImEEC1Ev(ptr %7), !dbg !84
  call void @_ZNSt6vectorImSaImEE7reserveEm(ptr %7, i64 %12), !dbg !85
  call void @_ZNSt6vectorIsSaIsEEC1Ev(ptr %6), !dbg !86
  call void @_ZNSt6vectorIsSaIsEE7reserveEm(ptr %6, i64 %12), !dbg !87
  call void @_ZNSt6vectorImSaImEEC1Ev(ptr %5), !dbg !88
  call void @_ZNSt6vectorImSaImEE7reserveEm(ptr %5, i64 %12), !dbg !89
  %13 = add i64 %12, 524287, !dbg !90
  %14 = sdiv i64 %13, 524288, !dbg !91
  %15 = alloca i32, i32 9, align 4, !dbg !92
  br label %16, !dbg !93

16:                                               ; preds = %19, %1
  %17 = phi i64 [ %31, %19 ], [ 0, %1 ]
  %18 = icmp slt i64 %17, 8, !dbg !94
  br i1 %18, label %19, label %32, !dbg !95

19:                                               ; preds = %16
  %20 = mul i64 %17, 524288, !dbg !96
  %21 = trunc i64 %17 to i32, !dbg !97
  %22 = call ptr @rdur_index_i64(ptr %11, i64 %20), !dbg !98
  %23 = ptrtoint ptr %22 to i64, !dbg !99
  %24 = and i64 %23, -4194304, !dbg !100
  %25 = udiv i64 %24, 4194304, !dbg !101
  %26 = srem i64 %25, 32, !dbg !102
  %27 = trunc i64 %26 to i32, !dbg !103
  %28 = call i32 @cache_request_impl_11(i32 0, i64 %24, i32 %27, i8 1), !dbg !104
  %29 = sext i32 %21 to i64, !dbg !105
  %30 = getelementptr i32, ptr %15, i64 %29, !dbg !106
  store i32 %27, ptr %30, align 4, !dbg !107
  %31 = add i64 %17, 1, !dbg !108
  br label %16, !dbg !109

32:                                               ; preds = %16
  %33 = alloca i32, i32 9, align 4, !dbg !110
  br label %34, !dbg !111

34:                                               ; preds = %37, %32
  %35 = phi i64 [ %49, %37 ], [ 0, %32 ]
  %36 = icmp slt i64 %35, 8, !dbg !112
  br i1 %36, label %37, label %50, !dbg !113

37:                                               ; preds = %34
  %38 = mul i64 %35, 524288, !dbg !114
  %39 = trunc i64 %35 to i32, !dbg !115
  %40 = call ptr @rday_index_i16(ptr %10, i64 %38), !dbg !116
  %41 = ptrtoint ptr %40 to i64, !dbg !117
  %42 = and i64 %41, -1048576, !dbg !118
  %43 = udiv i64 %42, 1048576, !dbg !119
  %44 = srem i64 %43, 32, !dbg !120
  %45 = trunc i64 %44 to i32, !dbg !121
  %46 = call i32 @cache_request_impl_13(i32 0, i64 %42, i32 %45, i8 1), !dbg !122
  %47 = sext i32 %39 to i64, !dbg !123
  %48 = getelementptr i32, ptr %33, i64 %47, !dbg !124
  store i32 %45, ptr %48, align 4, !dbg !125
  %49 = add i64 %35, 1, !dbg !126
  br label %34, !dbg !127

50:                                               ; preds = %34
  %51 = alloca i32, i32 9, align 4, !dbg !128
  br label %52, !dbg !129

52:                                               ; preds = %55, %50
  %53 = phi i64 [ %67, %55 ], [ 0, %50 ]
  %54 = icmp slt i64 %53, 8, !dbg !130
  br i1 %54, label %55, label %68, !dbg !131

55:                                               ; preds = %52
  %56 = mul i64 %53, 524288, !dbg !132
  %57 = trunc i64 %53 to i32, !dbg !133
  %58 = call ptr @ridx_index_i64(ptr %9, i64 %56), !dbg !134
  %59 = ptrtoint ptr %58 to i64, !dbg !135
  %60 = and i64 %59, -4194304, !dbg !136
  %61 = udiv i64 %60, 4194304, !dbg !137
  %62 = srem i64 %61, 32, !dbg !138
  %63 = trunc i64 %62 to i32, !dbg !139
  %64 = call i32 @cache_request_impl_10(i32 0, i64 %60, i32 %63, i8 1), !dbg !140
  %65 = sext i32 %57 to i64, !dbg !141
  %66 = getelementptr i32, ptr %51, i64 %65, !dbg !142
  store i32 %63, ptr %66, align 4, !dbg !143
  %67 = add i64 %53, 1, !dbg !144
  br label %52, !dbg !145

68:                                               ; preds = %52
  br label %69, !dbg !146

69:                                               ; preds = %171, %68
  %70 = phi i64 [ %172, %171 ], [ 0, %68 ]
  %71 = icmp slt i64 %70, %14, !dbg !147
  br i1 %71, label %72, label %173, !dbg !148

72:                                               ; preds = %69
  %73 = add i64 %70, 8, !dbg !149
  %74 = icmp slt i64 %73, %14, !dbg !150
  br i1 %74, label %75, label %104, !dbg !151

75:                                               ; preds = %72
  %76 = srem i64 %73, 9, !dbg !152
  %77 = trunc i64 %76 to i32, !dbg !153
  %78 = mul i64 %73, 524288, !dbg !154
  %79 = call ptr @rdur_index_i64(ptr %11, i64 %78), !dbg !155
  %80 = ptrtoint ptr %79 to i64, !dbg !156
  %81 = and i64 %80, -4194304, !dbg !157
  %82 = udiv i64 %81, 4194304, !dbg !158
  %83 = srem i64 %82, 32, !dbg !159
  %84 = trunc i64 %83 to i32, !dbg !160
  %85 = call i32 @cache_request_impl_11(i32 0, i64 %81, i32 %84, i8 1), !dbg !161
  %86 = sext i32 %77 to i64, !dbg !162
  %87 = getelementptr i32, ptr %15, i64 %86, !dbg !163
  store i32 %84, ptr %87, align 4, !dbg !164
  %88 = call ptr @rday_index_i16(ptr %10, i64 %78), !dbg !165
  %89 = ptrtoint ptr %88 to i64, !dbg !166
  %90 = and i64 %89, -1048576, !dbg !167
  %91 = udiv i64 %90, 1048576, !dbg !168
  %92 = srem i64 %91, 32, !dbg !169
  %93 = trunc i64 %92 to i32, !dbg !170
  %94 = call i32 @cache_request_impl_13(i32 0, i64 %90, i32 %93, i8 1), !dbg !171
  %95 = getelementptr i32, ptr %33, i64 %86, !dbg !172
  store i32 %93, ptr %95, align 4, !dbg !173
  %96 = call ptr @ridx_index_i64(ptr %9, i64 %78), !dbg !174
  %97 = ptrtoint ptr %96 to i64, !dbg !175
  %98 = and i64 %97, -4194304, !dbg !176
  %99 = udiv i64 %98, 4194304, !dbg !177
  %100 = srem i64 %99, 32, !dbg !178
  %101 = trunc i64 %100 to i32, !dbg !179
  %102 = call i32 @cache_request_impl_10(i32 0, i64 %98, i32 %101, i8 1), !dbg !180
  %103 = getelementptr i32, ptr %51, i64 %86, !dbg !181
  store i32 %101, ptr %103, align 4, !dbg !182
  br label %104, !dbg !183

104:                                              ; preds = %75, %72
  %105 = mul i64 %70, 524288, !dbg !184
  %106 = call ptr @rdur_index_i64(ptr %11, i64 %105), !dbg !185
  %107 = srem i64 %70, 9, !dbg !186
  %108 = getelementptr i32, ptr %15, i64 %107, !dbg !187
  %109 = load i32, ptr %108, align 4, !dbg !188
  %110 = ptrtoint ptr %106 to i64, !dbg !189
  %111 = sext i32 %109 to i64, !dbg !190
  %112 = mul i64 %111, 4194304, !dbg !191
  %113 = srem i64 %110, 4194304, !dbg !192
  %114 = add i64 %112, %113, !dbg !193
  %115 = add i64 %114, 10737418240, !dbg !194
  %116 = load ptr, ptr @_rbuf, align 8, !dbg !195
  %117 = getelementptr i8, ptr %116, i64 %115, !dbg !196
  %118 = call ptr @rday_index_i16(ptr %10, i64 %105), !dbg !197
  %119 = getelementptr i32, ptr %33, i64 %107, !dbg !198
  %120 = load i32, ptr %119, align 4, !dbg !199
  %121 = ptrtoint ptr %118 to i64, !dbg !200
  %122 = sext i32 %120 to i64, !dbg !201
  %123 = mul i64 %122, 1048576, !dbg !202
  %124 = srem i64 %121, 1048576, !dbg !203
  %125 = add i64 %123, %124, !dbg !204
  %126 = add i64 %125, 12884901888, !dbg !205
  %127 = load ptr, ptr @_rbuf, align 8, !dbg !206
  %128 = getelementptr i8, ptr %127, i64 %126, !dbg !207
  %129 = call ptr @ridx_index_i64(ptr %9, i64 %105), !dbg !208
  %130 = getelementptr i32, ptr %51, i64 %107, !dbg !209
  %131 = load i32, ptr %130, align 4, !dbg !210
  %132 = ptrtoint ptr %129 to i64, !dbg !211
  %133 = sext i32 %131 to i64, !dbg !212
  %134 = mul i64 %133, 4194304, !dbg !213
  %135 = srem i64 %132, 4194304, !dbg !214
  %136 = add i64 %134, %135, !dbg !215
  %137 = add i64 %136, 9663676416, !dbg !216
  %138 = load ptr, ptr @_rbuf, align 8, !dbg !217
  %139 = getelementptr i8, ptr %138, i64 %137, !dbg !218
  %140 = add i32 %131, 288, !dbg !219
  %141 = sext i32 %140 to i64, !dbg !220
  %142 = getelementptr { i64, i8, i8, i16, i32 }, ptr @tokens, i64 %141, !dbg !221
  %143 = getelementptr { i64, i8, i8, i16, i32 }, ptr %142, i32 0, i32 3, !dbg !222
  %144 = load i16, ptr %143, align 2, !dbg !223
  call void @poll_qid10(i32 9, i16 %144), !dbg !224
  %145 = add i64 %70, 1, !dbg !225
  %146 = mul i64 %145, 524288, !dbg !226
  %147 = icmp sgt i64 %12, %146, !dbg !227
  br i1 %147, label %148, label %149, !dbg !228

148:                                              ; preds = %104
  br label %152, !dbg !229

149:                                              ; preds = %104
  %150 = mul i64 %70, 524288, !dbg !230
  %151 = sub i64 %12, %150, !dbg !231
  br label %152, !dbg !232

152:                                              ; preds = %148, %149
  %153 = phi i64 [ %151, %149 ], [ 524288, %148 ]
  br label %154, !dbg !233

154:                                              ; preds = %152
  %155 = mul i64 %70, 524288, !dbg !234
  br label %156, !dbg !235

156:                                              ; preds = %159, %154
  %157 = phi i64 [ %170, %159 ], [ 0, %154 ]
  %158 = icmp slt i64 %157, %153, !dbg !236
  br i1 %158, label %159, label %171, !dbg !237

159:                                              ; preds = %156
  %160 = add i64 %157, %155, !dbg !238
  %161 = getelementptr i64, ptr %117, i64 %157, !dbg !239
  %162 = getelementptr i16, ptr %128, i64 %157, !dbg !240
  %163 = getelementptr i64, ptr %139, i64 %157, !dbg !241
  %164 = call ptr @ridx_index_i64(ptr %9, i64 %160), !dbg !242
  %165 = load i64, ptr %163, align 8, !dbg !243
  store i64 %165, ptr %4, align 8, !dbg !244
  %166 = call ptr @rday_index_i16(ptr %10, i64 %160), !dbg !245
  %167 = load i16, ptr %162, align 2, !dbg !246
  store i16 %167, ptr %3, align 2, !dbg !247
  %168 = call ptr @rdur_index_i64(ptr %11, i64 %160), !dbg !248
  %169 = load i64, ptr %161, align 8, !dbg !249
  store i64 %169, ptr %2, align 8, !dbg !250
  call void @_ZNSt6vectorImSaImEE9push_backERKm(ptr %7, ptr %4), !dbg !251
  call void @_ZNSt6vectorIsSaIsEE9push_backERKs(ptr %6, ptr %3), !dbg !252
  call void @_ZNSt6vectorImSaImEE9push_backERKm(ptr %5, ptr %2), !dbg !253
  %170 = add i64 %157, 1, !dbg !254
  br label %156, !dbg !255

171:                                              ; preds = %156
  %172 = add i64 %70, 1, !dbg !256
  br label %69, !dbg !257

173:                                              ; preds = %69
  call void @_Z24step7_process_after_copyPKcRSt6vectorImSaImEERS1_IsSaIsEES4_(ptr %0, ptr %7, ptr %6, ptr %5), !dbg !258
  ret void, !dbg !259
}

define linkonce_odr void @_Z31analyze_trip_durations_of_monthIsEvPKc(ptr %0) !dbg !260 {
  %2 = alloca i64, i64 1, align 8, !dbg !261
  store i64 undef, ptr %2, align 8, !dbg !263
  %3 = alloca i16, i64 1, align 2, !dbg !264
  store i16 undef, ptr %3, align 2, !dbg !265
  %4 = alloca i64, i64 1, align 8, !dbg !266
  store i64 undef, ptr %4, align 8, !dbg !267
  %5 = alloca %"class.std::vector", i64 1, align 8, !dbg !268
  %6 = alloca %"class.std::vector.1", i64 1, align 8, !dbg !269
  %7 = alloca %"class.std::vector", i64 1, align 8, !dbg !270
  %8 = call i32 (ptr, ...) @printf(ptr @str4, ptr %0), !dbg !271
  %9 = load ptr, ptr @index_col, align 8, !dbg !272
  %10 = load ptr, ptr @pick_month_col, align 8, !dbg !273
  %11 = load ptr, ptr @duration_col, align 8, !dbg !274
  %12 = call i64 @ridx_size_i64(ptr %9), !dbg !275
  call void @_ZNSt6vectorImSaImEEC1Ev(ptr %7), !dbg !276
  call void @_ZNSt6vectorImSaImEE7reserveEm(ptr %7, i64 %12), !dbg !277
  call void @_ZNSt6vectorIsSaIsEEC1Ev(ptr %6), !dbg !278
  call void @_ZNSt6vectorIsSaIsEE7reserveEm(ptr %6, i64 %12), !dbg !279
  call void @_ZNSt6vectorImSaImEEC1Ev(ptr %5), !dbg !280
  call void @_ZNSt6vectorImSaImEE7reserveEm(ptr %5, i64 %12), !dbg !281
  %13 = add i64 %12, 524287, !dbg !282
  %14 = sdiv i64 %13, 524288, !dbg !283
  %15 = alloca i32, i32 9, align 4, !dbg !284
  br label %16, !dbg !285

16:                                               ; preds = %19, %1
  %17 = phi i64 [ %31, %19 ], [ 0, %1 ]
  %18 = icmp slt i64 %17, 8, !dbg !286
  br i1 %18, label %19, label %32, !dbg !287

19:                                               ; preds = %16
  %20 = mul i64 %17, 524288, !dbg !288
  %21 = trunc i64 %17 to i32, !dbg !289
  %22 = call ptr @rdur_index_i64(ptr %11, i64 %20), !dbg !290
  %23 = ptrtoint ptr %22 to i64, !dbg !291
  %24 = and i64 %23, -4194304, !dbg !292
  %25 = udiv i64 %24, 4194304, !dbg !293
  %26 = srem i64 %25, 32, !dbg !294
  %27 = trunc i64 %26 to i32, !dbg !295
  %28 = call i32 @cache_request_impl_11(i32 0, i64 %24, i32 %27, i8 1), !dbg !296
  %29 = sext i32 %21 to i64, !dbg !297
  %30 = getelementptr i32, ptr %15, i64 %29, !dbg !298
  store i32 %27, ptr %30, align 4, !dbg !299
  %31 = add i64 %17, 1, !dbg !300
  br label %16, !dbg !301

32:                                               ; preds = %16
  %33 = alloca i32, i32 9, align 4, !dbg !302
  br label %34, !dbg !303

34:                                               ; preds = %37, %32
  %35 = phi i64 [ %49, %37 ], [ 0, %32 ]
  %36 = icmp slt i64 %35, 8, !dbg !304
  br i1 %36, label %37, label %50, !dbg !305

37:                                               ; preds = %34
  %38 = mul i64 %35, 524288, !dbg !306
  %39 = trunc i64 %35 to i32, !dbg !307
  %40 = call ptr @ridx_index_i64(ptr %9, i64 %38), !dbg !308
  %41 = ptrtoint ptr %40 to i64, !dbg !309
  %42 = and i64 %41, -4194304, !dbg !310
  %43 = udiv i64 %42, 4194304, !dbg !311
  %44 = srem i64 %43, 32, !dbg !312
  %45 = trunc i64 %44 to i32, !dbg !313
  %46 = call i32 @cache_request_impl_10(i32 0, i64 %42, i32 %45, i8 1), !dbg !314
  %47 = sext i32 %39 to i64, !dbg !315
  %48 = getelementptr i32, ptr %33, i64 %47, !dbg !316
  store i32 %45, ptr %48, align 4, !dbg !317
  %49 = add i64 %35, 1, !dbg !318
  br label %34, !dbg !319

50:                                               ; preds = %34
  %51 = alloca i32, i32 9, align 4, !dbg !320
  br label %52, !dbg !321

52:                                               ; preds = %55, %50
  %53 = phi i64 [ %67, %55 ], [ 0, %50 ]
  %54 = icmp slt i64 %53, 8, !dbg !322
  br i1 %54, label %55, label %68, !dbg !323

55:                                               ; preds = %52
  %56 = mul i64 %53, 524288, !dbg !324
  %57 = trunc i64 %53 to i32, !dbg !325
  %58 = call ptr @rmon_index_i16(ptr %10, i64 %56), !dbg !326
  %59 = ptrtoint ptr %58 to i64, !dbg !327
  %60 = and i64 %59, -1048576, !dbg !328
  %61 = udiv i64 %60, 1048576, !dbg !329
  %62 = srem i64 %61, 32, !dbg !330
  %63 = trunc i64 %62 to i32, !dbg !331
  %64 = call i32 @cache_request_impl_14(i32 0, i64 %60, i32 %63, i8 1), !dbg !332
  %65 = sext i32 %57 to i64, !dbg !333
  %66 = getelementptr i32, ptr %51, i64 %65, !dbg !334
  store i32 %63, ptr %66, align 4, !dbg !335
  %67 = add i64 %53, 1, !dbg !336
  br label %52, !dbg !337

68:                                               ; preds = %52
  br label %69, !dbg !338

69:                                               ; preds = %171, %68
  %70 = phi i64 [ %172, %171 ], [ 0, %68 ]
  %71 = icmp slt i64 %70, %14, !dbg !339
  br i1 %71, label %72, label %173, !dbg !340

72:                                               ; preds = %69
  %73 = add i64 %70, 8, !dbg !341
  %74 = icmp slt i64 %73, %14, !dbg !342
  br i1 %74, label %75, label %104, !dbg !343

75:                                               ; preds = %72
  %76 = srem i64 %73, 9, !dbg !344
  %77 = trunc i64 %76 to i32, !dbg !345
  %78 = mul i64 %73, 524288, !dbg !346
  %79 = call ptr @rdur_index_i64(ptr %11, i64 %78), !dbg !347
  %80 = ptrtoint ptr %79 to i64, !dbg !348
  %81 = and i64 %80, -4194304, !dbg !349
  %82 = udiv i64 %81, 4194304, !dbg !350
  %83 = srem i64 %82, 32, !dbg !351
  %84 = trunc i64 %83 to i32, !dbg !352
  %85 = call i32 @cache_request_impl_11(i32 0, i64 %81, i32 %84, i8 1), !dbg !353
  %86 = sext i32 %77 to i64, !dbg !354
  %87 = getelementptr i32, ptr %15, i64 %86, !dbg !355
  store i32 %84, ptr %87, align 4, !dbg !356
  %88 = call ptr @ridx_index_i64(ptr %9, i64 %78), !dbg !357
  %89 = ptrtoint ptr %88 to i64, !dbg !358
  %90 = and i64 %89, -4194304, !dbg !359
  %91 = udiv i64 %90, 4194304, !dbg !360
  %92 = srem i64 %91, 32, !dbg !361
  %93 = trunc i64 %92 to i32, !dbg !362
  %94 = call i32 @cache_request_impl_10(i32 0, i64 %90, i32 %93, i8 1), !dbg !363
  %95 = getelementptr i32, ptr %33, i64 %86, !dbg !364
  store i32 %93, ptr %95, align 4, !dbg !365
  %96 = call ptr @rmon_index_i16(ptr %10, i64 %78), !dbg !366
  %97 = ptrtoint ptr %96 to i64, !dbg !367
  %98 = and i64 %97, -1048576, !dbg !368
  %99 = udiv i64 %98, 1048576, !dbg !369
  %100 = srem i64 %99, 32, !dbg !370
  %101 = trunc i64 %100 to i32, !dbg !371
  %102 = call i32 @cache_request_impl_14(i32 0, i64 %98, i32 %101, i8 1), !dbg !372
  %103 = getelementptr i32, ptr %51, i64 %86, !dbg !373
  store i32 %101, ptr %103, align 4, !dbg !374
  br label %104, !dbg !375

104:                                              ; preds = %75, %72
  %105 = mul i64 %70, 524288, !dbg !376
  %106 = call ptr @rdur_index_i64(ptr %11, i64 %105), !dbg !377
  %107 = srem i64 %70, 9, !dbg !378
  %108 = getelementptr i32, ptr %15, i64 %107, !dbg !379
  %109 = load i32, ptr %108, align 4, !dbg !380
  %110 = ptrtoint ptr %106 to i64, !dbg !381
  %111 = sext i32 %109 to i64, !dbg !382
  %112 = mul i64 %111, 4194304, !dbg !383
  %113 = srem i64 %110, 4194304, !dbg !384
  %114 = add i64 %112, %113, !dbg !385
  %115 = add i64 %114, 10737418240, !dbg !386
  %116 = load ptr, ptr @_rbuf, align 8, !dbg !387
  %117 = getelementptr i8, ptr %116, i64 %115, !dbg !388
  %118 = call ptr @ridx_index_i64(ptr %9, i64 %105), !dbg !389
  %119 = getelementptr i32, ptr %33, i64 %107, !dbg !390
  %120 = load i32, ptr %119, align 4, !dbg !391
  %121 = ptrtoint ptr %118 to i64, !dbg !392
  %122 = sext i32 %120 to i64, !dbg !393
  %123 = mul i64 %122, 4194304, !dbg !394
  %124 = srem i64 %121, 4194304, !dbg !395
  %125 = add i64 %123, %124, !dbg !396
  %126 = add i64 %125, 9663676416, !dbg !397
  %127 = load ptr, ptr @_rbuf, align 8, !dbg !398
  %128 = getelementptr i8, ptr %127, i64 %126, !dbg !399
  %129 = call ptr @rmon_index_i16(ptr %10, i64 %105), !dbg !400
  %130 = getelementptr i32, ptr %51, i64 %107, !dbg !401
  %131 = load i32, ptr %130, align 4, !dbg !402
  %132 = ptrtoint ptr %129 to i64, !dbg !403
  %133 = sext i32 %131 to i64, !dbg !404
  %134 = mul i64 %133, 1048576, !dbg !405
  %135 = srem i64 %132, 1048576, !dbg !406
  %136 = add i64 %134, %135, !dbg !407
  %137 = add i64 %136, 13958643712, !dbg !408
  %138 = load ptr, ptr @_rbuf, align 8, !dbg !409
  %139 = getelementptr i8, ptr %138, i64 %137, !dbg !410
  %140 = add i32 %131, 416, !dbg !411
  %141 = sext i32 %140 to i64, !dbg !412
  %142 = getelementptr { i64, i8, i8, i16, i32 }, ptr @tokens, i64 %141, !dbg !413
  %143 = getelementptr { i64, i8, i8, i16, i32 }, ptr %142, i32 0, i32 3, !dbg !414
  %144 = load i16, ptr %143, align 2, !dbg !415
  call void @poll_qid14(i32 13, i16 %144), !dbg !416
  %145 = add i64 %70, 1, !dbg !417
  %146 = mul i64 %145, 524288, !dbg !418
  %147 = icmp sgt i64 %12, %146, !dbg !419
  br i1 %147, label %148, label %149, !dbg !420

148:                                              ; preds = %104
  br label %152, !dbg !421

149:                                              ; preds = %104
  %150 = mul i64 %70, 524288, !dbg !422
  %151 = sub i64 %12, %150, !dbg !423
  br label %152, !dbg !424

152:                                              ; preds = %148, %149
  %153 = phi i64 [ %151, %149 ], [ 524288, %148 ]
  br label %154, !dbg !425

154:                                              ; preds = %152
  %155 = mul i64 %70, 524288, !dbg !426
  br label %156, !dbg !427

156:                                              ; preds = %159, %154
  %157 = phi i64 [ %170, %159 ], [ 0, %154 ]
  %158 = icmp slt i64 %157, %153, !dbg !428
  br i1 %158, label %159, label %171, !dbg !429

159:                                              ; preds = %156
  %160 = add i64 %157, %155, !dbg !430
  %161 = getelementptr i64, ptr %117, i64 %157, !dbg !431
  %162 = getelementptr i64, ptr %128, i64 %157, !dbg !432
  %163 = getelementptr i16, ptr %139, i64 %157, !dbg !433
  %164 = call ptr @ridx_index_i64(ptr %9, i64 %160), !dbg !434
  %165 = load i64, ptr %162, align 8, !dbg !435
  store i64 %165, ptr %4, align 8, !dbg !436
  %166 = call ptr @rmon_index_i16(ptr %10, i64 %160), !dbg !437
  %167 = load i16, ptr %163, align 2, !dbg !438
  store i16 %167, ptr %3, align 2, !dbg !439
  %168 = call ptr @rdur_index_i64(ptr %11, i64 %160), !dbg !440
  %169 = load i64, ptr %161, align 8, !dbg !441
  store i64 %169, ptr %2, align 8, !dbg !442
  call void @_ZNSt6vectorImSaImEE9push_backERKm(ptr %7, ptr %4), !dbg !443
  call void @_ZNSt6vectorIsSaIsEE9push_backERKs(ptr %6, ptr %3), !dbg !444
  call void @_ZNSt6vectorImSaImEE9push_backERKm(ptr %5, ptr %2), !dbg !445
  %170 = add i64 %157, 1, !dbg !446
  br label %156, !dbg !447

171:                                              ; preds = %156
  %172 = add i64 %70, 1, !dbg !448
  br label %69, !dbg !449

173:                                              ; preds = %69
  call void @_Z24step7_process_after_copyPKcRSt6vectorImSaImEERS1_IsSaIsEES4_(ptr %0, ptr %7, ptr %6, ptr %5), !dbg !450
  ret void, !dbg !451
}

define linkonce_odr i64 @_ZNKSt6chrono8durationIlSt5ratioILl1ELl1000000EEE5countEv(ptr %0) !dbg !452 {
  %2 = getelementptr %"struct.std::chrono::duration.0", ptr %0, i32 0, i32 0, !dbg !453
  %3 = load i64, ptr %2, align 8, !dbg !455
  ret i64 %3, !dbg !456
}

define linkonce_odr %"struct.std::chrono::duration.0" @_ZNSt6chrono13duration_castINS_8durationIlSt5ratioILl1ELl1000000EEEElS2_ILl1ELl1000000000EEEENSt9enable_ifIXsr13__is_durationIT_EE5valueES7_E4typeERKNS1_IT0_T1_EE(ptr %0) !dbg !457 {
  %2 = alloca %"struct.std::chrono::duration.0", i64 1, align 8, !dbg !458
  %3 = alloca %"struct.std::chrono::duration.0", i64 1, align 8, !dbg !460
  %4 = call %"struct.std::chrono::duration.0" @_ZNSt6chrono20__duration_cast_implINS_8durationIlSt5ratioILl1ELl1000000EEEES2_ILl1ELl1000EElLb1ELb0EE6__castIlS2_ILl1ELl1000000000EEEES4_RKNS1_IT_T0_EE(ptr %0), !dbg !461
  store %"struct.std::chrono::duration.0" %4, ptr %2, align 8, !dbg !462
  call void @_ZNSt6chrono8durationIlSt5ratioILl1ELl1000000EEEC1ERKS3_(ptr %3, ptr %2), !dbg !463
  %5 = load %"struct.std::chrono::duration.0", ptr %3, align 8, !dbg !464
  ret %"struct.std::chrono::duration.0" %5, !dbg !465
}

define linkonce_odr %"struct.std::chrono::duration" @_ZNSt6chronomiINS_3_V212steady_clockENS_8durationIlSt5ratioILl1ELl1000000000EEEES6_EENSt11common_typeIJT0_T1_EE4typeERKNS_10time_pointIT_S8_EERKNSC_ISD_S9_EE(ptr %0, ptr %1) !dbg !466 {
  %3 = alloca %"struct.std::chrono::duration", i64 1, align 8, !dbg !467
  %4 = alloca %"struct.std::chrono::duration", i64 1, align 8, !dbg !469
  %5 = alloca %"struct.std::chrono::duration", i64 1, align 8, !dbg !470
  %6 = alloca %"struct.std::chrono::duration", i64 1, align 8, !dbg !471
  %7 = call %"struct.std::chrono::duration" @_ZNKSt6chrono10time_pointINS_3_V212steady_clockENS_8durationIlSt5ratioILl1ELl1000000000EEEEE16time_since_epochEv(ptr %0), !dbg !472
  store %"struct.std::chrono::duration" %7, ptr %5, align 8, !dbg !473
  %8 = call %"struct.std::chrono::duration" @_ZNKSt6chrono10time_pointINS_3_V212steady_clockENS_8durationIlSt5ratioILl1ELl1000000000EEEEE16time_since_epochEv(ptr %1), !dbg !474
  store %"struct.std::chrono::duration" %8, ptr %4, align 8, !dbg !475
  %9 = call %"struct.std::chrono::duration" @_ZNSt6chronomiIlSt5ratioILl1ELl1000000000EElS2_EENSt11common_typeIJNS_8durationIT_T0_EENS4_IT1_T2_EEEE4typeERKS7_RKSA_(ptr %5, ptr %4), !dbg !476
  store %"struct.std::chrono::duration" %9, ptr %3, align 8, !dbg !477
  call void @_ZNSt6chrono8durationIlSt5ratioILl1ELl1000000000EEEC1ERKS3_(ptr %6, ptr %3), !dbg !478
  %10 = load %"struct.std::chrono::duration", ptr %6, align 8, !dbg !479
  ret %"struct.std::chrono::duration" %10, !dbg !480
}

define linkonce_odr void @_ZNSt6chrono8durationIlSt5ratioILl1ELl1000000000EEEC1ERKS3_(ptr %0, ptr %1) !dbg !481 {
  %3 = getelementptr %"struct.std::chrono::duration", ptr %1, i32 0, i32 0, !dbg !482
  %4 = load i64, ptr %3, align 8, !dbg !484
  %5 = getelementptr %"struct.std::chrono::duration", ptr %0, i32 0, i32 0, !dbg !485
  store i64 %4, ptr %5, align 8, !dbg !486
  ret void, !dbg !487
}

define linkonce_odr %"struct.std::chrono::duration" @_ZNSt6chrono8durationIlSt5ratioILl1ELl1000000000EEE4zeroEv() !dbg !488 {
  %1 = alloca %"struct.std::chrono::duration", i64 1, align 8, !dbg !489
  %2 = alloca i64, i64 1, align 8, !dbg !491
  store i64 undef, ptr %2, align 8, !dbg !492
  %3 = alloca %"struct.std::chrono::duration", i64 1, align 8, !dbg !493
  %4 = alloca %"struct.std::chrono::duration", i64 1, align 8, !dbg !494
  store i64 0, ptr %2, align 8, !dbg !495
  call void @_ZNSt6chrono8durationIlSt5ratioILl1ELl1000000000EEEC1IlvEERKT_(ptr %3, ptr %2), !dbg !496
  %5 = load %"struct.std::chrono::duration", ptr %3, align 8, !dbg !497
  store %"struct.std::chrono::duration" %5, ptr %1, align 8, !dbg !498
  call void @_ZNSt6chrono8durationIlSt5ratioILl1ELl1000000000EEEC1ERKS3_(ptr %4, ptr %1), !dbg !499
  %6 = load %"struct.std::chrono::duration", ptr %4, align 8, !dbg !500
  ret %"struct.std::chrono::duration" %6, !dbg !501
}

define linkonce_odr ptr @_ZNSt6chrono8durationIlSt5ratioILl1ELl1000000000EEEaSERKS3_(ptr %0, ptr %1) !dbg !502 {
  %3 = getelementptr %"struct.std::chrono::duration", ptr %0, i32 0, i32 0, !dbg !503
  %4 = getelementptr %"struct.std::chrono::duration", ptr %1, i32 0, i32 0, !dbg !505
  %5 = load i64, ptr %4, align 8, !dbg !506
  store i64 %5, ptr %3, align 8, !dbg !507
  ret ptr %0, !dbg !508
}

define linkonce_odr i64 @_ZNKSt6vectorImSaImEE4sizeEv(ptr %0) !dbg !509 {
  %2 = getelementptr %"class.std::vector", ptr %0, i32 0, i32 0, !dbg !510
  %3 = getelementptr %"struct.std::_Vector_base", ptr %2, i32 0, i32 0, !dbg !512
  %4 = getelementptr %"struct.std::_Vector_base<unsigned long, std::allocator<unsigned long>>::_Vector_impl", ptr %3, i32 0, i32 0, !dbg !513
  %5 = getelementptr %"struct.std::_Vector_base<unsigned long, std::allocator<unsigned long>>::_Vector_impl_data", ptr %4, i32 0, i32 1, !dbg !514
  %6 = load ptr, ptr %5, align 8, !dbg !515
  %7 = getelementptr %"struct.std::_Vector_base<unsigned long, std::allocator<unsigned long>>::_Vector_impl_data", ptr %4, i32 0, i32 0, !dbg !516
  %8 = load ptr, ptr %7, align 8, !dbg !517
  %9 = ptrtoint ptr %6 to i64, !dbg !518
  %10 = ptrtoint ptr %8 to i64, !dbg !519
  %11 = sub i64 %9, %10, !dbg !520
  %12 = sdiv i64 %11, 8, !dbg !521
  ret i64 %12, !dbg !522
}

define linkonce_odr i64 @ridx_size_i64(ptr %0) !dbg !523 {
  %2 = getelementptr %"_Lowered_rid::class.std::vector.1", ptr %0, i32 0, i32 0, !dbg !524
  %3 = getelementptr %"_Lowered_rid::struct.std::_Vector_base.2", ptr %2, i32 0, i32 0, !dbg !526
  %4 = getelementptr %"_Lowered_rid::struct.std::_Vector_base<unsigned long, std::allocator<unsigned long>>::_Vector_impl", ptr %3, i32 0, i32 0, !dbg !527
  %5 = getelementptr %"_Lowered_rid::struct.std::_Vector_base<unsigned long, std::allocator<unsigned long>>::_Vector_impl_data", ptr %4, i32 0, i32 1, !dbg !528
  %6 = load ptr, ptr %5, align 8, !dbg !529
  %7 = getelementptr %"_Lowered_rid::struct.std::_Vector_base<unsigned long, std::allocator<unsigned long>>::_Vector_impl_data", ptr %4, i32 0, i32 0, !dbg !530
  %8 = load ptr, ptr %7, align 8, !dbg !531
  %9 = ptrtoint ptr %6 to i64, !dbg !532
  %10 = ptrtoint ptr %8 to i64, !dbg !533
  %11 = sub i64 %9, %10, !dbg !534
  %12 = sdiv i64 %11, 8, !dbg !535
  ret i64 %12, !dbg !536
}

define linkonce_odr void @_ZNSt6vectorImSaImEEC1Ev(ptr %0) !dbg !537 {
  %2 = getelementptr %"class.std::vector", ptr %0, i32 0, i32 0, !dbg !538
  call void @_ZNSt12_Vector_baseImSaImEEC1Ev(ptr %2), !dbg !540
  ret void, !dbg !541
}

define linkonce_odr void @_ZNSt6vectorImSaImEE7reserveEm(ptr %0, i64 %1) !dbg !542 {
  %3 = alloca %"class.std::move_iterator", i64 1, align 8, !dbg !543
  %4 = alloca %"class.std::move_iterator", i64 1, align 8, !dbg !545
  %5 = alloca %"class.std::move_iterator", i64 1, align 8, !dbg !546
  %6 = alloca %"class.std::move_iterator", i64 1, align 8, !dbg !547
  %7 = call i64 @_ZNKSt6vectorImSaImEE8max_sizeEv(ptr %0), !dbg !548
  %8 = icmp sgt i64 %1, %7, !dbg !549
  br i1 %8, label %9, label %10, !dbg !550

9:                                                ; preds = %2
  call void @_ZSt20__throw_length_errorPKc(ptr @str5), !dbg !551
  br label %10, !dbg !552

10:                                               ; preds = %9, %2
  %11 = call i64 @_ZNKSt6vectorImSaImEE8capacityEv(ptr %0), !dbg !553
  %12 = icmp slt i64 %11, %1, !dbg !554
  br i1 %12, label %13, label %60, !dbg !555

13:                                               ; preds = %10
  %14 = call i64 @_ZNKSt6vectorImSaImEE4sizeEv(ptr %0), !dbg !556
  %15 = call i8 @_ZNSt6vectorImSaImEE15_S_use_relocateEv(), !dbg !557
  %16 = icmp ne i8 %15, 0, !dbg !558
  br i1 %16, label %17, label %28, !dbg !559

17:                                               ; preds = %13
  %18 = getelementptr %"class.std::vector", ptr %0, i32 0, i32 0, !dbg !560
  %19 = call ptr @_ZNSt12_Vector_baseImSaImEE11_M_allocateEm(ptr %18, i64 %1), !dbg !561
  %20 = getelementptr %"struct.std::_Vector_base", ptr %18, i32 0, i32 0, !dbg !562
  %21 = getelementptr %"struct.std::_Vector_base<unsigned long, std::allocator<unsigned long>>::_Vector_impl", ptr %20, i32 0, i32 0, !dbg !563
  %22 = getelementptr %"struct.std::_Vector_base<unsigned long, std::allocator<unsigned long>>::_Vector_impl_data", ptr %21, i32 0, i32 0, !dbg !564
  %23 = load ptr, ptr %22, align 8, !dbg !565
  %24 = getelementptr %"struct.std::_Vector_base<unsigned long, std::allocator<unsigned long>>::_Vector_impl_data", ptr %21, i32 0, i32 1, !dbg !566
  %25 = load ptr, ptr %24, align 8, !dbg !567
  %26 = call ptr @_ZNSt12_Vector_baseImSaImEE19_M_get_Tp_allocatorEv(ptr %18), !dbg !568
  %27 = call ptr @_ZSt14__relocate_a_1ImmENSt9enable_ifIXsr3std24__is_bitwise_relocatableIT_EE5valueEPS1_E4typeES2_S2_S2_RSaIT0_E(ptr %23, ptr %25, ptr %19, ptr %26), !dbg !569
  br label %42, !dbg !570

28:                                               ; preds = %13
  %29 = getelementptr %"class.std::vector", ptr %0, i32 0, i32 0, !dbg !571
  %30 = getelementptr %"struct.std::_Vector_base", ptr %29, i32 0, i32 0, !dbg !572
  %31 = getelementptr %"struct.std::_Vector_base<unsigned long, std::allocator<unsigned long>>::_Vector_impl", ptr %30, i32 0, i32 0, !dbg !573
  %32 = getelementptr %"struct.std::_Vector_base<unsigned long, std::allocator<unsigned long>>::_Vector_impl_data", ptr %31, i32 0, i32 0, !dbg !574
  %33 = load ptr, ptr %32, align 8, !dbg !575
  %34 = call %"class.std::move_iterator" @_ZSt32__make_move_if_noexcept_iteratorImSt13move_iteratorIPmEET0_PT_(ptr %33), !dbg !576
  store %"class.std::move_iterator" %34, ptr %5, align 8, !dbg !577
  call void @_ZNSt13move_iteratorIPmEC1EOS1_(ptr %6, ptr %5), !dbg !578
  %35 = getelementptr %"struct.std::_Vector_base<unsigned long, std::allocator<unsigned long>>::_Vector_impl_data", ptr %31, i32 0, i32 1, !dbg !579
  %36 = load ptr, ptr %35, align 8, !dbg !580
  %37 = call %"class.std::move_iterator" @_ZSt32__make_move_if_noexcept_iteratorImSt13move_iteratorIPmEET0_PT_(ptr %36), !dbg !581
  store %"class.std::move_iterator" %37, ptr %3, align 8, !dbg !582
  call void @_ZNSt13move_iteratorIPmEC1EOS1_(ptr %4, ptr %3), !dbg !583
  %38 = load %"class.std::move_iterator", ptr %6, align 8, !dbg !584
  %39 = load %"class.std::move_iterator", ptr %4, align 8, !dbg !585
  %40 = call ptr @_ZNSt6vectorImSaImEE20_M_allocate_and_copyISt13move_iteratorIPmEEES4_mT_S6_(ptr %0, i64 %1, %"class.std::move_iterator" %38, %"class.std::move_iterator" %39), !dbg !586
  %41 = call ptr @_ZNSt12_Vector_baseImSaImEE19_M_get_Tp_allocatorEv(ptr %29), !dbg !587
  br label %42, !dbg !588

42:                                               ; preds = %17, %28
  %43 = phi ptr [ %40, %28 ], [ %19, %17 ]
  br label %44, !dbg !589

44:                                               ; preds = %42
  %45 = getelementptr %"class.std::vector", ptr %0, i32 0, i32 0, !dbg !590
  %46 = getelementptr %"struct.std::_Vector_base", ptr %45, i32 0, i32 0, !dbg !591
  %47 = getelementptr %"struct.std::_Vector_base<unsigned long, std::allocator<unsigned long>>::_Vector_impl", ptr %46, i32 0, i32 0, !dbg !592
  %48 = getelementptr %"struct.std::_Vector_base<unsigned long, std::allocator<unsigned long>>::_Vector_impl_data", ptr %47, i32 0, i32 0, !dbg !593
  %49 = load ptr, ptr %48, align 8, !dbg !594
  %50 = getelementptr %"struct.std::_Vector_base<unsigned long, std::allocator<unsigned long>>::_Vector_impl_data", ptr %47, i32 0, i32 2, !dbg !595
  %51 = load ptr, ptr %50, align 8, !dbg !596
  %52 = ptrtoint ptr %51 to i64, !dbg !597
  %53 = ptrtoint ptr %49 to i64, !dbg !598
  %54 = sub i64 %52, %53, !dbg !599
  %55 = sdiv i64 %54, 8, !dbg !600
  call void @_ZNSt12_Vector_baseImSaImEE13_M_deallocateEPmm(ptr %45, ptr %49, i64 %55), !dbg !601
  store ptr %43, ptr %48, align 8, !dbg !602
  %56 = getelementptr %"struct.std::_Vector_base<unsigned long, std::allocator<unsigned long>>::_Vector_impl_data", ptr %47, i32 0, i32 1, !dbg !603
  %57 = getelementptr i64, ptr %43, i64 %14, !dbg !604
  store ptr %57, ptr %56, align 8, !dbg !605
  %58 = load ptr, ptr %48, align 8, !dbg !606
  %59 = getelementptr i64, ptr %58, i64 %1, !dbg !607
  store ptr %59, ptr %50, align 8, !dbg !608
  br label %60, !dbg !609

60:                                               ; preds = %44, %10
  ret void, !dbg !610
}

define linkonce_odr void @_ZNSt6vectorIsSaIsEEC1Ev(ptr %0) !dbg !611 {
  %2 = getelementptr %"class.std::vector.1", ptr %0, i32 0, i32 0, !dbg !612
  call void @_ZNSt12_Vector_baseIsSaIsEEC1Ev(ptr %2), !dbg !614
  ret void, !dbg !615
}

define linkonce_odr void @_ZNSt6vectorIsSaIsEE7reserveEm(ptr %0, i64 %1) !dbg !616 {
  %3 = alloca %"class.std::move_iterator.6", i64 1, align 8, !dbg !617
  %4 = alloca %"class.std::move_iterator.6", i64 1, align 8, !dbg !619
  %5 = alloca %"class.std::move_iterator.6", i64 1, align 8, !dbg !620
  %6 = alloca %"class.std::move_iterator.6", i64 1, align 8, !dbg !621
  %7 = call i64 @_ZNKSt6vectorIsSaIsEE8max_sizeEv(ptr %0), !dbg !622
  %8 = icmp sgt i64 %1, %7, !dbg !623
  br i1 %8, label %9, label %10, !dbg !624

9:                                                ; preds = %2
  call void @_ZSt20__throw_length_errorPKc(ptr @str5), !dbg !625
  br label %10, !dbg !626

10:                                               ; preds = %9, %2
  %11 = call i64 @_ZNKSt6vectorIsSaIsEE8capacityEv(ptr %0), !dbg !627
  %12 = icmp slt i64 %11, %1, !dbg !628
  br i1 %12, label %13, label %60, !dbg !629

13:                                               ; preds = %10
  %14 = call i64 @_ZNKSt6vectorIsSaIsEE4sizeEv(ptr %0), !dbg !630
  %15 = call i8 @_ZNSt6vectorIsSaIsEE15_S_use_relocateEv(), !dbg !631
  %16 = icmp ne i8 %15, 0, !dbg !632
  br i1 %16, label %17, label %28, !dbg !633

17:                                               ; preds = %13
  %18 = getelementptr %"class.std::vector.1", ptr %0, i32 0, i32 0, !dbg !634
  %19 = call ptr @_ZNSt12_Vector_baseIsSaIsEE11_M_allocateEm(ptr %18, i64 %1), !dbg !635
  %20 = getelementptr %"struct.std::_Vector_base.2", ptr %18, i32 0, i32 0, !dbg !636
  %21 = getelementptr %"struct.std::_Vector_base<short, std::allocator<short>>::_Vector_impl", ptr %20, i32 0, i32 0, !dbg !637
  %22 = getelementptr %"struct.std::_Vector_base<short, std::allocator<short>>::_Vector_impl_data", ptr %21, i32 0, i32 0, !dbg !638
  %23 = load ptr, ptr %22, align 8, !dbg !639
  %24 = getelementptr %"struct.std::_Vector_base<short, std::allocator<short>>::_Vector_impl_data", ptr %21, i32 0, i32 1, !dbg !640
  %25 = load ptr, ptr %24, align 8, !dbg !641
  %26 = call ptr @_ZNSt12_Vector_baseIsSaIsEE19_M_get_Tp_allocatorEv(ptr %18), !dbg !642
  %27 = call ptr @_ZSt14__relocate_a_1IssENSt9enable_ifIXsr3std24__is_bitwise_relocatableIT_EE5valueEPS1_E4typeES2_S2_S2_RSaIT0_E(ptr %23, ptr %25, ptr %19, ptr %26), !dbg !643
  br label %42, !dbg !644

28:                                               ; preds = %13
  %29 = getelementptr %"class.std::vector.1", ptr %0, i32 0, i32 0, !dbg !645
  %30 = getelementptr %"struct.std::_Vector_base.2", ptr %29, i32 0, i32 0, !dbg !646
  %31 = getelementptr %"struct.std::_Vector_base<short, std::allocator<short>>::_Vector_impl", ptr %30, i32 0, i32 0, !dbg !647
  %32 = getelementptr %"struct.std::_Vector_base<short, std::allocator<short>>::_Vector_impl_data", ptr %31, i32 0, i32 0, !dbg !648
  %33 = load ptr, ptr %32, align 8, !dbg !649
  %34 = call %"class.std::move_iterator.6" @_ZSt32__make_move_if_noexcept_iteratorIsSt13move_iteratorIPsEET0_PT_(ptr %33), !dbg !650
  store %"class.std::move_iterator.6" %34, ptr %5, align 8, !dbg !651
  call void @_ZNSt13move_iteratorIPsEC1EOS1_(ptr %6, ptr %5), !dbg !652
  %35 = getelementptr %"struct.std::_Vector_base<short, std::allocator<short>>::_Vector_impl_data", ptr %31, i32 0, i32 1, !dbg !653
  %36 = load ptr, ptr %35, align 8, !dbg !654
  %37 = call %"class.std::move_iterator.6" @_ZSt32__make_move_if_noexcept_iteratorIsSt13move_iteratorIPsEET0_PT_(ptr %36), !dbg !655
  store %"class.std::move_iterator.6" %37, ptr %3, align 8, !dbg !656
  call void @_ZNSt13move_iteratorIPsEC1EOS1_(ptr %4, ptr %3), !dbg !657
  %38 = load %"class.std::move_iterator.6", ptr %6, align 8, !dbg !658
  %39 = load %"class.std::move_iterator.6", ptr %4, align 8, !dbg !659
  %40 = call ptr @_ZNSt6vectorIsSaIsEE20_M_allocate_and_copyISt13move_iteratorIPsEEES4_mT_S6_(ptr %0, i64 %1, %"class.std::move_iterator.6" %38, %"class.std::move_iterator.6" %39), !dbg !660
  %41 = call ptr @_ZNSt12_Vector_baseIsSaIsEE19_M_get_Tp_allocatorEv(ptr %29), !dbg !661
  br label %42, !dbg !662

42:                                               ; preds = %17, %28
  %43 = phi ptr [ %40, %28 ], [ %19, %17 ]
  br label %44, !dbg !663

44:                                               ; preds = %42
  %45 = getelementptr %"class.std::vector.1", ptr %0, i32 0, i32 0, !dbg !664
  %46 = getelementptr %"struct.std::_Vector_base.2", ptr %45, i32 0, i32 0, !dbg !665
  %47 = getelementptr %"struct.std::_Vector_base<short, std::allocator<short>>::_Vector_impl", ptr %46, i32 0, i32 0, !dbg !666
  %48 = getelementptr %"struct.std::_Vector_base<short, std::allocator<short>>::_Vector_impl_data", ptr %47, i32 0, i32 0, !dbg !667
  %49 = load ptr, ptr %48, align 8, !dbg !668
  %50 = getelementptr %"struct.std::_Vector_base<short, std::allocator<short>>::_Vector_impl_data", ptr %47, i32 0, i32 2, !dbg !669
  %51 = load ptr, ptr %50, align 8, !dbg !670
  %52 = ptrtoint ptr %51 to i64, !dbg !671
  %53 = ptrtoint ptr %49 to i64, !dbg !672
  %54 = sub i64 %52, %53, !dbg !673
  %55 = sdiv i64 %54, 2, !dbg !674
  call void @_ZNSt12_Vector_baseIsSaIsEE13_M_deallocateEPsm(ptr %45, ptr %49, i64 %55), !dbg !675
  store ptr %43, ptr %48, align 8, !dbg !676
  %56 = getelementptr %"struct.std::_Vector_base<short, std::allocator<short>>::_Vector_impl_data", ptr %47, i32 0, i32 1, !dbg !677
  %57 = getelementptr i16, ptr %43, i64 %14, !dbg !678
  store ptr %57, ptr %56, align 8, !dbg !679
  %58 = load ptr, ptr %48, align 8, !dbg !680
  %59 = getelementptr i16, ptr %58, i64 %1, !dbg !681
  store ptr %59, ptr %50, align 8, !dbg !682
  br label %60, !dbg !683

60:                                               ; preds = %44, %10
  ret void, !dbg !684
}

define linkonce_odr ptr @_ZNSt6vectorImSaImEEixEm(ptr %0, i64 %1) !dbg !685 {
  %3 = getelementptr %"class.std::vector", ptr %0, i32 0, i32 0, !dbg !686
  %4 = getelementptr %"struct.std::_Vector_base", ptr %3, i32 0, i32 0, !dbg !688
  %5 = getelementptr %"struct.std::_Vector_base<unsigned long, std::allocator<unsigned long>>::_Vector_impl", ptr %4, i32 0, i32 0, !dbg !689
  %6 = getelementptr %"struct.std::_Vector_base<unsigned long, std::allocator<unsigned long>>::_Vector_impl_data", ptr %5, i32 0, i32 0, !dbg !690
  %7 = load ptr, ptr %6, align 8, !dbg !691
  %8 = getelementptr i64, ptr %7, i64 %1, !dbg !692
  ret ptr %8, !dbg !693
}

define linkonce_odr ptr @ridx_index_i64(ptr %0, i64 %1) !dbg !694 {
  %3 = getelementptr %"_Lowered_rid::class.std::vector.1", ptr %0, i32 0, i32 0, !dbg !695
  %4 = getelementptr %"_Lowered_rid::struct.std::_Vector_base.2", ptr %3, i32 0, i32 0, !dbg !697
  %5 = getelementptr %"_Lowered_rid::struct.std::_Vector_base<unsigned long, std::allocator<unsigned long>>::_Vector_impl", ptr %4, i32 0, i32 0, !dbg !698
  %6 = getelementptr %"_Lowered_rid::struct.std::_Vector_base<unsigned long, std::allocator<unsigned long>>::_Vector_impl_data", ptr %5, i32 0, i32 0, !dbg !699
  %7 = load ptr, ptr %6, align 8, !dbg !700
  %8 = getelementptr i64, ptr %7, i64 %1, !dbg !701
  ret ptr %8, !dbg !702
}

define linkonce_odr ptr @rdur_index_i64(ptr %0, i64 %1) !dbg !703 {
  %3 = getelementptr %"_Lowered_rdur::class.std::vector", ptr %0, i32 0, i32 0, !dbg !704
  %4 = getelementptr %"_Lowered_rdur::struct.std::_Vector_base", ptr %3, i32 0, i32 0, !dbg !706
  %5 = getelementptr %"_Lowered_rdur::struct.std::_Vector_base<unsigned long, std::allocator<unsigned long>>::_Vector_impl", ptr %4, i32 0, i32 0, !dbg !707
  %6 = getelementptr %"_Lowered_rdur::struct.std::_Vector_base<unsigned long, std::allocator<unsigned long>>::_Vector_impl_data", ptr %5, i32 0, i32 0, !dbg !708
  %7 = load ptr, ptr %6, align 8, !dbg !709
  %8 = getelementptr i64, ptr %7, i64 %1, !dbg !710
  ret ptr %8, !dbg !711
}

define linkonce_odr ptr @_ZNSt6vectorIsSaIsEEixEm(ptr %0, i64 %1) !dbg !712 {
  %3 = getelementptr %"class.std::vector.1", ptr %0, i32 0, i32 0, !dbg !713
  %4 = getelementptr %"struct.std::_Vector_base.2", ptr %3, i32 0, i32 0, !dbg !715
  %5 = getelementptr %"struct.std::_Vector_base<short, std::allocator<short>>::_Vector_impl", ptr %4, i32 0, i32 0, !dbg !716
  %6 = getelementptr %"struct.std::_Vector_base<short, std::allocator<short>>::_Vector_impl_data", ptr %5, i32 0, i32 0, !dbg !717
  %7 = load ptr, ptr %6, align 8, !dbg !718
  %8 = getelementptr i16, ptr %7, i64 %1, !dbg !719
  ret ptr %8, !dbg !720
}

define linkonce_odr ptr @rday_index_i16(ptr %0, i64 %1) !dbg !721 {
  %3 = getelementptr %"_Lowered_rday::class.std::vector.1", ptr %0, i32 0, i32 0, !dbg !722
  %4 = getelementptr %"_Lowered_rday::struct.std::_Vector_base.2", ptr %3, i32 0, i32 0, !dbg !724
  %5 = getelementptr %"_Lowered_rday::struct.std::_Vector_base<short, std::allocator<short>>::_Vector_impl", ptr %4, i32 0, i32 0, !dbg !725
  %6 = getelementptr %"_Lowered_rday::struct.std::_Vector_base<short, std::allocator<short>>::_Vector_impl_data", ptr %5, i32 0, i32 0, !dbg !726
  %7 = load ptr, ptr %6, align 8, !dbg !727
  %8 = getelementptr i16, ptr %7, i64 %1, !dbg !728
  ret ptr %8, !dbg !729
}

define linkonce_odr ptr @rmon_index_i16(ptr %0, i64 %1) !dbg !730 {
  %3 = getelementptr %"_Lowered_rmon::class.std::vector.1", ptr %0, i32 0, i32 0, !dbg !731
  %4 = getelementptr %"_Lowered_rmon::struct.std::_Vector_base.2", ptr %3, i32 0, i32 0, !dbg !733
  %5 = getelementptr %"_Lowered_rmon::struct.std::_Vector_base<short, std::allocator<short>>::_Vector_impl", ptr %4, i32 0, i32 0, !dbg !734
  %6 = getelementptr %"_Lowered_rmon::struct.std::_Vector_base<short, std::allocator<short>>::_Vector_impl_data", ptr %5, i32 0, i32 0, !dbg !735
  %7 = load ptr, ptr %6, align 8, !dbg !736
  %8 = getelementptr i16, ptr %7, i64 %1, !dbg !737
  ret ptr %8, !dbg !738
}

define linkonce_odr void @_ZNSt6vectorImSaImEE9push_backERKm(ptr %0, ptr %1) !dbg !739 {
  %3 = alloca %"class.__gnu_cxx::__normal_iterator", i64 1, align 8, !dbg !740
  %4 = alloca %"class.__gnu_cxx::__normal_iterator", i64 1, align 8, !dbg !742
  %5 = getelementptr %"class.std::vector", ptr %0, i32 0, i32 0, !dbg !743
  %6 = getelementptr %"struct.std::_Vector_base", ptr %5, i32 0, i32 0, !dbg !744
  %7 = getelementptr %"struct.std::_Vector_base<unsigned long, std::allocator<unsigned long>>::_Vector_impl", ptr %6, i32 0, i32 0, !dbg !745
  %8 = getelementptr %"struct.std::_Vector_base<unsigned long, std::allocator<unsigned long>>::_Vector_impl_data", ptr %7, i32 0, i32 1, !dbg !746
  %9 = load ptr, ptr %8, align 8, !dbg !747
  %10 = getelementptr %"struct.std::_Vector_base<unsigned long, std::allocator<unsigned long>>::_Vector_impl_data", ptr %7, i32 0, i32 2, !dbg !748
  %11 = load ptr, ptr %10, align 8, !dbg !749
  %12 = icmp ne ptr %9, %11, !dbg !750
  br i1 %12, label %13, label %19, !dbg !751

13:                                               ; preds = %2
  %14 = icmp ne ptr %6, null, !dbg !752
  %15 = select i1 %14, ptr %6, ptr null, !dbg !753
  %16 = load ptr, ptr %8, align 8, !dbg !754
  call void @_ZNSt16allocator_traitsISaImEE9constructImJRKmEEEvRS0_PT_DpOT0_(ptr %15, ptr %16, ptr %1), !dbg !755
  %17 = load ptr, ptr %8, align 8, !dbg !756
  %18 = getelementptr i64, ptr %17, i32 1, !dbg !757
  store ptr %18, ptr %8, align 8, !dbg !758
  br label %22, !dbg !759

19:                                               ; preds = %2
  %20 = call %"class.__gnu_cxx::__normal_iterator" @_ZNSt6vectorImSaImEE3endEv(ptr %0), !dbg !760
  store %"class.__gnu_cxx::__normal_iterator" %20, ptr %3, align 8, !dbg !761
  call void @_ZN9__gnu_cxx17__normal_iteratorIPmSt6vectorImSaImEEEC1EOS5_(ptr %4, ptr %3), !dbg !762
  %21 = load %"class.__gnu_cxx::__normal_iterator", ptr %4, align 8, !dbg !763
  call void @_ZNSt6vectorImSaImEE17_M_realloc_insertIJRKmEEEvN9__gnu_cxx17__normal_iteratorIPmS1_EEDpOT_(ptr %0, %"class.__gnu_cxx::__normal_iterator" %21, ptr %1), !dbg !764
  br label %22, !dbg !765

22:                                               ; preds = %13, %19
  ret void, !dbg !766
}

define linkonce_odr void @_ZNSt6vectorIsSaIsEE9push_backERKs(ptr %0, ptr %1) !dbg !767 {
  %3 = alloca %"class.__gnu_cxx::__normal_iterator.7", i64 1, align 8, !dbg !768
  %4 = alloca %"class.__gnu_cxx::__normal_iterator.7", i64 1, align 8, !dbg !770
  %5 = getelementptr %"class.std::vector.1", ptr %0, i32 0, i32 0, !dbg !771
  %6 = getelementptr %"struct.std::_Vector_base.2", ptr %5, i32 0, i32 0, !dbg !772
  %7 = getelementptr %"struct.std::_Vector_base<short, std::allocator<short>>::_Vector_impl", ptr %6, i32 0, i32 0, !dbg !773
  %8 = getelementptr %"struct.std::_Vector_base<short, std::allocator<short>>::_Vector_impl_data", ptr %7, i32 0, i32 1, !dbg !774
  %9 = load ptr, ptr %8, align 8, !dbg !775
  %10 = getelementptr %"struct.std::_Vector_base<short, std::allocator<short>>::_Vector_impl_data", ptr %7, i32 0, i32 2, !dbg !776
  %11 = load ptr, ptr %10, align 8, !dbg !777
  %12 = icmp ne ptr %9, %11, !dbg !778
  br i1 %12, label %13, label %19, !dbg !779

13:                                               ; preds = %2
  %14 = icmp ne ptr %6, null, !dbg !780
  %15 = select i1 %14, ptr %6, ptr null, !dbg !781
  %16 = load ptr, ptr %8, align 8, !dbg !782
  call void @_ZNSt16allocator_traitsISaIsEE9constructIsJRKsEEEvRS0_PT_DpOT0_(ptr %15, ptr %16, ptr %1), !dbg !783
  %17 = load ptr, ptr %8, align 8, !dbg !784
  %18 = getelementptr i16, ptr %17, i32 1, !dbg !785
  store ptr %18, ptr %8, align 8, !dbg !786
  br label %22, !dbg !787

19:                                               ; preds = %2
  %20 = call %"class.__gnu_cxx::__normal_iterator.7" @_ZNSt6vectorIsSaIsEE3endEv(ptr %0), !dbg !788
  store %"class.__gnu_cxx::__normal_iterator.7" %20, ptr %3, align 8, !dbg !789
  call void @_ZN9__gnu_cxx17__normal_iteratorIPsSt6vectorIsSaIsEEEC1EOS5_(ptr %4, ptr %3), !dbg !790
  %21 = load %"class.__gnu_cxx::__normal_iterator.7", ptr %4, align 8, !dbg !791
  call void @_ZNSt6vectorIsSaIsEE17_M_realloc_insertIJRKsEEEvN9__gnu_cxx17__normal_iteratorIPsS1_EEDpOT_(ptr %0, %"class.__gnu_cxx::__normal_iterator.7" %21, ptr %1), !dbg !792
  br label %22, !dbg !793

22:                                               ; preds = %13, %19
  ret void, !dbg !794
}

declare void @_Z24step7_process_after_copyPKcRSt6vectorImSaImEERS1_IsSaIsEES4_(ptr, ptr, ptr, ptr)

define linkonce_odr void @_ZNSt6chrono8durationIlSt5ratioILl1ELl1000000EEEC1ERKS3_(ptr %0, ptr %1) !dbg !795 {
  %3 = getelementptr %"struct.std::chrono::duration.0", ptr %1, i32 0, i32 0, !dbg !796
  %4 = load i64, ptr %3, align 8, !dbg !798
  %5 = getelementptr %"struct.std::chrono::duration.0", ptr %0, i32 0, i32 0, !dbg !799
  store i64 %4, ptr %5, align 8, !dbg !800
  ret void, !dbg !801
}

define linkonce_odr %"struct.std::chrono::duration.0" @_ZNSt6chrono20__duration_cast_implINS_8durationIlSt5ratioILl1ELl1000000EEEES2_ILl1ELl1000EElLb1ELb0EE6__castIlS2_ILl1ELl1000000000EEEES4_RKNS1_IT_T0_EE(ptr %0) !dbg !802 {
  %2 = alloca %"struct.std::chrono::duration.0", i64 1, align 8, !dbg !803
  %3 = alloca i64, i64 1, align 8, !dbg !805
  store i64 undef, ptr %3, align 8, !dbg !806
  %4 = alloca %"struct.std::chrono::duration.0", i64 1, align 8, !dbg !807
  %5 = alloca %"struct.std::chrono::duration.0", i64 1, align 8, !dbg !808
  %6 = call i64 @_ZNKSt6chrono8durationIlSt5ratioILl1ELl1000000000EEE5countEv(ptr %0), !dbg !809
  %7 = sdiv i64 %6, 1000, !dbg !810
  store i64 %7, ptr %3, align 8, !dbg !811
  call void @_ZNSt6chrono8durationIlSt5ratioILl1ELl1000000EEEC1IlvEERKT_(ptr %4, ptr %3), !dbg !812
  %8 = load %"struct.std::chrono::duration.0", ptr %4, align 8, !dbg !813
  store %"struct.std::chrono::duration.0" %8, ptr %2, align 8, !dbg !814
  call void @_ZNSt6chrono8durationIlSt5ratioILl1ELl1000000EEEC1ERKS3_(ptr %5, ptr %2), !dbg !815
  %9 = load %"struct.std::chrono::duration.0", ptr %5, align 8, !dbg !816
  ret %"struct.std::chrono::duration.0" %9, !dbg !817
}

define linkonce_odr %"struct.std::chrono::duration" @_ZNSt6chronomiIlSt5ratioILl1ELl1000000000EElS2_EENSt11common_typeIJNS_8durationIT_T0_EENS4_IT1_T2_EEEE4typeERKS7_RKSA_(ptr %0, ptr %1) !dbg !818 {
  %3 = alloca %"struct.std::chrono::duration", i64 1, align 8, !dbg !819
  %4 = alloca i64, i64 1, align 8, !dbg !821
  store i64 undef, ptr %4, align 8, !dbg !822
  %5 = alloca %"struct.std::chrono::duration", i64 1, align 8, !dbg !823
  %6 = alloca %"struct.std::chrono::duration", i64 1, align 8, !dbg !824
  %7 = alloca %"struct.std::chrono::duration", i64 1, align 8, !dbg !825
  %8 = alloca %"struct.std::chrono::duration", i64 1, align 8, !dbg !826
  %9 = alloca %"struct.std::chrono::duration", i64 1, align 8, !dbg !827
  %10 = alloca %"struct.std::chrono::duration", i64 1, align 8, !dbg !828
  call void @_ZNSt6chrono8durationIlSt5ratioILl1ELl1000000000EEEC1ERKS3_(ptr %8, ptr %0), !dbg !829
  %11 = load %"struct.std::chrono::duration", ptr %8, align 8, !dbg !830
  store %"struct.std::chrono::duration" %11, ptr %7, align 8, !dbg !831
  %12 = call i64 @_ZNKSt6chrono8durationIlSt5ratioILl1ELl1000000000EEE5countEv(ptr %7), !dbg !832
  call void @_ZNSt6chrono8durationIlSt5ratioILl1ELl1000000000EEEC1ERKS3_(ptr %6, ptr %1), !dbg !833
  %13 = load %"struct.std::chrono::duration", ptr %6, align 8, !dbg !834
  store %"struct.std::chrono::duration" %13, ptr %5, align 8, !dbg !835
  %14 = call i64 @_ZNKSt6chrono8durationIlSt5ratioILl1ELl1000000000EEE5countEv(ptr %5), !dbg !836
  %15 = sub i64 %12, %14, !dbg !837
  store i64 %15, ptr %4, align 8, !dbg !838
  call void @_ZNSt6chrono8durationIlSt5ratioILl1ELl1000000000EEEC1IlvEERKT_(ptr %9, ptr %4), !dbg !839
  %16 = load %"struct.std::chrono::duration", ptr %9, align 8, !dbg !840
  store %"struct.std::chrono::duration" %16, ptr %3, align 8, !dbg !841
  call void @_ZNSt6chrono8durationIlSt5ratioILl1ELl1000000000EEEC1ERKS3_(ptr %10, ptr %3), !dbg !842
  %17 = load %"struct.std::chrono::duration", ptr %10, align 8, !dbg !843
  ret %"struct.std::chrono::duration" %17, !dbg !844
}

define linkonce_odr %"struct.std::chrono::duration" @_ZNKSt6chrono10time_pointINS_3_V212steady_clockENS_8durationIlSt5ratioILl1ELl1000000000EEEEE16time_since_epochEv(ptr %0) !dbg !845 {
  %2 = alloca %"struct.std::chrono::duration", i64 1, align 8, !dbg !846
  %3 = getelementptr %"struct.std::chrono::time_point", ptr %0, i32 0, i32 0, !dbg !848
  call void @_ZNSt6chrono8durationIlSt5ratioILl1ELl1000000000EEEC1ERKS3_(ptr %2, ptr %3), !dbg !849
  %4 = load %"struct.std::chrono::duration", ptr %2, align 8, !dbg !850
  ret %"struct.std::chrono::duration" %4, !dbg !851
}

define linkonce_odr void @_ZNSt6chrono8durationIlSt5ratioILl1ELl1000000000EEEC1IlvEERKT_(ptr %0, ptr %1) !dbg !852 {
  %3 = load i64, ptr %1, align 8, !dbg !853
  %4 = getelementptr %"struct.std::chrono::duration", ptr %0, i32 0, i32 0, !dbg !855
  store i64 %3, ptr %4, align 8, !dbg !856
  ret void, !dbg !857
}

define linkonce_odr i64 @_ZNSt6chrono15duration_valuesIlE4zeroEv() !dbg !858 {
  ret i64 0, !dbg !859
}

define linkonce_odr void @_ZNSt12_Vector_baseImSaImEEC1Ev(ptr %0) !dbg !861 {
  %2 = getelementptr %"struct.std::_Vector_base", ptr %0, i32 0, i32 0, !dbg !862
  call void @_ZNSt12_Vector_baseImSaImEE12_Vector_implC1Ev(ptr %2), !dbg !864
  ret void, !dbg !865
}

define linkonce_odr i64 @_ZNKSt6vectorImSaImEE8max_sizeEv(ptr %0) !dbg !866 {
  %2 = getelementptr %"class.std::vector", ptr %0, i32 0, i32 0, !dbg !867
  %3 = call ptr @_ZNKSt12_Vector_baseImSaImEE19_M_get_Tp_allocatorEv(ptr %2), !dbg !869
  %4 = call i64 @_ZNSt6vectorImSaImEE11_S_max_sizeERKS0_(ptr %3), !dbg !870
  ret i64 %4, !dbg !871
}

declare void @_ZSt20__throw_length_errorPKc(ptr)

define linkonce_odr i64 @_ZNKSt6vectorImSaImEE8capacityEv(ptr %0) !dbg !872 {
  %2 = getelementptr %"class.std::vector", ptr %0, i32 0, i32 0, !dbg !873
  %3 = getelementptr %"struct.std::_Vector_base", ptr %2, i32 0, i32 0, !dbg !875
  %4 = getelementptr %"struct.std::_Vector_base<unsigned long, std::allocator<unsigned long>>::_Vector_impl", ptr %3, i32 0, i32 0, !dbg !876
  %5 = getelementptr %"struct.std::_Vector_base<unsigned long, std::allocator<unsigned long>>::_Vector_impl_data", ptr %4, i32 0, i32 2, !dbg !877
  %6 = load ptr, ptr %5, align 8, !dbg !878
  %7 = getelementptr %"struct.std::_Vector_base<unsigned long, std::allocator<unsigned long>>::_Vector_impl_data", ptr %4, i32 0, i32 0, !dbg !879
  %8 = load ptr, ptr %7, align 8, !dbg !880
  %9 = ptrtoint ptr %6 to i64, !dbg !881
  %10 = ptrtoint ptr %8 to i64, !dbg !882
  %11 = sub i64 %9, %10, !dbg !883
  %12 = sdiv i64 %11, 8, !dbg !884
  ret i64 %12, !dbg !885
}

define linkonce_odr i8 @_ZNSt6vectorImSaImEE15_S_use_relocateEv() !dbg !886 {
  %1 = alloca %"struct.std::__is_move_insertable", i64 1, align 8, !dbg !887
  call void @llvm.memset.p0.i64(ptr %1, i8 0, i64 1, i1 false), !dbg !889
  ret i8 1, !dbg !890
}

define linkonce_odr ptr @_ZNSt12_Vector_baseImSaImEE11_M_allocateEm(ptr %0, i64 %1) !dbg !891 {
  %3 = icmp ne i64 %1, 0, !dbg !892
  br i1 %3, label %4, label %9, !dbg !894

4:                                                ; preds = %2
  %5 = getelementptr %"struct.std::_Vector_base", ptr %0, i32 0, i32 0, !dbg !895
  %6 = icmp ne ptr %5, null, !dbg !896
  %7 = select i1 %6, ptr %5, ptr null, !dbg !897
  %8 = call ptr @_ZNSt16allocator_traitsISaImEE8allocateERS0_m(ptr %7, i64 %1), !dbg !898
  br label %10, !dbg !899

9:                                                ; preds = %2
  br label %10, !dbg !900

10:                                               ; preds = %4, %9
  %11 = phi ptr [ null, %9 ], [ %8, %4 ]
  br label %12, !dbg !901

12:                                               ; preds = %10
  ret ptr %11, !dbg !902
}

define linkonce_odr ptr @_ZNSt6vectorImSaImEE11_S_relocateEPmS2_S2_RS0_(ptr %0, ptr %1, ptr %2, ptr %3) !dbg !903 {
  %5 = call ptr @_ZSt14__relocate_a_1ImmENSt9enable_ifIXsr3std24__is_bitwise_relocatableIT_EE5valueEPS1_E4typeES2_S2_S2_RSaIT0_E(ptr %0, ptr %1, ptr %2, ptr %3), !dbg !904
  ret ptr %5, !dbg !906
}

define linkonce_odr ptr @_ZNSt12_Vector_baseImSaImEE19_M_get_Tp_allocatorEv(ptr %0) !dbg !907 {
  %2 = getelementptr %"struct.std::_Vector_base", ptr %0, i32 0, i32 0, !dbg !908
  %3 = icmp ne ptr %2, null, !dbg !910
  %4 = select i1 %3, ptr %2, ptr null, !dbg !911
  ret ptr %4, !dbg !912
}

define linkonce_odr ptr @_ZNSt6vectorImSaImEE20_M_allocate_and_copyISt13move_iteratorIPmEEES4_mT_S6_(ptr %0, i64 %1, %"class.std::move_iterator" %2, %"class.std::move_iterator" %3) !dbg !913 {
  %5 = alloca %"class.std::move_iterator", i64 1, align 8, !dbg !914
  %6 = alloca %"class.std::move_iterator", i64 1, align 8, !dbg !916
  %7 = alloca %"class.std::move_iterator", i64 1, align 8, !dbg !917
  %8 = alloca %"class.std::move_iterator", i64 1, align 8, !dbg !918
  store %"class.std::move_iterator" %2, ptr %8, align 8, !dbg !919
  store %"class.std::move_iterator" %3, ptr %7, align 8, !dbg !920
  %9 = getelementptr %"class.std::vector", ptr %0, i32 0, i32 0, !dbg !921
  %10 = call ptr @_ZNSt12_Vector_baseImSaImEE11_M_allocateEm(ptr %9, i64 %1), !dbg !922
  call void @_ZNSt13move_iteratorIPmEC1ERKS1_(ptr %6, ptr %8), !dbg !923
  call void @_ZNSt13move_iteratorIPmEC1ERKS1_(ptr %5, ptr %7), !dbg !924
  %11 = call ptr @_ZNSt12_Vector_baseImSaImEE19_M_get_Tp_allocatorEv(ptr %9), !dbg !925
  %12 = load %"class.std::move_iterator", ptr %6, align 8, !dbg !926
  %13 = load %"class.std::move_iterator", ptr %5, align 8, !dbg !927
  %14 = call ptr @_ZSt22__uninitialized_copy_aISt13move_iteratorIPmES1_mET0_T_S4_S3_RSaIT1_E(%"class.std::move_iterator" %12, %"class.std::move_iterator" %13, ptr %10, ptr %11), !dbg !928
  ret ptr %10, !dbg !929
}

define linkonce_odr void @_ZNSt13move_iteratorIPmEC1EOS1_(ptr %0, ptr %1) !dbg !930 {
  %3 = getelementptr %"class.std::move_iterator", ptr %1, i32 0, i32 0, !dbg !931
  %4 = load ptr, ptr %3, align 8, !dbg !933
  %5 = getelementptr %"class.std::move_iterator", ptr %0, i32 0, i32 0, !dbg !934
  store ptr %4, ptr %5, align 8, !dbg !935
  ret void, !dbg !936
}

define linkonce_odr %"class.std::move_iterator" @_ZSt32__make_move_if_noexcept_iteratorImSt13move_iteratorIPmEET0_PT_(ptr %0) !dbg !937 {
  %2 = alloca %"class.std::move_iterator", i64 1, align 8, !dbg !938
  %3 = alloca %"class.std::move_iterator", i64 1, align 8, !dbg !940
  %4 = alloca %"class.std::move_iterator", i64 1, align 8, !dbg !941
  call void @_ZNSt13move_iteratorIPmEC1ES0_(ptr %3, ptr %0), !dbg !942
  %5 = load %"class.std::move_iterator", ptr %3, align 8, !dbg !943
  store %"class.std::move_iterator" %5, ptr %2, align 8, !dbg !944
  call void @_ZNSt13move_iteratorIPmEC1EOS1_(ptr %4, ptr %2), !dbg !945
  %6 = load %"class.std::move_iterator", ptr %4, align 8, !dbg !946
  ret %"class.std::move_iterator" %6, !dbg !947
}

define linkonce_odr void @_ZSt8_DestroyIPmmEvT_S1_RSaIT0_E(ptr %0, ptr %1, ptr %2) !dbg !948 {
  ret void, !dbg !949
}

define linkonce_odr void @_ZNSt12_Vector_baseImSaImEE13_M_deallocateEPmm(ptr %0, ptr %1, i64 %2) !dbg !951 {
  %4 = icmp ne ptr %1, null, !dbg !952
  br i1 %4, label %5, label %9, !dbg !954

5:                                                ; preds = %3
  %6 = getelementptr %"struct.std::_Vector_base", ptr %0, i32 0, i32 0, !dbg !955
  %7 = icmp ne ptr %6, null, !dbg !956
  %8 = select i1 %7, ptr %6, ptr null, !dbg !957
  call void @_ZNSt16allocator_traitsISaImEE10deallocateERS0_Pmm(ptr %8, ptr %1, i64 %2), !dbg !958
  br label %9, !dbg !959

9:                                                ; preds = %5, %3
  ret void, !dbg !960
}

define linkonce_odr void @_ZNSt12_Vector_baseIsSaIsEEC1Ev(ptr %0) !dbg !961 {
  %2 = getelementptr %"struct.std::_Vector_base.2", ptr %0, i32 0, i32 0, !dbg !962
  call void @_ZNSt12_Vector_baseIsSaIsEE12_Vector_implC1Ev(ptr %2), !dbg !964
  ret void, !dbg !965
}

define linkonce_odr i64 @_ZNKSt6vectorIsSaIsEE8max_sizeEv(ptr %0) !dbg !966 {
  %2 = getelementptr %"class.std::vector.1", ptr %0, i32 0, i32 0, !dbg !967
  %3 = call ptr @_ZNKSt12_Vector_baseIsSaIsEE19_M_get_Tp_allocatorEv(ptr %2), !dbg !969
  %4 = call i64 @_ZNSt6vectorIsSaIsEE11_S_max_sizeERKS0_(ptr %3), !dbg !970
  ret i64 %4, !dbg !971
}

define linkonce_odr i64 @_ZNKSt6vectorIsSaIsEE8capacityEv(ptr %0) !dbg !972 {
  %2 = getelementptr %"class.std::vector.1", ptr %0, i32 0, i32 0, !dbg !973
  %3 = getelementptr %"struct.std::_Vector_base.2", ptr %2, i32 0, i32 0, !dbg !975
  %4 = getelementptr %"struct.std::_Vector_base<short, std::allocator<short>>::_Vector_impl", ptr %3, i32 0, i32 0, !dbg !976
  %5 = getelementptr %"struct.std::_Vector_base<short, std::allocator<short>>::_Vector_impl_data", ptr %4, i32 0, i32 2, !dbg !977
  %6 = load ptr, ptr %5, align 8, !dbg !978
  %7 = getelementptr %"struct.std::_Vector_base<short, std::allocator<short>>::_Vector_impl_data", ptr %4, i32 0, i32 0, !dbg !979
  %8 = load ptr, ptr %7, align 8, !dbg !980
  %9 = ptrtoint ptr %6 to i64, !dbg !981
  %10 = ptrtoint ptr %8 to i64, !dbg !982
  %11 = sub i64 %9, %10, !dbg !983
  %12 = sdiv i64 %11, 2, !dbg !984
  ret i64 %12, !dbg !985
}

define linkonce_odr i64 @_ZNKSt6vectorIsSaIsEE4sizeEv(ptr %0) !dbg !986 {
  %2 = getelementptr %"class.std::vector.1", ptr %0, i32 0, i32 0, !dbg !987
  %3 = getelementptr %"struct.std::_Vector_base.2", ptr %2, i32 0, i32 0, !dbg !989
  %4 = getelementptr %"struct.std::_Vector_base<short, std::allocator<short>>::_Vector_impl", ptr %3, i32 0, i32 0, !dbg !990
  %5 = getelementptr %"struct.std::_Vector_base<short, std::allocator<short>>::_Vector_impl_data", ptr %4, i32 0, i32 1, !dbg !991
  %6 = load ptr, ptr %5, align 8, !dbg !992
  %7 = getelementptr %"struct.std::_Vector_base<short, std::allocator<short>>::_Vector_impl_data", ptr %4, i32 0, i32 0, !dbg !993
  %8 = load ptr, ptr %7, align 8, !dbg !994
  %9 = ptrtoint ptr %6 to i64, !dbg !995
  %10 = ptrtoint ptr %8 to i64, !dbg !996
  %11 = sub i64 %9, %10, !dbg !997
  %12 = sdiv i64 %11, 2, !dbg !998
  ret i64 %12, !dbg !999
}

define linkonce_odr i8 @_ZNSt6vectorIsSaIsEE15_S_use_relocateEv() !dbg !1000 {
  %1 = alloca %"struct.std::__is_move_insertable.8", i64 1, align 8, !dbg !1001
  call void @llvm.memset.p0.i64(ptr %1, i8 0, i64 1, i1 false), !dbg !1003
  ret i8 1, !dbg !1004
}

define linkonce_odr ptr @_ZNSt12_Vector_baseIsSaIsEE11_M_allocateEm(ptr %0, i64 %1) !dbg !1005 {
  %3 = icmp ne i64 %1, 0, !dbg !1006
  br i1 %3, label %4, label %9, !dbg !1008

4:                                                ; preds = %2
  %5 = getelementptr %"struct.std::_Vector_base.2", ptr %0, i32 0, i32 0, !dbg !1009
  %6 = icmp ne ptr %5, null, !dbg !1010
  %7 = select i1 %6, ptr %5, ptr null, !dbg !1011
  %8 = call ptr @_ZNSt16allocator_traitsISaIsEE8allocateERS0_m(ptr %7, i64 %1), !dbg !1012
  br label %10, !dbg !1013

9:                                                ; preds = %2
  br label %10, !dbg !1014

10:                                               ; preds = %4, %9
  %11 = phi ptr [ null, %9 ], [ %8, %4 ]
  br label %12, !dbg !1015

12:                                               ; preds = %10
  ret ptr %11, !dbg !1016
}

define linkonce_odr ptr @_ZNSt6vectorIsSaIsEE11_S_relocateEPsS2_S2_RS0_(ptr %0, ptr %1, ptr %2, ptr %3) !dbg !1017 {
  %5 = call ptr @_ZSt14__relocate_a_1IssENSt9enable_ifIXsr3std24__is_bitwise_relocatableIT_EE5valueEPS1_E4typeES2_S2_S2_RSaIT0_E(ptr %0, ptr %1, ptr %2, ptr %3), !dbg !1018
  ret ptr %5, !dbg !1020
}

define linkonce_odr ptr @_ZNSt12_Vector_baseIsSaIsEE19_M_get_Tp_allocatorEv(ptr %0) !dbg !1021 {
  %2 = getelementptr %"struct.std::_Vector_base.2", ptr %0, i32 0, i32 0, !dbg !1022
  %3 = icmp ne ptr %2, null, !dbg !1024
  %4 = select i1 %3, ptr %2, ptr null, !dbg !1025
  ret ptr %4, !dbg !1026
}

define linkonce_odr ptr @_ZNSt6vectorIsSaIsEE20_M_allocate_and_copyISt13move_iteratorIPsEEES4_mT_S6_(ptr %0, i64 %1, %"class.std::move_iterator.6" %2, %"class.std::move_iterator.6" %3) !dbg !1027 {
  %5 = alloca %"class.std::move_iterator.6", i64 1, align 8, !dbg !1028
  %6 = alloca %"class.std::move_iterator.6", i64 1, align 8, !dbg !1030
  %7 = alloca %"class.std::move_iterator.6", i64 1, align 8, !dbg !1031
  %8 = alloca %"class.std::move_iterator.6", i64 1, align 8, !dbg !1032
  store %"class.std::move_iterator.6" %2, ptr %8, align 8, !dbg !1033
  store %"class.std::move_iterator.6" %3, ptr %7, align 8, !dbg !1034
  %9 = getelementptr %"class.std::vector.1", ptr %0, i32 0, i32 0, !dbg !1035
  %10 = call ptr @_ZNSt12_Vector_baseIsSaIsEE11_M_allocateEm(ptr %9, i64 %1), !dbg !1036
  call void @_ZNSt13move_iteratorIPsEC1ERKS1_(ptr %6, ptr %8), !dbg !1037
  call void @_ZNSt13move_iteratorIPsEC1ERKS1_(ptr %5, ptr %7), !dbg !1038
  %11 = call ptr @_ZNSt12_Vector_baseIsSaIsEE19_M_get_Tp_allocatorEv(ptr %9), !dbg !1039
  %12 = load %"class.std::move_iterator.6", ptr %6, align 8, !dbg !1040
  %13 = load %"class.std::move_iterator.6", ptr %5, align 8, !dbg !1041
  %14 = call ptr @_ZSt22__uninitialized_copy_aISt13move_iteratorIPsES1_sET0_T_S4_S3_RSaIT1_E(%"class.std::move_iterator.6" %12, %"class.std::move_iterator.6" %13, ptr %10, ptr %11), !dbg !1042
  ret ptr %10, !dbg !1043
}

define linkonce_odr void @_ZNSt13move_iteratorIPsEC1EOS1_(ptr %0, ptr %1) !dbg !1044 {
  %3 = getelementptr %"class.std::move_iterator.6", ptr %1, i32 0, i32 0, !dbg !1045
  %4 = load ptr, ptr %3, align 8, !dbg !1047
  %5 = getelementptr %"class.std::move_iterator.6", ptr %0, i32 0, i32 0, !dbg !1048
  store ptr %4, ptr %5, align 8, !dbg !1049
  ret void, !dbg !1050
}

define linkonce_odr %"class.std::move_iterator.6" @_ZSt32__make_move_if_noexcept_iteratorIsSt13move_iteratorIPsEET0_PT_(ptr %0) !dbg !1051 {
  %2 = alloca %"class.std::move_iterator.6", i64 1, align 8, !dbg !1052
  %3 = alloca %"class.std::move_iterator.6", i64 1, align 8, !dbg !1054
  %4 = alloca %"class.std::move_iterator.6", i64 1, align 8, !dbg !1055
  call void @_ZNSt13move_iteratorIPsEC1ES0_(ptr %3, ptr %0), !dbg !1056
  %5 = load %"class.std::move_iterator.6", ptr %3, align 8, !dbg !1057
  store %"class.std::move_iterator.6" %5, ptr %2, align 8, !dbg !1058
  call void @_ZNSt13move_iteratorIPsEC1EOS1_(ptr %4, ptr %2), !dbg !1059
  %6 = load %"class.std::move_iterator.6", ptr %4, align 8, !dbg !1060
  ret %"class.std::move_iterator.6" %6, !dbg !1061
}

define linkonce_odr void @_ZSt8_DestroyIPssEvT_S1_RSaIT0_E(ptr %0, ptr %1, ptr %2) !dbg !1062 {
  ret void, !dbg !1063
}

define linkonce_odr void @_ZNSt12_Vector_baseIsSaIsEE13_M_deallocateEPsm(ptr %0, ptr %1, i64 %2) !dbg !1065 {
  %4 = icmp ne ptr %1, null, !dbg !1066
  br i1 %4, label %5, label %9, !dbg !1068

5:                                                ; preds = %3
  %6 = getelementptr %"struct.std::_Vector_base.2", ptr %0, i32 0, i32 0, !dbg !1069
  %7 = icmp ne ptr %6, null, !dbg !1070
  %8 = select i1 %7, ptr %6, ptr null, !dbg !1071
  call void @_ZNSt16allocator_traitsISaIsEE10deallocateERS0_Psm(ptr %8, ptr %1, i64 %2), !dbg !1072
  br label %9, !dbg !1073

9:                                                ; preds = %5, %3
  ret void, !dbg !1074
}

define linkonce_odr void @_ZNSt16allocator_traitsISaImEE9constructImJRKmEEEvRS0_PT_DpOT0_(ptr %0, ptr %1, ptr %2) !dbg !1075 {
  call void @_ZN9__gnu_cxx13new_allocatorImE9constructImJRKmEEEvPT_DpOT0_(ptr %0, ptr %1, ptr %2), !dbg !1076
  ret void, !dbg !1078
}

define linkonce_odr void @_ZNSt6vectorImSaImEE17_M_realloc_insertIJRKmEEEvN9__gnu_cxx17__normal_iteratorIPmS1_EEDpOT_(ptr %0, %"class.__gnu_cxx::__normal_iterator" %1, ptr %2) !dbg !1079 {
  %4 = alloca %"class.__gnu_cxx::__normal_iterator", i64 1, align 8, !dbg !1080
  %5 = alloca %"class.__gnu_cxx::__normal_iterator", i64 1, align 8, !dbg !1082
  store %"class.__gnu_cxx::__normal_iterator" %1, ptr %5, align 8, !dbg !1083
  %6 = call i64 @_ZNKSt6vectorImSaImEE12_M_check_lenEmPKc(ptr %0, i64 1, ptr @str6), !dbg !1084
  %7 = getelementptr %"class.std::vector", ptr %0, i32 0, i32 0, !dbg !1085
  %8 = getelementptr %"struct.std::_Vector_base", ptr %7, i32 0, i32 0, !dbg !1086
  %9 = getelementptr %"struct.std::_Vector_base<unsigned long, std::allocator<unsigned long>>::_Vector_impl", ptr %8, i32 0, i32 0, !dbg !1087
  %10 = getelementptr %"struct.std::_Vector_base<unsigned long, std::allocator<unsigned long>>::_Vector_impl_data", ptr %9, i32 0, i32 0, !dbg !1088
  %11 = load ptr, ptr %10, align 8, !dbg !1089
  %12 = getelementptr %"struct.std::_Vector_base<unsigned long, std::allocator<unsigned long>>::_Vector_impl_data", ptr %9, i32 0, i32 1, !dbg !1090
  %13 = load ptr, ptr %12, align 8, !dbg !1091
  %14 = call %"class.__gnu_cxx::__normal_iterator" @_ZNSt6vectorImSaImEE5beginEv(ptr %0), !dbg !1092
  store %"class.__gnu_cxx::__normal_iterator" %14, ptr %4, align 8, !dbg !1093
  %15 = call i64 @_ZN9__gnu_cxxmiIPmSt6vectorImSaImEEEENS_17__normal_iteratorIT_T0_E15difference_typeERKS8_SB_(ptr %5, ptr %4), !dbg !1094
  %16 = call ptr @_ZNSt12_Vector_baseImSaImEE11_M_allocateEm(ptr %7, i64 %6), !dbg !1095
  %17 = icmp ne ptr %8, null, !dbg !1096
  %18 = select i1 %17, ptr %8, ptr null, !dbg !1097
  %19 = getelementptr i64, ptr %16, i64 %15, !dbg !1098
  call void @_ZNSt16allocator_traitsISaImEE9constructImJRKmEEEvRS0_PT_DpOT0_(ptr %18, ptr %19, ptr %2), !dbg !1099
  %20 = call i8 @_ZNSt6vectorImSaImEE15_S_use_relocateEv(), !dbg !1100
  %21 = icmp ne i8 %20, 0, !dbg !1101
  br i1 %21, label %22, label %32, !dbg !1102

22:                                               ; preds = %3
  %23 = call ptr @_ZNK9__gnu_cxx17__normal_iteratorIPmSt6vectorImSaImEEE4baseEv(ptr %5), !dbg !1103
  %24 = load ptr, ptr %23, align 8, !dbg !1104
  %25 = call ptr @_ZNSt12_Vector_baseImSaImEE19_M_get_Tp_allocatorEv(ptr %7), !dbg !1105
  %26 = call ptr @_ZSt14__relocate_a_1ImmENSt9enable_ifIXsr3std24__is_bitwise_relocatableIT_EE5valueEPS1_E4typeES2_S2_S2_RSaIT0_E(ptr %11, ptr %24, ptr %16, ptr %25), !dbg !1106
  %27 = getelementptr i64, ptr %26, i32 1, !dbg !1107
  %28 = call ptr @_ZNK9__gnu_cxx17__normal_iteratorIPmSt6vectorImSaImEEE4baseEv(ptr %5), !dbg !1108
  %29 = load ptr, ptr %28, align 8, !dbg !1109
  %30 = call ptr @_ZNSt12_Vector_baseImSaImEE19_M_get_Tp_allocatorEv(ptr %7), !dbg !1110
  %31 = call ptr @_ZSt14__relocate_a_1ImmENSt9enable_ifIXsr3std24__is_bitwise_relocatableIT_EE5valueEPS1_E4typeES2_S2_S2_RSaIT0_E(ptr %29, ptr %13, ptr %27, ptr %30), !dbg !1111
  br label %42, !dbg !1112

32:                                               ; preds = %3
  %33 = call ptr @_ZNK9__gnu_cxx17__normal_iteratorIPmSt6vectorImSaImEEE4baseEv(ptr %5), !dbg !1113
  %34 = load ptr, ptr %33, align 8, !dbg !1114
  %35 = call ptr @_ZNSt12_Vector_baseImSaImEE19_M_get_Tp_allocatorEv(ptr %7), !dbg !1115
  %36 = call ptr @_ZSt34__uninitialized_move_if_noexcept_aIPmS0_SaImEET0_T_S3_S2_RT1_(ptr %11, ptr %34, ptr %16, ptr %35), !dbg !1116
  %37 = getelementptr i64, ptr %36, i32 1, !dbg !1117
  %38 = call ptr @_ZNK9__gnu_cxx17__normal_iteratorIPmSt6vectorImSaImEEE4baseEv(ptr %5), !dbg !1118
  %39 = load ptr, ptr %38, align 8, !dbg !1119
  %40 = call ptr @_ZNSt12_Vector_baseImSaImEE19_M_get_Tp_allocatorEv(ptr %7), !dbg !1120
  %41 = call ptr @_ZSt34__uninitialized_move_if_noexcept_aIPmS0_SaImEET0_T_S3_S2_RT1_(ptr %39, ptr %13, ptr %37, ptr %40), !dbg !1121
  br label %42, !dbg !1122

42:                                               ; preds = %22, %32
  %43 = phi ptr [ %41, %32 ], [ %31, %22 ]
  br label %44, !dbg !1123

44:                                               ; preds = %42
  %45 = call i8 @_ZNSt6vectorImSaImEE15_S_use_relocateEv(), !dbg !1124
  %46 = icmp eq i8 %45, 0, !dbg !1125
  br i1 %46, label %47, label %49, !dbg !1126

47:                                               ; preds = %44
  %48 = call ptr @_ZNSt12_Vector_baseImSaImEE19_M_get_Tp_allocatorEv(ptr %7), !dbg !1127
  br label %49, !dbg !1128

49:                                               ; preds = %47, %44
  %50 = getelementptr %"struct.std::_Vector_base<unsigned long, std::allocator<unsigned long>>::_Vector_impl_data", ptr %9, i32 0, i32 2, !dbg !1129
  %51 = load ptr, ptr %50, align 8, !dbg !1130
  %52 = ptrtoint ptr %51 to i64, !dbg !1131
  %53 = ptrtoint ptr %11 to i64, !dbg !1132
  %54 = sub i64 %52, %53, !dbg !1133
  %55 = sdiv i64 %54, 8, !dbg !1134
  call void @_ZNSt12_Vector_baseImSaImEE13_M_deallocateEPmm(ptr %7, ptr %11, i64 %55), !dbg !1135
  store ptr %16, ptr %10, align 8, !dbg !1136
  store ptr %43, ptr %12, align 8, !dbg !1137
  %56 = getelementptr i64, ptr %16, i64 %6, !dbg !1138
  store ptr %56, ptr %50, align 8, !dbg !1139
  ret void, !dbg !1140
}

define linkonce_odr void @_ZN9__gnu_cxx17__normal_iteratorIPmSt6vectorImSaImEEEC1EOS5_(ptr %0, ptr %1) !dbg !1141 {
  %3 = getelementptr %"class.__gnu_cxx::__normal_iterator", ptr %1, i32 0, i32 0, !dbg !1142
  %4 = load ptr, ptr %3, align 8, !dbg !1144
  %5 = getelementptr %"class.__gnu_cxx::__normal_iterator", ptr %0, i32 0, i32 0, !dbg !1145
  store ptr %4, ptr %5, align 8, !dbg !1146
  ret void, !dbg !1147
}

define linkonce_odr %"class.__gnu_cxx::__normal_iterator" @_ZNSt6vectorImSaImEE3endEv(ptr %0) !dbg !1148 {
  %2 = alloca %"class.__gnu_cxx::__normal_iterator", i64 1, align 8, !dbg !1149
  %3 = alloca %"class.__gnu_cxx::__normal_iterator", i64 1, align 8, !dbg !1151
  %4 = alloca %"class.__gnu_cxx::__normal_iterator", i64 1, align 8, !dbg !1152
  %5 = getelementptr %"class.std::vector", ptr %0, i32 0, i32 0, !dbg !1153
  %6 = getelementptr %"struct.std::_Vector_base", ptr %5, i32 0, i32 0, !dbg !1154
  %7 = getelementptr %"struct.std::_Vector_base<unsigned long, std::allocator<unsigned long>>::_Vector_impl", ptr %6, i32 0, i32 0, !dbg !1155
  %8 = getelementptr %"struct.std::_Vector_base<unsigned long, std::allocator<unsigned long>>::_Vector_impl_data", ptr %7, i32 0, i32 1, !dbg !1156
  call void @_ZN9__gnu_cxx17__normal_iteratorIPmSt6vectorImSaImEEEC1ERKS1_(ptr %3, ptr %8), !dbg !1157
  %9 = load %"class.__gnu_cxx::__normal_iterator", ptr %3, align 8, !dbg !1158
  store %"class.__gnu_cxx::__normal_iterator" %9, ptr %2, align 8, !dbg !1159
  call void @_ZN9__gnu_cxx17__normal_iteratorIPmSt6vectorImSaImEEEC1EOS5_(ptr %4, ptr %2), !dbg !1160
  %10 = load %"class.__gnu_cxx::__normal_iterator", ptr %4, align 8, !dbg !1161
  ret %"class.__gnu_cxx::__normal_iterator" %10, !dbg !1162
}

define linkonce_odr void @_ZNSt16allocator_traitsISaIsEE9constructIsJRKsEEEvRS0_PT_DpOT0_(ptr %0, ptr %1, ptr %2) !dbg !1163 {
  call void @_ZN9__gnu_cxx13new_allocatorIsE9constructIsJRKsEEEvPT_DpOT0_(ptr %0, ptr %1, ptr %2), !dbg !1164
  ret void, !dbg !1166
}

define linkonce_odr void @_ZNSt6vectorIsSaIsEE17_M_realloc_insertIJRKsEEEvN9__gnu_cxx17__normal_iteratorIPsS1_EEDpOT_(ptr %0, %"class.__gnu_cxx::__normal_iterator.7" %1, ptr %2) !dbg !1167 {
  %4 = alloca %"class.__gnu_cxx::__normal_iterator.7", i64 1, align 8, !dbg !1168
  %5 = alloca %"class.__gnu_cxx::__normal_iterator.7", i64 1, align 8, !dbg !1170
  store %"class.__gnu_cxx::__normal_iterator.7" %1, ptr %5, align 8, !dbg !1171
  %6 = call i64 @_ZNKSt6vectorIsSaIsEE12_M_check_lenEmPKc(ptr %0, i64 1, ptr @str6), !dbg !1172
  %7 = getelementptr %"class.std::vector.1", ptr %0, i32 0, i32 0, !dbg !1173
  %8 = getelementptr %"struct.std::_Vector_base.2", ptr %7, i32 0, i32 0, !dbg !1174
  %9 = getelementptr %"struct.std::_Vector_base<short, std::allocator<short>>::_Vector_impl", ptr %8, i32 0, i32 0, !dbg !1175
  %10 = getelementptr %"struct.std::_Vector_base<short, std::allocator<short>>::_Vector_impl_data", ptr %9, i32 0, i32 0, !dbg !1176
  %11 = load ptr, ptr %10, align 8, !dbg !1177
  %12 = getelementptr %"struct.std::_Vector_base<short, std::allocator<short>>::_Vector_impl_data", ptr %9, i32 0, i32 1, !dbg !1178
  %13 = load ptr, ptr %12, align 8, !dbg !1179
  %14 = call %"class.__gnu_cxx::__normal_iterator.7" @_ZNSt6vectorIsSaIsEE5beginEv(ptr %0), !dbg !1180
  store %"class.__gnu_cxx::__normal_iterator.7" %14, ptr %4, align 8, !dbg !1181
  %15 = call i64 @_ZN9__gnu_cxxmiIPsSt6vectorIsSaIsEEEENS_17__normal_iteratorIT_T0_E15difference_typeERKS8_SB_(ptr %5, ptr %4), !dbg !1182
  %16 = call ptr @_ZNSt12_Vector_baseIsSaIsEE11_M_allocateEm(ptr %7, i64 %6), !dbg !1183
  %17 = icmp ne ptr %8, null, !dbg !1184
  %18 = select i1 %17, ptr %8, ptr null, !dbg !1185
  %19 = getelementptr i16, ptr %16, i64 %15, !dbg !1186
  call void @_ZNSt16allocator_traitsISaIsEE9constructIsJRKsEEEvRS0_PT_DpOT0_(ptr %18, ptr %19, ptr %2), !dbg !1187
  %20 = call i8 @_ZNSt6vectorIsSaIsEE15_S_use_relocateEv(), !dbg !1188
  %21 = icmp ne i8 %20, 0, !dbg !1189
  br i1 %21, label %22, label %32, !dbg !1190

22:                                               ; preds = %3
  %23 = call ptr @_ZNK9__gnu_cxx17__normal_iteratorIPsSt6vectorIsSaIsEEE4baseEv(ptr %5), !dbg !1191
  %24 = load ptr, ptr %23, align 8, !dbg !1192
  %25 = call ptr @_ZNSt12_Vector_baseIsSaIsEE19_M_get_Tp_allocatorEv(ptr %7), !dbg !1193
  %26 = call ptr @_ZSt14__relocate_a_1IssENSt9enable_ifIXsr3std24__is_bitwise_relocatableIT_EE5valueEPS1_E4typeES2_S2_S2_RSaIT0_E(ptr %11, ptr %24, ptr %16, ptr %25), !dbg !1194
  %27 = getelementptr i16, ptr %26, i32 1, !dbg !1195
  %28 = call ptr @_ZNK9__gnu_cxx17__normal_iteratorIPsSt6vectorIsSaIsEEE4baseEv(ptr %5), !dbg !1196
  %29 = load ptr, ptr %28, align 8, !dbg !1197
  %30 = call ptr @_ZNSt12_Vector_baseIsSaIsEE19_M_get_Tp_allocatorEv(ptr %7), !dbg !1198
  %31 = call ptr @_ZSt14__relocate_a_1IssENSt9enable_ifIXsr3std24__is_bitwise_relocatableIT_EE5valueEPS1_E4typeES2_S2_S2_RSaIT0_E(ptr %29, ptr %13, ptr %27, ptr %30), !dbg !1199
  br label %42, !dbg !1200

32:                                               ; preds = %3
  %33 = call ptr @_ZNK9__gnu_cxx17__normal_iteratorIPsSt6vectorIsSaIsEEE4baseEv(ptr %5), !dbg !1201
  %34 = load ptr, ptr %33, align 8, !dbg !1202
  %35 = call ptr @_ZNSt12_Vector_baseIsSaIsEE19_M_get_Tp_allocatorEv(ptr %7), !dbg !1203
  %36 = call ptr @_ZSt34__uninitialized_move_if_noexcept_aIPsS0_SaIsEET0_T_S3_S2_RT1_(ptr %11, ptr %34, ptr %16, ptr %35), !dbg !1204
  %37 = getelementptr i16, ptr %36, i32 1, !dbg !1205
  %38 = call ptr @_ZNK9__gnu_cxx17__normal_iteratorIPsSt6vectorIsSaIsEEE4baseEv(ptr %5), !dbg !1206
  %39 = load ptr, ptr %38, align 8, !dbg !1207
  %40 = call ptr @_ZNSt12_Vector_baseIsSaIsEE19_M_get_Tp_allocatorEv(ptr %7), !dbg !1208
  %41 = call ptr @_ZSt34__uninitialized_move_if_noexcept_aIPsS0_SaIsEET0_T_S3_S2_RT1_(ptr %39, ptr %13, ptr %37, ptr %40), !dbg !1209
  br label %42, !dbg !1210

42:                                               ; preds = %22, %32
  %43 = phi ptr [ %41, %32 ], [ %31, %22 ]
  br label %44, !dbg !1211

44:                                               ; preds = %42
  %45 = call i8 @_ZNSt6vectorIsSaIsEE15_S_use_relocateEv(), !dbg !1212
  %46 = icmp eq i8 %45, 0, !dbg !1213
  br i1 %46, label %47, label %49, !dbg !1214

47:                                               ; preds = %44
  %48 = call ptr @_ZNSt12_Vector_baseIsSaIsEE19_M_get_Tp_allocatorEv(ptr %7), !dbg !1215
  br label %49, !dbg !1216

49:                                               ; preds = %47, %44
  %50 = getelementptr %"struct.std::_Vector_base<short, std::allocator<short>>::_Vector_impl_data", ptr %9, i32 0, i32 2, !dbg !1217
  %51 = load ptr, ptr %50, align 8, !dbg !1218
  %52 = ptrtoint ptr %51 to i64, !dbg !1219
  %53 = ptrtoint ptr %11 to i64, !dbg !1220
  %54 = sub i64 %52, %53, !dbg !1221
  %55 = sdiv i64 %54, 2, !dbg !1222
  call void @_ZNSt12_Vector_baseIsSaIsEE13_M_deallocateEPsm(ptr %7, ptr %11, i64 %55), !dbg !1223
  store ptr %16, ptr %10, align 8, !dbg !1224
  store ptr %43, ptr %12, align 8, !dbg !1225
  %56 = getelementptr i16, ptr %16, i64 %6, !dbg !1226
  store ptr %56, ptr %50, align 8, !dbg !1227
  ret void, !dbg !1228
}

define linkonce_odr void @_ZN9__gnu_cxx17__normal_iteratorIPsSt6vectorIsSaIsEEEC1EOS5_(ptr %0, ptr %1) !dbg !1229 {
  %3 = getelementptr %"class.__gnu_cxx::__normal_iterator.7", ptr %1, i32 0, i32 0, !dbg !1230
  %4 = load ptr, ptr %3, align 8, !dbg !1232
  %5 = getelementptr %"class.__gnu_cxx::__normal_iterator.7", ptr %0, i32 0, i32 0, !dbg !1233
  store ptr %4, ptr %5, align 8, !dbg !1234
  ret void, !dbg !1235
}

define linkonce_odr %"class.__gnu_cxx::__normal_iterator.7" @_ZNSt6vectorIsSaIsEE3endEv(ptr %0) !dbg !1236 {
  %2 = alloca %"class.__gnu_cxx::__normal_iterator.7", i64 1, align 8, !dbg !1237
  %3 = alloca %"class.__gnu_cxx::__normal_iterator.7", i64 1, align 8, !dbg !1239
  %4 = alloca %"class.__gnu_cxx::__normal_iterator.7", i64 1, align 8, !dbg !1240
  %5 = getelementptr %"class.std::vector.1", ptr %0, i32 0, i32 0, !dbg !1241
  %6 = getelementptr %"struct.std::_Vector_base.2", ptr %5, i32 0, i32 0, !dbg !1242
  %7 = getelementptr %"struct.std::_Vector_base<short, std::allocator<short>>::_Vector_impl", ptr %6, i32 0, i32 0, !dbg !1243
  %8 = getelementptr %"struct.std::_Vector_base<short, std::allocator<short>>::_Vector_impl_data", ptr %7, i32 0, i32 1, !dbg !1244
  call void @_ZN9__gnu_cxx17__normal_iteratorIPsSt6vectorIsSaIsEEEC1ERKS1_(ptr %3, ptr %8), !dbg !1245
  %9 = load %"class.__gnu_cxx::__normal_iterator.7", ptr %3, align 8, !dbg !1246
  store %"class.__gnu_cxx::__normal_iterator.7" %9, ptr %2, align 8, !dbg !1247
  call void @_ZN9__gnu_cxx17__normal_iteratorIPsSt6vectorIsSaIsEEEC1EOS5_(ptr %4, ptr %2), !dbg !1248
  %10 = load %"class.__gnu_cxx::__normal_iterator.7", ptr %4, align 8, !dbg !1249
  ret %"class.__gnu_cxx::__normal_iterator.7" %10, !dbg !1250
}

define linkonce_odr void @_ZNSt6chrono8durationIlSt5ratioILl1ELl1000000EEEC1IlvEERKT_(ptr %0, ptr %1) !dbg !1251 {
  %3 = load i64, ptr %1, align 8, !dbg !1252
  %4 = getelementptr %"struct.std::chrono::duration.0", ptr %0, i32 0, i32 0, !dbg !1254
  store i64 %3, ptr %4, align 8, !dbg !1255
  ret void, !dbg !1256
}

define linkonce_odr i64 @_ZNKSt6chrono8durationIlSt5ratioILl1ELl1000000000EEE5countEv(ptr %0) !dbg !1257 {
  %2 = getelementptr %"struct.std::chrono::duration", ptr %0, i32 0, i32 0, !dbg !1258
  %3 = load i64, ptr %2, align 8, !dbg !1260
  ret i64 %3, !dbg !1261
}

define linkonce_odr void @_ZNSt12_Vector_baseImSaImEE12_Vector_implC1Ev(ptr %0) !dbg !1262 {
  %2 = getelementptr %"struct.std::_Vector_base<unsigned long, std::allocator<unsigned long>>::_Vector_impl", ptr %0, i32 0, i32 0, !dbg !1263
  call void @_ZNSt12_Vector_baseImSaImEE17_Vector_impl_dataC1Ev(ptr %2), !dbg !1265
  ret void, !dbg !1266
}

define linkonce_odr i64 @_ZNSt6vectorImSaImEE11_S_max_sizeERKS0_(ptr %0) !dbg !1267 {
  %2 = alloca i64, i64 1, align 8, !dbg !1268
  store i64 undef, ptr %2, align 8, !dbg !1270
  %3 = alloca i64, i64 1, align 8, !dbg !1271
  store i64 undef, ptr %3, align 8, !dbg !1272
  store i64 1152921504606846975, ptr %3, align 8, !dbg !1273
  store i64 1152921504606846975, ptr %2, align 8, !dbg !1274
  %4 = call ptr @_ZSt3minImERKT_S2_S2_(ptr %3, ptr %2), !dbg !1275
  %5 = load i64, ptr %4, align 8, !dbg !1276
  ret i64 %5, !dbg !1277
}

define linkonce_odr ptr @_ZNKSt12_Vector_baseImSaImEE19_M_get_Tp_allocatorEv(ptr %0) !dbg !1278 {
  %2 = getelementptr %"struct.std::_Vector_base", ptr %0, i32 0, i32 0, !dbg !1279
  %3 = icmp ne ptr %2, null, !dbg !1281
  %4 = select i1 %3, ptr %2, ptr null, !dbg !1282
  ret ptr %4, !dbg !1283
}

define linkonce_odr i8 @_ZNSt6vectorImSaImEE19_S_nothrow_relocateESt17integral_constantIbLb1EE(%"struct.std::integral_constant" %0) !dbg !1284 {
  ret i8 1, !dbg !1285
}

define linkonce_odr void @_ZNSt17integral_constantIbLb1EEC1EOS0_(ptr %0, ptr %1) !dbg !1287 {
  ret void, !dbg !1288
}

define linkonce_odr ptr @_ZNSt16allocator_traitsISaImEE8allocateERS0_m(ptr %0, i64 %1) !dbg !1290 {
  %3 = call ptr @_ZN9__gnu_cxx13new_allocatorImE8allocateEmPKv(ptr %0, i64 %1, ptr null), !dbg !1291
  ret ptr %3, !dbg !1293
}

define linkonce_odr ptr @_ZNSt6vectorImSaImEE14_S_do_relocateEPmS2_S2_RS0_St17integral_constantIbLb1EE(ptr %0, ptr %1, ptr %2, ptr %3, %"struct.std::integral_constant" %4) !dbg !1294 {
  %6 = call ptr @_ZSt14__relocate_a_1ImmENSt9enable_ifIXsr3std24__is_bitwise_relocatableIT_EE5valueEPS1_E4typeES2_S2_S2_RSaIT0_E(ptr %0, ptr %1, ptr %2, ptr %3), !dbg !1295
  ret ptr %6, !dbg !1297
}

define linkonce_odr ptr @_ZSt22__uninitialized_copy_aISt13move_iteratorIPmES1_mET0_T_S4_S3_RSaIT1_E(%"class.std::move_iterator" %0, %"class.std::move_iterator" %1, ptr %2, ptr %3) !dbg !1298 {
  %5 = alloca %"class.std::move_iterator", i64 1, align 8, !dbg !1299
  %6 = alloca %"class.std::move_iterator", i64 1, align 8, !dbg !1301
  %7 = alloca %"class.std::move_iterator", i64 1, align 8, !dbg !1302
  %8 = alloca %"class.std::move_iterator", i64 1, align 8, !dbg !1303
  store %"class.std::move_iterator" %0, ptr %8, align 8, !dbg !1304
  store %"class.std::move_iterator" %1, ptr %7, align 8, !dbg !1305
  call void @_ZNSt13move_iteratorIPmEC1ERKS1_(ptr %6, ptr %8), !dbg !1306
  call void @_ZNSt13move_iteratorIPmEC1ERKS1_(ptr %5, ptr %7), !dbg !1307
  %9 = load %"class.std::move_iterator", ptr %6, align 8, !dbg !1308
  %10 = load %"class.std::move_iterator", ptr %5, align 8, !dbg !1309
  %11 = call ptr @_ZSt18uninitialized_copyISt13move_iteratorIPmES1_ET0_T_S4_S3_(%"class.std::move_iterator" %9, %"class.std::move_iterator" %10, ptr %2), !dbg !1310
  ret ptr %11, !dbg !1311
}

define linkonce_odr void @_ZNSt13move_iteratorIPmEC1ERKS1_(ptr %0, ptr %1) !dbg !1312 {
  %3 = getelementptr %"class.std::move_iterator", ptr %1, i32 0, i32 0, !dbg !1313
  %4 = load ptr, ptr %3, align 8, !dbg !1315
  %5 = getelementptr %"class.std::move_iterator", ptr %0, i32 0, i32 0, !dbg !1316
  store ptr %4, ptr %5, align 8, !dbg !1317
  ret void, !dbg !1318
}

define linkonce_odr void @_ZNSt13move_iteratorIPmEC1ES0_(ptr %0, ptr %1) !dbg !1319 {
  %3 = getelementptr %"class.std::move_iterator", ptr %0, i32 0, i32 0, !dbg !1320
  store ptr %1, ptr %3, align 8, !dbg !1322
  ret void, !dbg !1323
}

define linkonce_odr void @_ZSt8_DestroyIPmEvT_S1_(ptr %0, ptr %1) !dbg !1324 {
  ret void, !dbg !1325
}

define linkonce_odr void @_ZNSt16allocator_traitsISaImEE10deallocateERS0_Pmm(ptr %0, ptr %1, i64 %2) !dbg !1327 {
  call void @_ZN9__gnu_cxx13new_allocatorImE10deallocateEPmm(ptr %0, ptr %1, i64 %2), !dbg !1328
  ret void, !dbg !1330
}

define linkonce_odr void @_ZNSt12_Vector_baseIsSaIsEE12_Vector_implC1Ev(ptr %0) !dbg !1331 {
  %2 = getelementptr %"struct.std::_Vector_base<short, std::allocator<short>>::_Vector_impl", ptr %0, i32 0, i32 0, !dbg !1332
  call void @_ZNSt12_Vector_baseIsSaIsEE17_Vector_impl_dataC1Ev(ptr %2), !dbg !1334
  ret void, !dbg !1335
}

define linkonce_odr i64 @_ZNSt6vectorIsSaIsEE11_S_max_sizeERKS0_(ptr %0) !dbg !1336 {
  %2 = alloca i64, i64 1, align 8, !dbg !1337
  store i64 undef, ptr %2, align 8, !dbg !1339
  %3 = alloca i64, i64 1, align 8, !dbg !1340
  store i64 undef, ptr %3, align 8, !dbg !1341
  store i64 4611686018427387903, ptr %3, align 8, !dbg !1342
  store i64 4611686018427387903, ptr %2, align 8, !dbg !1343
  %4 = call ptr @_ZSt3minImERKT_S2_S2_(ptr %3, ptr %2), !dbg !1344
  %5 = load i64, ptr %4, align 8, !dbg !1345
  ret i64 %5, !dbg !1346
}

define linkonce_odr ptr @_ZNKSt12_Vector_baseIsSaIsEE19_M_get_Tp_allocatorEv(ptr %0) !dbg !1347 {
  %2 = getelementptr %"struct.std::_Vector_base.2", ptr %0, i32 0, i32 0, !dbg !1348
  %3 = icmp ne ptr %2, null, !dbg !1350
  %4 = select i1 %3, ptr %2, ptr null, !dbg !1351
  ret ptr %4, !dbg !1352
}

define linkonce_odr i8 @_ZNSt6vectorIsSaIsEE19_S_nothrow_relocateESt17integral_constantIbLb1EE(%"struct.std::integral_constant" %0) !dbg !1353 {
  ret i8 1, !dbg !1354
}

define linkonce_odr ptr @_ZNSt16allocator_traitsISaIsEE8allocateERS0_m(ptr %0, i64 %1) !dbg !1356 {
  %3 = call ptr @_ZN9__gnu_cxx13new_allocatorIsE8allocateEmPKv(ptr %0, i64 %1, ptr null), !dbg !1357
  ret ptr %3, !dbg !1359
}

define linkonce_odr ptr @_ZNSt6vectorIsSaIsEE14_S_do_relocateEPsS2_S2_RS0_St17integral_constantIbLb1EE(ptr %0, ptr %1, ptr %2, ptr %3, %"struct.std::integral_constant" %4) !dbg !1360 {
  %6 = call ptr @_ZSt14__relocate_a_1IssENSt9enable_ifIXsr3std24__is_bitwise_relocatableIT_EE5valueEPS1_E4typeES2_S2_S2_RSaIT0_E(ptr %0, ptr %1, ptr %2, ptr %3), !dbg !1361
  ret ptr %6, !dbg !1363
}

define linkonce_odr ptr @_ZSt22__uninitialized_copy_aISt13move_iteratorIPsES1_sET0_T_S4_S3_RSaIT1_E(%"class.std::move_iterator.6" %0, %"class.std::move_iterator.6" %1, ptr %2, ptr %3) !dbg !1364 {
  %5 = alloca %"class.std::move_iterator.6", i64 1, align 8, !dbg !1365
  %6 = alloca %"class.std::move_iterator.6", i64 1, align 8, !dbg !1367
  %7 = alloca %"class.std::move_iterator.6", i64 1, align 8, !dbg !1368
  %8 = alloca %"class.std::move_iterator.6", i64 1, align 8, !dbg !1369
  store %"class.std::move_iterator.6" %0, ptr %8, align 8, !dbg !1370
  store %"class.std::move_iterator.6" %1, ptr %7, align 8, !dbg !1371
  call void @_ZNSt13move_iteratorIPsEC1ERKS1_(ptr %6, ptr %8), !dbg !1372
  call void @_ZNSt13move_iteratorIPsEC1ERKS1_(ptr %5, ptr %7), !dbg !1373
  %9 = load %"class.std::move_iterator.6", ptr %6, align 8, !dbg !1374
  %10 = load %"class.std::move_iterator.6", ptr %5, align 8, !dbg !1375
  %11 = call ptr @_ZSt18uninitialized_copyISt13move_iteratorIPsES1_ET0_T_S4_S3_(%"class.std::move_iterator.6" %9, %"class.std::move_iterator.6" %10, ptr %2), !dbg !1376
  ret ptr %11, !dbg !1377
}

define linkonce_odr void @_ZNSt13move_iteratorIPsEC1ERKS1_(ptr %0, ptr %1) !dbg !1378 {
  %3 = getelementptr %"class.std::move_iterator.6", ptr %1, i32 0, i32 0, !dbg !1379
  %4 = load ptr, ptr %3, align 8, !dbg !1381
  %5 = getelementptr %"class.std::move_iterator.6", ptr %0, i32 0, i32 0, !dbg !1382
  store ptr %4, ptr %5, align 8, !dbg !1383
  ret void, !dbg !1384
}

define linkonce_odr void @_ZNSt13move_iteratorIPsEC1ES0_(ptr %0, ptr %1) !dbg !1385 {
  %3 = getelementptr %"class.std::move_iterator.6", ptr %0, i32 0, i32 0, !dbg !1386
  store ptr %1, ptr %3, align 8, !dbg !1388
  ret void, !dbg !1389
}

define linkonce_odr void @_ZSt8_DestroyIPsEvT_S1_(ptr %0, ptr %1) !dbg !1390 {
  ret void, !dbg !1391
}

define linkonce_odr void @_ZNSt16allocator_traitsISaIsEE10deallocateERS0_Psm(ptr %0, ptr %1, i64 %2) !dbg !1393 {
  call void @_ZN9__gnu_cxx13new_allocatorIsE10deallocateEPsm(ptr %0, ptr %1, i64 %2), !dbg !1394
  ret void, !dbg !1396
}

define linkonce_odr void @_ZN9__gnu_cxx13new_allocatorImE9constructImJRKmEEEvPT_DpOT0_(ptr %0, ptr %1, ptr %2) !dbg !1397 {
  %4 = load i64, ptr %2, align 8, !dbg !1398
  store i64 %4, ptr %1, align 8, !dbg !1400
  ret void, !dbg !1401
}

define linkonce_odr i64 @_ZNKSt6vectorImSaImEE12_M_check_lenEmPKc(ptr %0, i64 %1, ptr %2) !dbg !1402 {
  %4 = alloca i64, i64 1, align 8, !dbg !1403
  store i64 undef, ptr %4, align 8, !dbg !1405
  %5 = alloca i64, i64 1, align 8, !dbg !1406
  store i64 undef, ptr %5, align 8, !dbg !1407
  store i64 %1, ptr %5, align 8, !dbg !1408
  %6 = call i64 @_ZNKSt6vectorImSaImEE8max_sizeEv(ptr %0), !dbg !1409
  %7 = call i64 @_ZNKSt6vectorImSaImEE4sizeEv(ptr %0), !dbg !1410
  %8 = sub i64 %6, %7, !dbg !1411
  %9 = load i64, ptr %5, align 8, !dbg !1412
  %10 = icmp slt i64 %8, %9, !dbg !1413
  br i1 %10, label %11, label %12, !dbg !1414

11:                                               ; preds = %3
  call void @_ZSt20__throw_length_errorPKc(ptr %2), !dbg !1415
  br label %12, !dbg !1416

12:                                               ; preds = %11, %3
  %13 = call i64 @_ZNKSt6vectorImSaImEE4sizeEv(ptr %0), !dbg !1417
  %14 = call i64 @_ZNKSt6vectorImSaImEE4sizeEv(ptr %0), !dbg !1418
  store i64 %14, ptr %4, align 8, !dbg !1419
  %15 = call ptr @_ZSt3maxImERKT_S2_S2_(ptr %4, ptr %5), !dbg !1420
  %16 = load i64, ptr %15, align 8, !dbg !1421
  %17 = add i64 %13, %16, !dbg !1422
  %18 = call i64 @_ZNKSt6vectorImSaImEE4sizeEv(ptr %0), !dbg !1423
  %19 = icmp slt i64 %17, %18, !dbg !1424
  br i1 %19, label %20, label %21, !dbg !1425

20:                                               ; preds = %12
  br label %24, !dbg !1426

21:                                               ; preds = %12
  %22 = call i64 @_ZNKSt6vectorImSaImEE8max_sizeEv(ptr %0), !dbg !1427
  %23 = icmp sgt i64 %17, %22, !dbg !1428
  br label %24, !dbg !1429

24:                                               ; preds = %20, %21
  %25 = phi i1 [ %23, %21 ], [ true, %20 ]
  br label %26, !dbg !1430

26:                                               ; preds = %24
  br i1 %25, label %27, label %29, !dbg !1431

27:                                               ; preds = %26
  %28 = call i64 @_ZNKSt6vectorImSaImEE8max_sizeEv(ptr %0), !dbg !1432
  br label %30, !dbg !1433

29:                                               ; preds = %26
  br label %30, !dbg !1434

30:                                               ; preds = %27, %29
  %31 = phi i64 [ %17, %29 ], [ %28, %27 ]
  br label %32, !dbg !1435

32:                                               ; preds = %30
  ret i64 %31, !dbg !1436
}

define linkonce_odr i64 @_ZN9__gnu_cxxmiIPmSt6vectorImSaImEEEENS_17__normal_iteratorIT_T0_E15difference_typeERKS8_SB_(ptr %0, ptr %1) !dbg !1437 {
  %3 = call ptr @_ZNK9__gnu_cxx17__normal_iteratorIPmSt6vectorImSaImEEE4baseEv(ptr %0), !dbg !1438
  %4 = load ptr, ptr %3, align 8, !dbg !1440
  %5 = call ptr @_ZNK9__gnu_cxx17__normal_iteratorIPmSt6vectorImSaImEEE4baseEv(ptr %1), !dbg !1441
  %6 = load ptr, ptr %5, align 8, !dbg !1442
  %7 = ptrtoint ptr %4 to i64, !dbg !1443
  %8 = ptrtoint ptr %6 to i64, !dbg !1444
  %9 = sub i64 %7, %8, !dbg !1445
  %10 = sdiv i64 %9, 8, !dbg !1446
  ret i64 %10, !dbg !1447
}

define linkonce_odr %"class.__gnu_cxx::__normal_iterator" @_ZNSt6vectorImSaImEE5beginEv(ptr %0) !dbg !1448 {
  %2 = alloca %"class.__gnu_cxx::__normal_iterator", i64 1, align 8, !dbg !1449
  %3 = alloca %"class.__gnu_cxx::__normal_iterator", i64 1, align 8, !dbg !1451
  %4 = alloca %"class.__gnu_cxx::__normal_iterator", i64 1, align 8, !dbg !1452
  %5 = getelementptr %"class.std::vector", ptr %0, i32 0, i32 0, !dbg !1453
  %6 = getelementptr %"struct.std::_Vector_base", ptr %5, i32 0, i32 0, !dbg !1454
  %7 = getelementptr %"struct.std::_Vector_base<unsigned long, std::allocator<unsigned long>>::_Vector_impl", ptr %6, i32 0, i32 0, !dbg !1455
  %8 = getelementptr %"struct.std::_Vector_base<unsigned long, std::allocator<unsigned long>>::_Vector_impl_data", ptr %7, i32 0, i32 0, !dbg !1456
  call void @_ZN9__gnu_cxx17__normal_iteratorIPmSt6vectorImSaImEEEC1ERKS1_(ptr %3, ptr %8), !dbg !1457
  %9 = load %"class.__gnu_cxx::__normal_iterator", ptr %3, align 8, !dbg !1458
  store %"class.__gnu_cxx::__normal_iterator" %9, ptr %2, align 8, !dbg !1459
  call void @_ZN9__gnu_cxx17__normal_iteratorIPmSt6vectorImSaImEEEC1EOS5_(ptr %4, ptr %2), !dbg !1460
  %10 = load %"class.__gnu_cxx::__normal_iterator", ptr %4, align 8, !dbg !1461
  ret %"class.__gnu_cxx::__normal_iterator" %10, !dbg !1462
}

define linkonce_odr ptr @_ZNK9__gnu_cxx17__normal_iteratorIPmSt6vectorImSaImEEE4baseEv(ptr %0) !dbg !1463 {
  %2 = getelementptr %"class.__gnu_cxx::__normal_iterator", ptr %0, i32 0, i32 0, !dbg !1464
  ret ptr %2, !dbg !1466
}

define linkonce_odr ptr @_ZSt34__uninitialized_move_if_noexcept_aIPmS0_SaImEET0_T_S3_S2_RT1_(ptr %0, ptr %1, ptr %2, ptr %3) !dbg !1467 {
  %5 = alloca %"class.std::move_iterator", i64 1, align 8, !dbg !1468
  %6 = alloca %"class.std::move_iterator", i64 1, align 8, !dbg !1470
  %7 = alloca %"class.std::move_iterator", i64 1, align 8, !dbg !1471
  %8 = alloca %"class.std::move_iterator", i64 1, align 8, !dbg !1472
  %9 = call %"class.std::move_iterator" @_ZSt32__make_move_if_noexcept_iteratorImSt13move_iteratorIPmEET0_PT_(ptr %0), !dbg !1473
  store %"class.std::move_iterator" %9, ptr %7, align 8, !dbg !1474
  call void @_ZNSt13move_iteratorIPmEC1EOS1_(ptr %8, ptr %7), !dbg !1475
  %10 = call %"class.std::move_iterator" @_ZSt32__make_move_if_noexcept_iteratorImSt13move_iteratorIPmEET0_PT_(ptr %1), !dbg !1476
  store %"class.std::move_iterator" %10, ptr %5, align 8, !dbg !1477
  call void @_ZNSt13move_iteratorIPmEC1EOS1_(ptr %6, ptr %5), !dbg !1478
  %11 = load %"class.std::move_iterator", ptr %8, align 8, !dbg !1479
  %12 = load %"class.std::move_iterator", ptr %6, align 8, !dbg !1480
  %13 = call ptr @_ZSt22__uninitialized_copy_aISt13move_iteratorIPmES1_mET0_T_S4_S3_RSaIT1_E(%"class.std::move_iterator" %11, %"class.std::move_iterator" %12, ptr %2, ptr %3), !dbg !1481
  ret ptr %13, !dbg !1482
}

define linkonce_odr void @_ZN9__gnu_cxx17__normal_iteratorIPmSt6vectorImSaImEEEC1ERKS1_(ptr %0, ptr %1) !dbg !1483 {
  %3 = load ptr, ptr %1, align 8, !dbg !1484
  %4 = getelementptr %"class.__gnu_cxx::__normal_iterator", ptr %0, i32 0, i32 0, !dbg !1486
  store ptr %3, ptr %4, align 8, !dbg !1487
  ret void, !dbg !1488
}

define linkonce_odr void @_ZN9__gnu_cxx13new_allocatorIsE9constructIsJRKsEEEvPT_DpOT0_(ptr %0, ptr %1, ptr %2) !dbg !1489 {
  %4 = load i16, ptr %2, align 2, !dbg !1490
  store i16 %4, ptr %1, align 2, !dbg !1492
  ret void, !dbg !1493
}

define linkonce_odr i64 @_ZNKSt6vectorIsSaIsEE12_M_check_lenEmPKc(ptr %0, i64 %1, ptr %2) !dbg !1494 {
  %4 = alloca i64, i64 1, align 8, !dbg !1495
  store i64 undef, ptr %4, align 8, !dbg !1497
  %5 = alloca i64, i64 1, align 8, !dbg !1498
  store i64 undef, ptr %5, align 8, !dbg !1499
  store i64 %1, ptr %5, align 8, !dbg !1500
  %6 = call i64 @_ZNKSt6vectorIsSaIsEE8max_sizeEv(ptr %0), !dbg !1501
  %7 = call i64 @_ZNKSt6vectorIsSaIsEE4sizeEv(ptr %0), !dbg !1502
  %8 = sub i64 %6, %7, !dbg !1503
  %9 = load i64, ptr %5, align 8, !dbg !1504
  %10 = icmp slt i64 %8, %9, !dbg !1505
  br i1 %10, label %11, label %12, !dbg !1506

11:                                               ; preds = %3
  call void @_ZSt20__throw_length_errorPKc(ptr %2), !dbg !1507
  br label %12, !dbg !1508

12:                                               ; preds = %11, %3
  %13 = call i64 @_ZNKSt6vectorIsSaIsEE4sizeEv(ptr %0), !dbg !1509
  %14 = call i64 @_ZNKSt6vectorIsSaIsEE4sizeEv(ptr %0), !dbg !1510
  store i64 %14, ptr %4, align 8, !dbg !1511
  %15 = call ptr @_ZSt3maxImERKT_S2_S2_(ptr %4, ptr %5), !dbg !1512
  %16 = load i64, ptr %15, align 8, !dbg !1513
  %17 = add i64 %13, %16, !dbg !1514
  %18 = call i64 @_ZNKSt6vectorIsSaIsEE4sizeEv(ptr %0), !dbg !1515
  %19 = icmp slt i64 %17, %18, !dbg !1516
  br i1 %19, label %20, label %21, !dbg !1517

20:                                               ; preds = %12
  br label %24, !dbg !1518

21:                                               ; preds = %12
  %22 = call i64 @_ZNKSt6vectorIsSaIsEE8max_sizeEv(ptr %0), !dbg !1519
  %23 = icmp sgt i64 %17, %22, !dbg !1520
  br label %24, !dbg !1521

24:                                               ; preds = %20, %21
  %25 = phi i1 [ %23, %21 ], [ true, %20 ]
  br label %26, !dbg !1522

26:                                               ; preds = %24
  br i1 %25, label %27, label %29, !dbg !1523

27:                                               ; preds = %26
  %28 = call i64 @_ZNKSt6vectorIsSaIsEE8max_sizeEv(ptr %0), !dbg !1524
  br label %30, !dbg !1525

29:                                               ; preds = %26
  br label %30, !dbg !1526

30:                                               ; preds = %27, %29
  %31 = phi i64 [ %17, %29 ], [ %28, %27 ]
  br label %32, !dbg !1527

32:                                               ; preds = %30
  ret i64 %31, !dbg !1528
}

define linkonce_odr i64 @_ZN9__gnu_cxxmiIPsSt6vectorIsSaIsEEEENS_17__normal_iteratorIT_T0_E15difference_typeERKS8_SB_(ptr %0, ptr %1) !dbg !1529 {
  %3 = call ptr @_ZNK9__gnu_cxx17__normal_iteratorIPsSt6vectorIsSaIsEEE4baseEv(ptr %0), !dbg !1530
  %4 = load ptr, ptr %3, align 8, !dbg !1532
  %5 = call ptr @_ZNK9__gnu_cxx17__normal_iteratorIPsSt6vectorIsSaIsEEE4baseEv(ptr %1), !dbg !1533
  %6 = load ptr, ptr %5, align 8, !dbg !1534
  %7 = ptrtoint ptr %4 to i64, !dbg !1535
  %8 = ptrtoint ptr %6 to i64, !dbg !1536
  %9 = sub i64 %7, %8, !dbg !1537
  %10 = sdiv i64 %9, 2, !dbg !1538
  ret i64 %10, !dbg !1539
}

define linkonce_odr %"class.__gnu_cxx::__normal_iterator.7" @_ZNSt6vectorIsSaIsEE5beginEv(ptr %0) !dbg !1540 {
  %2 = alloca %"class.__gnu_cxx::__normal_iterator.7", i64 1, align 8, !dbg !1541
  %3 = alloca %"class.__gnu_cxx::__normal_iterator.7", i64 1, align 8, !dbg !1543
  %4 = alloca %"class.__gnu_cxx::__normal_iterator.7", i64 1, align 8, !dbg !1544
  %5 = getelementptr %"class.std::vector.1", ptr %0, i32 0, i32 0, !dbg !1545
  %6 = getelementptr %"struct.std::_Vector_base.2", ptr %5, i32 0, i32 0, !dbg !1546
  %7 = getelementptr %"struct.std::_Vector_base<short, std::allocator<short>>::_Vector_impl", ptr %6, i32 0, i32 0, !dbg !1547
  %8 = getelementptr %"struct.std::_Vector_base<short, std::allocator<short>>::_Vector_impl_data", ptr %7, i32 0, i32 0, !dbg !1548
  call void @_ZN9__gnu_cxx17__normal_iteratorIPsSt6vectorIsSaIsEEEC1ERKS1_(ptr %3, ptr %8), !dbg !1549
  %9 = load %"class.__gnu_cxx::__normal_iterator.7", ptr %3, align 8, !dbg !1550
  store %"class.__gnu_cxx::__normal_iterator.7" %9, ptr %2, align 8, !dbg !1551
  call void @_ZN9__gnu_cxx17__normal_iteratorIPsSt6vectorIsSaIsEEEC1EOS5_(ptr %4, ptr %2), !dbg !1552
  %10 = load %"class.__gnu_cxx::__normal_iterator.7", ptr %4, align 8, !dbg !1553
  ret %"class.__gnu_cxx::__normal_iterator.7" %10, !dbg !1554
}

define linkonce_odr ptr @_ZNK9__gnu_cxx17__normal_iteratorIPsSt6vectorIsSaIsEEE4baseEv(ptr %0) !dbg !1555 {
  %2 = getelementptr %"class.__gnu_cxx::__normal_iterator.7", ptr %0, i32 0, i32 0, !dbg !1556
  ret ptr %2, !dbg !1558
}

define linkonce_odr ptr @_ZSt34__uninitialized_move_if_noexcept_aIPsS0_SaIsEET0_T_S3_S2_RT1_(ptr %0, ptr %1, ptr %2, ptr %3) !dbg !1559 {
  %5 = alloca %"class.std::move_iterator.6", i64 1, align 8, !dbg !1560
  %6 = alloca %"class.std::move_iterator.6", i64 1, align 8, !dbg !1562
  %7 = alloca %"class.std::move_iterator.6", i64 1, align 8, !dbg !1563
  %8 = alloca %"class.std::move_iterator.6", i64 1, align 8, !dbg !1564
  %9 = call %"class.std::move_iterator.6" @_ZSt32__make_move_if_noexcept_iteratorIsSt13move_iteratorIPsEET0_PT_(ptr %0), !dbg !1565
  store %"class.std::move_iterator.6" %9, ptr %7, align 8, !dbg !1566
  call void @_ZNSt13move_iteratorIPsEC1EOS1_(ptr %8, ptr %7), !dbg !1567
  %10 = call %"class.std::move_iterator.6" @_ZSt32__make_move_if_noexcept_iteratorIsSt13move_iteratorIPsEET0_PT_(ptr %1), !dbg !1568
  store %"class.std::move_iterator.6" %10, ptr %5, align 8, !dbg !1569
  call void @_ZNSt13move_iteratorIPsEC1EOS1_(ptr %6, ptr %5), !dbg !1570
  %11 = load %"class.std::move_iterator.6", ptr %8, align 8, !dbg !1571
  %12 = load %"class.std::move_iterator.6", ptr %6, align 8, !dbg !1572
  %13 = call ptr @_ZSt22__uninitialized_copy_aISt13move_iteratorIPsES1_sET0_T_S4_S3_RSaIT1_E(%"class.std::move_iterator.6" %11, %"class.std::move_iterator.6" %12, ptr %2, ptr %3), !dbg !1573
  ret ptr %13, !dbg !1574
}

define linkonce_odr void @_ZN9__gnu_cxx17__normal_iteratorIPsSt6vectorIsSaIsEEEC1ERKS1_(ptr %0, ptr %1) !dbg !1575 {
  %3 = load ptr, ptr %1, align 8, !dbg !1576
  %4 = getelementptr %"class.__gnu_cxx::__normal_iterator.7", ptr %0, i32 0, i32 0, !dbg !1578
  store ptr %3, ptr %4, align 8, !dbg !1579
  ret void, !dbg !1580
}

define linkonce_odr void @_ZNSaImEC1Ev(ptr %0) !dbg !1581 {
  ret void, !dbg !1582
}

define linkonce_odr void @_ZNSt12_Vector_baseImSaImEE17_Vector_impl_dataC1Ev(ptr %0) !dbg !1584 {
  %2 = getelementptr %"struct.std::_Vector_base<unsigned long, std::allocator<unsigned long>>::_Vector_impl_data", ptr %0, i32 0, i32 0, !dbg !1585
  store ptr null, ptr %2, align 8, !dbg !1587
  %3 = getelementptr %"struct.std::_Vector_base<unsigned long, std::allocator<unsigned long>>::_Vector_impl_data", ptr %0, i32 0, i32 1, !dbg !1588
  store ptr null, ptr %3, align 8, !dbg !1589
  %4 = getelementptr %"struct.std::_Vector_base<unsigned long, std::allocator<unsigned long>>::_Vector_impl_data", ptr %0, i32 0, i32 2, !dbg !1590
  store ptr null, ptr %4, align 8, !dbg !1591
  ret void, !dbg !1592
}

define linkonce_odr i64 @_ZNSt16allocator_traitsISaImEE8max_sizeERKS0_(ptr %0) !dbg !1593 {
  ret i64 1152921504606846975, !dbg !1594
}

define linkonce_odr ptr @_ZSt3minImERKT_S2_S2_(ptr %0, ptr %1) !dbg !1596 {
  %3 = load i64, ptr %1, align 8, !dbg !1597
  %4 = load i64, ptr %0, align 8, !dbg !1599
  %5 = icmp slt i64 %3, %4, !dbg !1600
  %6 = select i1 %5, ptr %1, ptr %0, !dbg !1601
  ret ptr %6, !dbg !1602
}

define linkonce_odr ptr @_ZN9__gnu_cxx13new_allocatorImE8allocateEmPKv(ptr %0, i64 %1, ptr %2) !dbg !1603 {
  %4 = icmp sgt i64 %1, 1152921504606846975, !dbg !1604
  br i1 %4, label %5, label %6, !dbg !1606

5:                                                ; preds = %3
  call void @_ZSt17__throw_bad_allocv(), !dbg !1607
  br label %6, !dbg !1608

6:                                                ; preds = %5, %3
  %7 = mul i64 %1, 8, !dbg !1609
  %8 = call ptr @_Znwm(i64 %7), !dbg !1610
  ret ptr %8, !dbg !1611
}

define linkonce_odr ptr @_ZSt12__relocate_aIPmS0_SaImEET0_T_S3_S2_RT1_(ptr %0, ptr %1, ptr %2, ptr %3) !dbg !1612 {
  %5 = call ptr @_ZSt14__relocate_a_1ImmENSt9enable_ifIXsr3std24__is_bitwise_relocatableIT_EE5valueEPS1_E4typeES2_S2_S2_RSaIT0_E(ptr %0, ptr %1, ptr %2, ptr %3), !dbg !1613
  ret ptr %5, !dbg !1615
}

define linkonce_odr ptr @_ZSt18uninitialized_copyISt13move_iteratorIPmES1_ET0_T_S4_S3_(%"class.std::move_iterator" %0, %"class.std::move_iterator" %1, ptr %2) !dbg !1616 {
  %4 = alloca %"class.std::move_iterator", i64 1, align 8, !dbg !1617
  %5 = alloca %"class.std::move_iterator", i64 1, align 8, !dbg !1619
  %6 = alloca %"class.std::move_iterator", i64 1, align 8, !dbg !1620
  %7 = alloca %"class.std::move_iterator", i64 1, align 8, !dbg !1621
  store %"class.std::move_iterator" %0, ptr %7, align 8, !dbg !1622
  store %"class.std::move_iterator" %1, ptr %6, align 8, !dbg !1623
  call void @_ZNSt13move_iteratorIPmEC1ERKS1_(ptr %5, ptr %7), !dbg !1624
  call void @_ZNSt13move_iteratorIPmEC1ERKS1_(ptr %4, ptr %6), !dbg !1625
  %8 = load %"class.std::move_iterator", ptr %5, align 8, !dbg !1626
  %9 = load %"class.std::move_iterator", ptr %4, align 8, !dbg !1627
  %10 = call ptr @_ZNSt20__uninitialized_copyILb1EE13__uninit_copyISt13move_iteratorIPmES3_EET0_T_S6_S5_(%"class.std::move_iterator" %8, %"class.std::move_iterator" %9, ptr %2), !dbg !1628
  ret ptr %10, !dbg !1629
}

define linkonce_odr void @_ZNSt12_Destroy_auxILb1EE9__destroyIPmEEvT_S3_(ptr %0, ptr %1) !dbg !1630 {
  ret void, !dbg !1631
}

define linkonce_odr void @_ZN9__gnu_cxx13new_allocatorImE10deallocateEPmm(ptr %0, ptr %1, i64 %2) !dbg !1633 {
  call void @_ZdlPv(ptr %1), !dbg !1634
  ret void, !dbg !1636
}

define linkonce_odr void @_ZNSaIsEC1Ev(ptr %0) !dbg !1637 {
  ret void, !dbg !1638
}

define linkonce_odr void @_ZNSt12_Vector_baseIsSaIsEE17_Vector_impl_dataC1Ev(ptr %0) !dbg !1640 {
  %2 = getelementptr %"struct.std::_Vector_base<short, std::allocator<short>>::_Vector_impl_data", ptr %0, i32 0, i32 0, !dbg !1641
  store ptr null, ptr %2, align 8, !dbg !1643
  %3 = getelementptr %"struct.std::_Vector_base<short, std::allocator<short>>::_Vector_impl_data", ptr %0, i32 0, i32 1, !dbg !1644
  store ptr null, ptr %3, align 8, !dbg !1645
  %4 = getelementptr %"struct.std::_Vector_base<short, std::allocator<short>>::_Vector_impl_data", ptr %0, i32 0, i32 2, !dbg !1646
  store ptr null, ptr %4, align 8, !dbg !1647
  ret void, !dbg !1648
}

define linkonce_odr i64 @_ZNSt16allocator_traitsISaIsEE8max_sizeERKS0_(ptr %0) !dbg !1649 {
  ret i64 4611686018427387903, !dbg !1650
}

define linkonce_odr ptr @_ZN9__gnu_cxx13new_allocatorIsE8allocateEmPKv(ptr %0, i64 %1, ptr %2) !dbg !1652 {
  %4 = icmp sgt i64 %1, 4611686018427387903, !dbg !1653
  br i1 %4, label %5, label %6, !dbg !1655

5:                                                ; preds = %3
  call void @_ZSt17__throw_bad_allocv(), !dbg !1656
  br label %6, !dbg !1657

6:                                                ; preds = %5, %3
  %7 = mul i64 %1, 2, !dbg !1658
  %8 = call ptr @_Znwm(i64 %7), !dbg !1659
  ret ptr %8, !dbg !1660
}

define linkonce_odr ptr @_ZSt12__relocate_aIPsS0_SaIsEET0_T_S3_S2_RT1_(ptr %0, ptr %1, ptr %2, ptr %3) !dbg !1661 {
  %5 = call ptr @_ZSt14__relocate_a_1IssENSt9enable_ifIXsr3std24__is_bitwise_relocatableIT_EE5valueEPS1_E4typeES2_S2_S2_RSaIT0_E(ptr %0, ptr %1, ptr %2, ptr %3), !dbg !1662
  ret ptr %5, !dbg !1664
}

define linkonce_odr ptr @_ZSt18uninitialized_copyISt13move_iteratorIPsES1_ET0_T_S4_S3_(%"class.std::move_iterator.6" %0, %"class.std::move_iterator.6" %1, ptr %2) !dbg !1665 {
  %4 = alloca %"class.std::move_iterator.6", i64 1, align 8, !dbg !1666
  %5 = alloca %"class.std::move_iterator.6", i64 1, align 8, !dbg !1668
  %6 = alloca %"class.std::move_iterator.6", i64 1, align 8, !dbg !1669
  %7 = alloca %"class.std::move_iterator.6", i64 1, align 8, !dbg !1670
  store %"class.std::move_iterator.6" %0, ptr %7, align 8, !dbg !1671
  store %"class.std::move_iterator.6" %1, ptr %6, align 8, !dbg !1672
  call void @_ZNSt13move_iteratorIPsEC1ERKS1_(ptr %5, ptr %7), !dbg !1673
  call void @_ZNSt13move_iteratorIPsEC1ERKS1_(ptr %4, ptr %6), !dbg !1674
  %8 = load %"class.std::move_iterator.6", ptr %5, align 8, !dbg !1675
  %9 = load %"class.std::move_iterator.6", ptr %4, align 8, !dbg !1676
  %10 = call ptr @_ZNSt20__uninitialized_copyILb1EE13__uninit_copyISt13move_iteratorIPsES3_EET0_T_S6_S5_(%"class.std::move_iterator.6" %8, %"class.std::move_iterator.6" %9, ptr %2), !dbg !1677
  ret ptr %10, !dbg !1678
}

define linkonce_odr void @_ZNSt12_Destroy_auxILb1EE9__destroyIPsEEvT_S3_(ptr %0, ptr %1) !dbg !1679 {
  ret void, !dbg !1680
}

define linkonce_odr void @_ZN9__gnu_cxx13new_allocatorIsE10deallocateEPsm(ptr %0, ptr %1, i64 %2) !dbg !1682 {
  call void @_ZdlPv(ptr %1), !dbg !1683
  ret void, !dbg !1685
}

define linkonce_odr ptr @_ZSt3maxImERKT_S2_S2_(ptr %0, ptr %1) !dbg !1686 {
  %3 = load i64, ptr %0, align 8, !dbg !1687
  %4 = load i64, ptr %1, align 8, !dbg !1689
  %5 = icmp slt i64 %3, %4, !dbg !1690
  %6 = select i1 %5, ptr %1, ptr %0, !dbg !1691
  ret ptr %6, !dbg !1692
}

define linkonce_odr void @_ZN9__gnu_cxx13new_allocatorImEC1Ev(ptr %0) !dbg !1693 {
  ret void, !dbg !1694
}

define linkonce_odr i64 @_ZNK9__gnu_cxx13new_allocatorImE8max_sizeEv(ptr %0) !dbg !1696 {
  ret i64 1152921504606846975, !dbg !1697
}

declare void @_ZSt17__throw_bad_allocv()

declare ptr @_Znwm(i64)

define linkonce_odr ptr @_ZSt14__relocate_a_1ImmENSt9enable_ifIXsr3std24__is_bitwise_relocatableIT_EE5valueEPS1_E4typeES2_S2_S2_RSaIT0_E(ptr %0, ptr %1, ptr %2, ptr %3) !dbg !1699 {
  %5 = ptrtoint ptr %1 to i64, !dbg !1700
  %6 = ptrtoint ptr %0 to i64, !dbg !1702
  %7 = sub i64 %5, %6, !dbg !1703
  %8 = sdiv i64 %7, 8, !dbg !1704
  %9 = icmp sgt i64 %8, 0, !dbg !1705
  br i1 %9, label %10, label %12, !dbg !1706

10:                                               ; preds = %4
  %11 = mul i64 %8, 8, !dbg !1707
  call void @llvm.memmove.p0.p0.i64(ptr %2, ptr %0, i64 %11, i1 false), !dbg !1708
  br label %12, !dbg !1709

12:                                               ; preds = %10, %4
  %13 = getelementptr i64, ptr %2, i64 %8, !dbg !1710
  ret ptr %13, !dbg !1711
}

define linkonce_odr ptr @_ZSt12__niter_baseIPmET_S1_(ptr %0) !dbg !1712 {
  ret ptr %0, !dbg !1713
}

define linkonce_odr ptr @_ZNSt20__uninitialized_copyILb1EE13__uninit_copyISt13move_iteratorIPmES3_EET0_T_S6_S5_(%"class.std::move_iterator" %0, %"class.std::move_iterator" %1, ptr %2) !dbg !1715 {
  %4 = alloca %"class.std::move_iterator", i64 1, align 8, !dbg !1716
  %5 = alloca %"class.std::move_iterator", i64 1, align 8, !dbg !1718
  %6 = alloca %"class.std::move_iterator", i64 1, align 8, !dbg !1719
  %7 = alloca %"class.std::move_iterator", i64 1, align 8, !dbg !1720
  store %"class.std::move_iterator" %0, ptr %7, align 8, !dbg !1721
  store %"class.std::move_iterator" %1, ptr %6, align 8, !dbg !1722
  call void @_ZNSt13move_iteratorIPmEC1ERKS1_(ptr %5, ptr %7), !dbg !1723
  call void @_ZNSt13move_iteratorIPmEC1ERKS1_(ptr %4, ptr %6), !dbg !1724
  %8 = load %"class.std::move_iterator", ptr %5, align 8, !dbg !1725
  %9 = load %"class.std::move_iterator", ptr %4, align 8, !dbg !1726
  %10 = call ptr @_ZSt4copyISt13move_iteratorIPmES1_ET0_T_S4_S3_(%"class.std::move_iterator" %8, %"class.std::move_iterator" %9, ptr %2), !dbg !1727
  ret ptr %10, !dbg !1728
}

declare void @_ZdlPv(ptr)

define linkonce_odr void @_ZN9__gnu_cxx13new_allocatorIsEC1Ev(ptr %0) !dbg !1729 {
  ret void, !dbg !1730
}

define linkonce_odr i64 @_ZNK9__gnu_cxx13new_allocatorIsE8max_sizeEv(ptr %0) !dbg !1732 {
  ret i64 4611686018427387903, !dbg !1733
}

define linkonce_odr ptr @_ZSt14__relocate_a_1IssENSt9enable_ifIXsr3std24__is_bitwise_relocatableIT_EE5valueEPS1_E4typeES2_S2_S2_RSaIT0_E(ptr %0, ptr %1, ptr %2, ptr %3) !dbg !1735 {
  %5 = ptrtoint ptr %1 to i64, !dbg !1736
  %6 = ptrtoint ptr %0 to i64, !dbg !1738
  %7 = sub i64 %5, %6, !dbg !1739
  %8 = sdiv i64 %7, 2, !dbg !1740
  %9 = icmp sgt i64 %8, 0, !dbg !1741
  br i1 %9, label %10, label %12, !dbg !1742

10:                                               ; preds = %4
  %11 = mul i64 %8, 2, !dbg !1743
  call void @llvm.memmove.p0.p0.i64(ptr %2, ptr %0, i64 %11, i1 false), !dbg !1744
  br label %12, !dbg !1745

12:                                               ; preds = %10, %4
  %13 = getelementptr i16, ptr %2, i64 %8, !dbg !1746
  ret ptr %13, !dbg !1747
}

define linkonce_odr ptr @_ZSt12__niter_baseIPsET_S1_(ptr %0) !dbg !1748 {
  ret ptr %0, !dbg !1749
}

define linkonce_odr ptr @_ZNSt20__uninitialized_copyILb1EE13__uninit_copyISt13move_iteratorIPsES3_EET0_T_S6_S5_(%"class.std::move_iterator.6" %0, %"class.std::move_iterator.6" %1, ptr %2) !dbg !1751 {
  %4 = alloca %"class.std::move_iterator.6", i64 1, align 8, !dbg !1752
  %5 = alloca %"class.std::move_iterator.6", i64 1, align 8, !dbg !1754
  %6 = alloca %"class.std::move_iterator.6", i64 1, align 8, !dbg !1755
  %7 = alloca %"class.std::move_iterator.6", i64 1, align 8, !dbg !1756
  store %"class.std::move_iterator.6" %0, ptr %7, align 8, !dbg !1757
  store %"class.std::move_iterator.6" %1, ptr %6, align 8, !dbg !1758
  call void @_ZNSt13move_iteratorIPsEC1ERKS1_(ptr %5, ptr %7), !dbg !1759
  call void @_ZNSt13move_iteratorIPsEC1ERKS1_(ptr %4, ptr %6), !dbg !1760
  %8 = load %"class.std::move_iterator.6", ptr %5, align 8, !dbg !1761
  %9 = load %"class.std::move_iterator.6", ptr %4, align 8, !dbg !1762
  %10 = call ptr @_ZSt4copyISt13move_iteratorIPsES1_ET0_T_S4_S3_(%"class.std::move_iterator.6" %8, %"class.std::move_iterator.6" %9, ptr %2), !dbg !1763
  ret ptr %10, !dbg !1764
}

define linkonce_odr ptr @_ZSt4copyISt13move_iteratorIPmES1_ET0_T_S4_S3_(%"class.std::move_iterator" %0, %"class.std::move_iterator" %1, ptr %2) !dbg !1765 {
  %4 = alloca %"class.std::move_iterator", i64 1, align 8, !dbg !1766
  %5 = alloca %"class.std::move_iterator", i64 1, align 8, !dbg !1768
  %6 = alloca %"class.std::move_iterator", i64 1, align 8, !dbg !1769
  %7 = alloca %"class.std::move_iterator", i64 1, align 8, !dbg !1770
  store %"class.std::move_iterator" %0, ptr %7, align 8, !dbg !1771
  store %"class.std::move_iterator" %1, ptr %6, align 8, !dbg !1772
  call void @_ZNSt13move_iteratorIPmEC1ERKS1_(ptr %5, ptr %7), !dbg !1773
  %8 = load %"class.std::move_iterator", ptr %5, align 8, !dbg !1774
  %9 = call ptr @_ZSt12__miter_baseIPmEDTcl12__miter_basecldtfp_4baseEEESt13move_iteratorIT_E(%"class.std::move_iterator" %8), !dbg !1775
  call void @_ZNSt13move_iteratorIPmEC1ERKS1_(ptr %4, ptr %6), !dbg !1776
  %10 = load %"class.std::move_iterator", ptr %4, align 8, !dbg !1777
  %11 = call ptr @_ZSt12__miter_baseIPmEDTcl12__miter_basecldtfp_4baseEEESt13move_iteratorIT_E(%"class.std::move_iterator" %10), !dbg !1778
  %12 = call ptr @_ZSt14__copy_move_a2ILb1EPmS0_ET1_T0_S2_S1_(ptr %9, ptr %11, ptr %2), !dbg !1779
  ret ptr %12, !dbg !1780
}

define linkonce_odr ptr @_ZSt4copyISt13move_iteratorIPsES1_ET0_T_S4_S3_(%"class.std::move_iterator.6" %0, %"class.std::move_iterator.6" %1, ptr %2) !dbg !1781 {
  %4 = alloca %"class.std::move_iterator.6", i64 1, align 8, !dbg !1782
  %5 = alloca %"class.std::move_iterator.6", i64 1, align 8, !dbg !1784
  %6 = alloca %"class.std::move_iterator.6", i64 1, align 8, !dbg !1785
  %7 = alloca %"class.std::move_iterator.6", i64 1, align 8, !dbg !1786
  store %"class.std::move_iterator.6" %0, ptr %7, align 8, !dbg !1787
  store %"class.std::move_iterator.6" %1, ptr %6, align 8, !dbg !1788
  call void @_ZNSt13move_iteratorIPsEC1ERKS1_(ptr %5, ptr %7), !dbg !1789
  %8 = load %"class.std::move_iterator.6", ptr %5, align 8, !dbg !1790
  %9 = call ptr @_ZSt12__miter_baseIPsEDTcl12__miter_basecldtfp_4baseEEESt13move_iteratorIT_E(%"class.std::move_iterator.6" %8), !dbg !1791
  call void @_ZNSt13move_iteratorIPsEC1ERKS1_(ptr %4, ptr %6), !dbg !1792
  %10 = load %"class.std::move_iterator.6", ptr %4, align 8, !dbg !1793
  %11 = call ptr @_ZSt12__miter_baseIPsEDTcl12__miter_basecldtfp_4baseEEESt13move_iteratorIT_E(%"class.std::move_iterator.6" %10), !dbg !1794
  %12 = call ptr @_ZSt14__copy_move_a2ILb1EPsS0_ET1_T0_S2_S1_(ptr %9, ptr %11, ptr %2), !dbg !1795
  ret ptr %12, !dbg !1796
}

define linkonce_odr ptr @_ZSt14__copy_move_a2ILb1EPmS0_ET1_T0_S2_S1_(ptr %0, ptr %1, ptr %2) !dbg !1797 {
  %4 = call ptr @_ZNSt11__copy_moveILb1ELb1ESt26random_access_iterator_tagE8__copy_mImEEPT_PKS3_S6_S4_(ptr %0, ptr %1, ptr %2), !dbg !1798
  ret ptr %4, !dbg !1800
}

define linkonce_odr ptr @_ZSt12__miter_baseIPmEDTcl12__miter_basecldtfp_4baseEEESt13move_iteratorIT_E(%"class.std::move_iterator" %0) !dbg !1801 {
  %2 = alloca %"class.std::move_iterator", i64 1, align 8, !dbg !1802
  store %"class.std::move_iterator" %0, ptr %2, align 8, !dbg !1804
  %3 = call ptr @_ZNKSt13move_iteratorIPmE4baseEv(ptr %2), !dbg !1805
  ret ptr %3, !dbg !1806
}

define linkonce_odr ptr @_ZSt14__copy_move_a2ILb1EPsS0_ET1_T0_S2_S1_(ptr %0, ptr %1, ptr %2) !dbg !1807 {
  %4 = call ptr @_ZNSt11__copy_moveILb1ELb1ESt26random_access_iterator_tagE8__copy_mIsEEPT_PKS3_S6_S4_(ptr %0, ptr %1, ptr %2), !dbg !1808
  ret ptr %4, !dbg !1810
}

define linkonce_odr ptr @_ZSt12__miter_baseIPsEDTcl12__miter_basecldtfp_4baseEEESt13move_iteratorIT_E(%"class.std::move_iterator.6" %0) !dbg !1811 {
  %2 = alloca %"class.std::move_iterator.6", i64 1, align 8, !dbg !1812
  store %"class.std::move_iterator.6" %0, ptr %2, align 8, !dbg !1814
  %3 = call ptr @_ZNKSt13move_iteratorIPsE4baseEv(ptr %2), !dbg !1815
  ret ptr %3, !dbg !1816
}

define linkonce_odr ptr @_ZSt12__niter_wrapIPmET_RKS1_S1_(ptr %0, ptr %1) !dbg !1817 {
  ret ptr %1, !dbg !1818
}

define linkonce_odr ptr @_ZSt13__copy_move_aILb1EPmS0_ET1_T0_S2_S1_(ptr %0, ptr %1, ptr %2) !dbg !1820 {
  %4 = call ptr @_ZNSt11__copy_moveILb1ELb1ESt26random_access_iterator_tagE8__copy_mImEEPT_PKS3_S6_S4_(ptr %0, ptr %1, ptr %2), !dbg !1821
  ret ptr %4, !dbg !1823
}

define linkonce_odr ptr @_ZSt12__miter_baseIPmET_S1_(ptr %0) !dbg !1824 {
  ret ptr %0, !dbg !1825
}

define linkonce_odr ptr @_ZNKSt13move_iteratorIPmE4baseEv(ptr %0) !dbg !1827 {
  %2 = getelementptr %"class.std::move_iterator", ptr %0, i32 0, i32 0, !dbg !1828
  %3 = load ptr, ptr %2, align 8, !dbg !1830
  ret ptr %3, !dbg !1831
}

define linkonce_odr ptr @_ZSt12__niter_wrapIPsET_RKS1_S1_(ptr %0, ptr %1) !dbg !1832 {
  ret ptr %1, !dbg !1833
}

define linkonce_odr ptr @_ZSt13__copy_move_aILb1EPsS0_ET1_T0_S2_S1_(ptr %0, ptr %1, ptr %2) !dbg !1835 {
  %4 = call ptr @_ZNSt11__copy_moveILb1ELb1ESt26random_access_iterator_tagE8__copy_mIsEEPT_PKS3_S6_S4_(ptr %0, ptr %1, ptr %2), !dbg !1836
  ret ptr %4, !dbg !1838
}

define linkonce_odr ptr @_ZSt12__miter_baseIPsET_S1_(ptr %0) !dbg !1839 {
  ret ptr %0, !dbg !1840
}

define linkonce_odr ptr @_ZNKSt13move_iteratorIPsE4baseEv(ptr %0) !dbg !1842 {
  %2 = getelementptr %"class.std::move_iterator.6", ptr %0, i32 0, i32 0, !dbg !1843
  %3 = load ptr, ptr %2, align 8, !dbg !1845
  ret ptr %3, !dbg !1846
}

define linkonce_odr ptr @_ZNSt11__copy_moveILb1ELb1ESt26random_access_iterator_tagE8__copy_mImEEPT_PKS3_S6_S4_(ptr %0, ptr %1, ptr %2) !dbg !1847 {
  %4 = ptrtoint ptr %1 to i64, !dbg !1848
  %5 = ptrtoint ptr %0 to i64, !dbg !1850
  %6 = sub i64 %4, %5, !dbg !1851
  %7 = sdiv i64 %6, 8, !dbg !1852
  %8 = icmp ne i64 %7, 0, !dbg !1853
  br i1 %8, label %9, label %11, !dbg !1854

9:                                                ; preds = %3
  %10 = mul i64 %7, 8, !dbg !1855
  call void @llvm.memmove.p0.p0.i64(ptr %2, ptr %0, i64 %10, i1 false), !dbg !1856
  br label %11, !dbg !1857

11:                                               ; preds = %9, %3
  %12 = getelementptr i64, ptr %2, i64 %7, !dbg !1858
  ret ptr %12, !dbg !1859
}

define linkonce_odr ptr @_ZNSt11__copy_moveILb1ELb1ESt26random_access_iterator_tagE8__copy_mIsEEPT_PKS3_S6_S4_(ptr %0, ptr %1, ptr %2) !dbg !1860 {
  %4 = ptrtoint ptr %1 to i64, !dbg !1861
  %5 = ptrtoint ptr %0 to i64, !dbg !1863
  %6 = sub i64 %4, %5, !dbg !1864
  %7 = sdiv i64 %6, 2, !dbg !1865
  %8 = icmp ne i64 %7, 0, !dbg !1866
  br i1 %8, label %9, label %11, !dbg !1867

9:                                                ; preds = %3
  %10 = mul i64 %7, 2, !dbg !1868
  call void @llvm.memmove.p0.p0.i64(ptr %2, ptr %0, i64 %10, i1 false), !dbg !1869
  br label %11, !dbg !1870

11:                                               ; preds = %9, %3
  %12 = getelementptr i16, ptr %2, i64 %7, !dbg !1871
  ret ptr %12, !dbg !1872
}

; Function Attrs: argmemonly nocallback nofree nounwind willreturn writeonly
declare void @llvm.memset.p0.i64(ptr nocapture writeonly, i8, i64, i1 immarg) #0

; Function Attrs: argmemonly nocallback nofree nounwind willreturn
declare void @llvm.memmove.p0.p0.i64(ptr nocapture writeonly, ptr nocapture readonly, i64, i1 immarg) #1

attributes #0 = { argmemonly nocallback nofree nounwind willreturn writeonly }
attributes #1 = { argmemonly nocallback nofree nounwind willreturn }

!llvm.dbg.cu = !{!0}
!llvm.module.flags = !{!2}

!0 = distinct !DICompileUnit(language: DW_LANG_C, file: !1, producer: "mlir", isOptimized: true, runtimeVersion: 0, emissionKind: FullDebug)
!1 = !DIFile(filename: "LLVMDialectModule", directory: "/")
!2 = !{i32 2, !"Debug Info Version", i32 3}
!3 = distinct !DISubprogram(name: "main", linkageName: "main", scope: null, file: !4, line: 22, type: !5, scopeLine: 22, spFlags: DISPFlagDefinition | DISPFlagOptimized, unit: !0, retainedNodes: !6)
!4 = !DIFile(filename: "lower.mlir", directory: "/users/Zijian/Disagg-mlir/tools/disagg/example/dataframe/step7")
!5 = !DISubroutineType(types: !6)
!6 = !{}
!7 = !DILocation(line: 27, column: 10, scope: !8)
!8 = !DILexicalBlockFile(scope: !3, file: !4, discriminator: 0)
!9 = !DILocation(line: 28, column: 10, scope: !8)
!10 = !DILocation(line: 29, column: 10, scope: !8)
!11 = !DILocation(line: 30, column: 10, scope: !8)
!12 = !DILocation(line: 31, column: 10, scope: !8)
!13 = !DILocation(line: 32, column: 10, scope: !8)
!14 = !DILocation(line: 33, column: 11, scope: !8)
!15 = !DILocation(line: 34, column: 11, scope: !8)
!16 = !DILocation(line: 36, column: 5, scope: !8)
!17 = !DILocation(line: 37, column: 11, scope: !8)
!18 = !DILocation(line: 38, column: 5, scope: !8)
!19 = !DILocation(line: 40, column: 11, scope: !8)
!20 = !DILocation(line: 41, column: 5, scope: !8)
!21 = !DILocation(line: 43, column: 11, scope: !8)
!22 = !DILocation(line: 44, column: 5, scope: !8)
!23 = !DILocation(line: 45, column: 11, scope: !8)
!24 = !DILocation(line: 46, column: 5, scope: !8)
!25 = !DILocation(line: 48, column: 11, scope: !8)
!26 = !DILocation(line: 49, column: 5, scope: !8)
!27 = !DILocation(line: 50, column: 11, scope: !8)
!28 = !DILocation(line: 53, column: 5, scope: !8)
!29 = !DILocation(line: 54, column: 11, scope: !8)
!30 = !DILocation(line: 55, column: 11, scope: !8)
!31 = !DILocation(line: 56, column: 5, scope: !8)
!32 = !DILocation(line: 57, column: 11, scope: !8)
!33 = !DILocation(line: 60, column: 5, scope: !8)
!34 = !DILocation(line: 61, column: 11, scope: !8)
!35 = !DILocation(line: 62, column: 11, scope: !8)
!36 = !DILocation(line: 63, column: 5, scope: !8)
!37 = !DILocation(line: 64, column: 11, scope: !8)
!38 = !DILocation(line: 67, column: 11, scope: !8)
!39 = !DILocation(line: 68, column: 5, scope: !8)
!40 = !DILocation(line: 69, column: 11, scope: !8)
!41 = !DILocation(line: 70, column: 5, scope: !8)
!42 = !DILocation(line: 71, column: 11, scope: !8)
!43 = !DILocation(line: 72, column: 11, scope: !8)
!44 = !DILocation(line: 75, column: 11, scope: !8)
!45 = !DILocation(line: 76, column: 5, scope: !8)
!46 = !DILocation(line: 77, column: 11, scope: !8)
!47 = !DILocation(line: 78, column: 5, scope: !8)
!48 = !DILocation(line: 79, column: 11, scope: !8)
!49 = !DILocation(line: 80, column: 11, scope: !8)
!50 = !DILocation(line: 81, column: 5, scope: !8)
!51 = distinct !DISubprogram(name: "_ZNSt6chrono10time_pointINS_3_V212steady_clockENS_8durationIlSt5ratioILl1ELl1000000000EEEEEC1Ev", linkageName: "_ZNSt6chrono10time_pointINS_3_V212steady_clockENS_8durationIlSt5ratioILl1ELl1000000000EEEEEC1Ev", scope: null, file: !4, line: 84, type: !5, scopeLine: 84, spFlags: DISPFlagDefinition | DISPFlagOptimized, unit: !0, retainedNodes: !6)
!52 = !DILocation(line: 86, column: 10, scope: !53)
!53 = !DILexicalBlockFile(scope: !51, file: !4, discriminator: 0)
!54 = !DILocation(line: 87, column: 10, scope: !53)
!55 = !DILocation(line: 88, column: 10, scope: !53)
!56 = !DILocation(line: 89, column: 5, scope: !53)
!57 = !DILocation(line: 90, column: 5, scope: !53)
!58 = !DILocation(line: 91, column: 10, scope: !53)
!59 = !DILocation(line: 92, column: 10, scope: !53)
!60 = !DILocation(line: 93, column: 5, scope: !53)
!61 = !DILocation(line: 94, column: 5, scope: !53)
!62 = distinct !DISubprogram(name: "_ZNSt6chrono10time_pointINS_3_V212steady_clockENS_8durationIlSt5ratioILl1ELl1000000000EEEEEaSEOS7_", linkageName: "_ZNSt6chrono10time_pointINS_3_V212steady_clockENS_8durationIlSt5ratioILl1ELl1000000000EEEEEaSEOS7_", scope: null, file: !4, line: 96, type: !5, scopeLine: 96, spFlags: DISPFlagDefinition | DISPFlagOptimized, unit: !0, retainedNodes: !6)
!63 = !DILocation(line: 97, column: 10, scope: !64)
!64 = !DILexicalBlockFile(scope: !62, file: !4, discriminator: 0)
!65 = !DILocation(line: 98, column: 10, scope: !64)
!66 = !DILocation(line: 99, column: 10, scope: !64)
!67 = !DILocation(line: 100, column: 5, scope: !64)
!68 = distinct !DISubprogram(name: "_Z29analyze_trip_durations_of_dayIsEvPKc", linkageName: "_Z29analyze_trip_durations_of_dayIsEvPKc", scope: null, file: !4, line: 103, type: !5, scopeLine: 103, spFlags: DISPFlagDefinition | DISPFlagOptimized, unit: !0, retainedNodes: !6)
!69 = !DILocation(line: 125, column: 11, scope: !70)
!70 = !DILexicalBlockFile(scope: !68, file: !4, discriminator: 0)
!71 = !DILocation(line: 127, column: 5, scope: !70)
!72 = !DILocation(line: 128, column: 11, scope: !70)
!73 = !DILocation(line: 130, column: 5, scope: !70)
!74 = !DILocation(line: 131, column: 11, scope: !70)
!75 = !DILocation(line: 132, column: 5, scope: !70)
!76 = !DILocation(line: 133, column: 11, scope: !70)
!77 = !DILocation(line: 134, column: 11, scope: !70)
!78 = !DILocation(line: 135, column: 11, scope: !70)
!79 = !DILocation(line: 138, column: 11, scope: !70)
!80 = !DILocation(line: 140, column: 11, scope: !70)
!81 = !DILocation(line: 142, column: 11, scope: !70)
!82 = !DILocation(line: 144, column: 11, scope: !70)
!83 = !DILocation(line: 145, column: 11, scope: !70)
!84 = !DILocation(line: 146, column: 5, scope: !70)
!85 = !DILocation(line: 147, column: 5, scope: !70)
!86 = !DILocation(line: 148, column: 5, scope: !70)
!87 = !DILocation(line: 149, column: 5, scope: !70)
!88 = !DILocation(line: 150, column: 5, scope: !70)
!89 = !DILocation(line: 151, column: 5, scope: !70)
!90 = !DILocation(line: 152, column: 11, scope: !70)
!91 = !DILocation(line: 153, column: 11, scope: !70)
!92 = !DILocation(line: 154, column: 11, scope: !70)
!93 = !DILocation(line: 155, column: 5, scope: !70)
!94 = !DILocation(line: 157, column: 11, scope: !70)
!95 = !DILocation(line: 158, column: 5, scope: !70)
!96 = !DILocation(line: 160, column: 11, scope: !70)
!97 = !DILocation(line: 161, column: 11, scope: !70)
!98 = !DILocation(line: 162, column: 11, scope: !70)
!99 = !DILocation(line: 163, column: 11, scope: !70)
!100 = !DILocation(line: 164, column: 11, scope: !70)
!101 = !DILocation(line: 165, column: 11, scope: !70)
!102 = !DILocation(line: 166, column: 11, scope: !70)
!103 = !DILocation(line: 167, column: 11, scope: !70)
!104 = !DILocation(line: 168, column: 11, scope: !70)
!105 = !DILocation(line: 169, column: 11, scope: !70)
!106 = !DILocation(line: 170, column: 11, scope: !70)
!107 = !DILocation(line: 171, column: 5, scope: !70)
!108 = !DILocation(line: 172, column: 11, scope: !70)
!109 = !DILocation(line: 173, column: 5, scope: !70)
!110 = !DILocation(line: 175, column: 11, scope: !70)
!111 = !DILocation(line: 176, column: 5, scope: !70)
!112 = !DILocation(line: 178, column: 11, scope: !70)
!113 = !DILocation(line: 179, column: 5, scope: !70)
!114 = !DILocation(line: 181, column: 11, scope: !70)
!115 = !DILocation(line: 182, column: 11, scope: !70)
!116 = !DILocation(line: 183, column: 11, scope: !70)
!117 = !DILocation(line: 184, column: 11, scope: !70)
!118 = !DILocation(line: 185, column: 11, scope: !70)
!119 = !DILocation(line: 186, column: 11, scope: !70)
!120 = !DILocation(line: 187, column: 11, scope: !70)
!121 = !DILocation(line: 188, column: 11, scope: !70)
!122 = !DILocation(line: 189, column: 11, scope: !70)
!123 = !DILocation(line: 190, column: 11, scope: !70)
!124 = !DILocation(line: 191, column: 11, scope: !70)
!125 = !DILocation(line: 192, column: 5, scope: !70)
!126 = !DILocation(line: 193, column: 11, scope: !70)
!127 = !DILocation(line: 194, column: 5, scope: !70)
!128 = !DILocation(line: 196, column: 11, scope: !70)
!129 = !DILocation(line: 197, column: 5, scope: !70)
!130 = !DILocation(line: 199, column: 11, scope: !70)
!131 = !DILocation(line: 200, column: 5, scope: !70)
!132 = !DILocation(line: 202, column: 11, scope: !70)
!133 = !DILocation(line: 203, column: 11, scope: !70)
!134 = !DILocation(line: 204, column: 11, scope: !70)
!135 = !DILocation(line: 205, column: 11, scope: !70)
!136 = !DILocation(line: 206, column: 11, scope: !70)
!137 = !DILocation(line: 207, column: 11, scope: !70)
!138 = !DILocation(line: 208, column: 11, scope: !70)
!139 = !DILocation(line: 209, column: 11, scope: !70)
!140 = !DILocation(line: 210, column: 11, scope: !70)
!141 = !DILocation(line: 211, column: 11, scope: !70)
!142 = !DILocation(line: 212, column: 11, scope: !70)
!143 = !DILocation(line: 213, column: 5, scope: !70)
!144 = !DILocation(line: 214, column: 11, scope: !70)
!145 = !DILocation(line: 215, column: 5, scope: !70)
!146 = !DILocation(line: 217, column: 5, scope: !70)
!147 = !DILocation(line: 219, column: 11, scope: !70)
!148 = !DILocation(line: 220, column: 5, scope: !70)
!149 = !DILocation(line: 222, column: 11, scope: !70)
!150 = !DILocation(line: 223, column: 11, scope: !70)
!151 = !DILocation(line: 224, column: 5, scope: !70)
!152 = !DILocation(line: 226, column: 11, scope: !70)
!153 = !DILocation(line: 227, column: 11, scope: !70)
!154 = !DILocation(line: 228, column: 11, scope: !70)
!155 = !DILocation(line: 229, column: 11, scope: !70)
!156 = !DILocation(line: 230, column: 11, scope: !70)
!157 = !DILocation(line: 231, column: 11, scope: !70)
!158 = !DILocation(line: 232, column: 11, scope: !70)
!159 = !DILocation(line: 233, column: 11, scope: !70)
!160 = !DILocation(line: 234, column: 11, scope: !70)
!161 = !DILocation(line: 235, column: 11, scope: !70)
!162 = !DILocation(line: 236, column: 12, scope: !70)
!163 = !DILocation(line: 237, column: 12, scope: !70)
!164 = !DILocation(line: 238, column: 5, scope: !70)
!165 = !DILocation(line: 239, column: 12, scope: !70)
!166 = !DILocation(line: 240, column: 12, scope: !70)
!167 = !DILocation(line: 241, column: 12, scope: !70)
!168 = !DILocation(line: 242, column: 12, scope: !70)
!169 = !DILocation(line: 243, column: 12, scope: !70)
!170 = !DILocation(line: 244, column: 12, scope: !70)
!171 = !DILocation(line: 245, column: 12, scope: !70)
!172 = !DILocation(line: 246, column: 12, scope: !70)
!173 = !DILocation(line: 247, column: 5, scope: !70)
!174 = !DILocation(line: 248, column: 12, scope: !70)
!175 = !DILocation(line: 249, column: 12, scope: !70)
!176 = !DILocation(line: 250, column: 12, scope: !70)
!177 = !DILocation(line: 251, column: 12, scope: !70)
!178 = !DILocation(line: 252, column: 12, scope: !70)
!179 = !DILocation(line: 253, column: 12, scope: !70)
!180 = !DILocation(line: 254, column: 12, scope: !70)
!181 = !DILocation(line: 255, column: 12, scope: !70)
!182 = !DILocation(line: 256, column: 5, scope: !70)
!183 = !DILocation(line: 257, column: 5, scope: !70)
!184 = !DILocation(line: 259, column: 12, scope: !70)
!185 = !DILocation(line: 260, column: 12, scope: !70)
!186 = !DILocation(line: 261, column: 12, scope: !70)
!187 = !DILocation(line: 262, column: 12, scope: !70)
!188 = !DILocation(line: 263, column: 12, scope: !70)
!189 = !DILocation(line: 264, column: 12, scope: !70)
!190 = !DILocation(line: 265, column: 12, scope: !70)
!191 = !DILocation(line: 266, column: 12, scope: !70)
!192 = !DILocation(line: 267, column: 12, scope: !70)
!193 = !DILocation(line: 268, column: 12, scope: !70)
!194 = !DILocation(line: 269, column: 12, scope: !70)
!195 = !DILocation(line: 271, column: 12, scope: !70)
!196 = !DILocation(line: 272, column: 12, scope: !70)
!197 = !DILocation(line: 274, column: 12, scope: !70)
!198 = !DILocation(line: 275, column: 12, scope: !70)
!199 = !DILocation(line: 276, column: 12, scope: !70)
!200 = !DILocation(line: 277, column: 12, scope: !70)
!201 = !DILocation(line: 278, column: 12, scope: !70)
!202 = !DILocation(line: 279, column: 12, scope: !70)
!203 = !DILocation(line: 280, column: 12, scope: !70)
!204 = !DILocation(line: 281, column: 12, scope: !70)
!205 = !DILocation(line: 282, column: 12, scope: !70)
!206 = !DILocation(line: 283, column: 12, scope: !70)
!207 = !DILocation(line: 284, column: 12, scope: !70)
!208 = !DILocation(line: 286, column: 12, scope: !70)
!209 = !DILocation(line: 287, column: 12, scope: !70)
!210 = !DILocation(line: 288, column: 12, scope: !70)
!211 = !DILocation(line: 289, column: 12, scope: !70)
!212 = !DILocation(line: 290, column: 12, scope: !70)
!213 = !DILocation(line: 291, column: 12, scope: !70)
!214 = !DILocation(line: 292, column: 12, scope: !70)
!215 = !DILocation(line: 293, column: 12, scope: !70)
!216 = !DILocation(line: 294, column: 12, scope: !70)
!217 = !DILocation(line: 295, column: 12, scope: !70)
!218 = !DILocation(line: 296, column: 12, scope: !70)
!219 = !DILocation(line: 298, column: 12, scope: !70)
!220 = !DILocation(line: 299, column: 12, scope: !70)
!221 = !DILocation(line: 302, column: 12, scope: !70)
!222 = !DILocation(line: 303, column: 12, scope: !70)
!223 = !DILocation(line: 304, column: 12, scope: !70)
!224 = !DILocation(line: 305, column: 5, scope: !70)
!225 = !DILocation(line: 306, column: 12, scope: !70)
!226 = !DILocation(line: 307, column: 12, scope: !70)
!227 = !DILocation(line: 308, column: 12, scope: !70)
!228 = !DILocation(line: 309, column: 5, scope: !70)
!229 = !DILocation(line: 311, column: 5, scope: !70)
!230 = !DILocation(line: 313, column: 12, scope: !70)
!231 = !DILocation(line: 314, column: 12, scope: !70)
!232 = !DILocation(line: 315, column: 5, scope: !70)
!233 = !DILocation(line: 317, column: 5, scope: !70)
!234 = !DILocation(line: 319, column: 12, scope: !70)
!235 = !DILocation(line: 320, column: 5, scope: !70)
!236 = !DILocation(line: 322, column: 12, scope: !70)
!237 = !DILocation(line: 323, column: 5, scope: !70)
!238 = !DILocation(line: 325, column: 12, scope: !70)
!239 = !DILocation(line: 326, column: 12, scope: !70)
!240 = !DILocation(line: 327, column: 12, scope: !70)
!241 = !DILocation(line: 328, column: 12, scope: !70)
!242 = !DILocation(line: 329, column: 12, scope: !70)
!243 = !DILocation(line: 330, column: 12, scope: !70)
!244 = !DILocation(line: 331, column: 5, scope: !70)
!245 = !DILocation(line: 332, column: 12, scope: !70)
!246 = !DILocation(line: 333, column: 12, scope: !70)
!247 = !DILocation(line: 334, column: 5, scope: !70)
!248 = !DILocation(line: 335, column: 12, scope: !70)
!249 = !DILocation(line: 336, column: 12, scope: !70)
!250 = !DILocation(line: 337, column: 5, scope: !70)
!251 = !DILocation(line: 338, column: 5, scope: !70)
!252 = !DILocation(line: 339, column: 5, scope: !70)
!253 = !DILocation(line: 340, column: 5, scope: !70)
!254 = !DILocation(line: 341, column: 12, scope: !70)
!255 = !DILocation(line: 342, column: 5, scope: !70)
!256 = !DILocation(line: 344, column: 12, scope: !70)
!257 = !DILocation(line: 345, column: 5, scope: !70)
!258 = !DILocation(line: 347, column: 5, scope: !70)
!259 = !DILocation(line: 348, column: 5, scope: !70)
!260 = distinct !DISubprogram(name: "_Z31analyze_trip_durations_of_monthIsEvPKc", linkageName: "_Z31analyze_trip_durations_of_monthIsEvPKc", scope: null, file: !4, line: 350, type: !5, scopeLine: 350, spFlags: DISPFlagDefinition | DISPFlagOptimized, unit: !0, retainedNodes: !6)
!261 = !DILocation(line: 373, column: 11, scope: !262)
!262 = !DILexicalBlockFile(scope: !260, file: !4, discriminator: 0)
!263 = !DILocation(line: 375, column: 5, scope: !262)
!264 = !DILocation(line: 376, column: 11, scope: !262)
!265 = !DILocation(line: 378, column: 5, scope: !262)
!266 = !DILocation(line: 379, column: 11, scope: !262)
!267 = !DILocation(line: 380, column: 5, scope: !262)
!268 = !DILocation(line: 381, column: 11, scope: !262)
!269 = !DILocation(line: 382, column: 11, scope: !262)
!270 = !DILocation(line: 383, column: 11, scope: !262)
!271 = !DILocation(line: 386, column: 11, scope: !262)
!272 = !DILocation(line: 388, column: 11, scope: !262)
!273 = !DILocation(line: 390, column: 11, scope: !262)
!274 = !DILocation(line: 392, column: 11, scope: !262)
!275 = !DILocation(line: 393, column: 11, scope: !262)
!276 = !DILocation(line: 394, column: 5, scope: !262)
!277 = !DILocation(line: 395, column: 5, scope: !262)
!278 = !DILocation(line: 396, column: 5, scope: !262)
!279 = !DILocation(line: 397, column: 5, scope: !262)
!280 = !DILocation(line: 398, column: 5, scope: !262)
!281 = !DILocation(line: 399, column: 5, scope: !262)
!282 = !DILocation(line: 400, column: 11, scope: !262)
!283 = !DILocation(line: 401, column: 11, scope: !262)
!284 = !DILocation(line: 402, column: 11, scope: !262)
!285 = !DILocation(line: 403, column: 5, scope: !262)
!286 = !DILocation(line: 405, column: 11, scope: !262)
!287 = !DILocation(line: 406, column: 5, scope: !262)
!288 = !DILocation(line: 408, column: 11, scope: !262)
!289 = !DILocation(line: 409, column: 11, scope: !262)
!290 = !DILocation(line: 410, column: 11, scope: !262)
!291 = !DILocation(line: 411, column: 11, scope: !262)
!292 = !DILocation(line: 412, column: 11, scope: !262)
!293 = !DILocation(line: 413, column: 11, scope: !262)
!294 = !DILocation(line: 414, column: 11, scope: !262)
!295 = !DILocation(line: 415, column: 11, scope: !262)
!296 = !DILocation(line: 416, column: 11, scope: !262)
!297 = !DILocation(line: 417, column: 11, scope: !262)
!298 = !DILocation(line: 418, column: 11, scope: !262)
!299 = !DILocation(line: 419, column: 5, scope: !262)
!300 = !DILocation(line: 420, column: 11, scope: !262)
!301 = !DILocation(line: 421, column: 5, scope: !262)
!302 = !DILocation(line: 423, column: 11, scope: !262)
!303 = !DILocation(line: 424, column: 5, scope: !262)
!304 = !DILocation(line: 426, column: 11, scope: !262)
!305 = !DILocation(line: 427, column: 5, scope: !262)
!306 = !DILocation(line: 429, column: 11, scope: !262)
!307 = !DILocation(line: 430, column: 11, scope: !262)
!308 = !DILocation(line: 431, column: 11, scope: !262)
!309 = !DILocation(line: 432, column: 11, scope: !262)
!310 = !DILocation(line: 433, column: 11, scope: !262)
!311 = !DILocation(line: 434, column: 11, scope: !262)
!312 = !DILocation(line: 435, column: 11, scope: !262)
!313 = !DILocation(line: 436, column: 11, scope: !262)
!314 = !DILocation(line: 437, column: 11, scope: !262)
!315 = !DILocation(line: 438, column: 11, scope: !262)
!316 = !DILocation(line: 439, column: 11, scope: !262)
!317 = !DILocation(line: 440, column: 5, scope: !262)
!318 = !DILocation(line: 441, column: 11, scope: !262)
!319 = !DILocation(line: 442, column: 5, scope: !262)
!320 = !DILocation(line: 444, column: 11, scope: !262)
!321 = !DILocation(line: 445, column: 5, scope: !262)
!322 = !DILocation(line: 447, column: 11, scope: !262)
!323 = !DILocation(line: 448, column: 5, scope: !262)
!324 = !DILocation(line: 450, column: 11, scope: !262)
!325 = !DILocation(line: 451, column: 11, scope: !262)
!326 = !DILocation(line: 452, column: 11, scope: !262)
!327 = !DILocation(line: 453, column: 11, scope: !262)
!328 = !DILocation(line: 454, column: 11, scope: !262)
!329 = !DILocation(line: 455, column: 11, scope: !262)
!330 = !DILocation(line: 456, column: 11, scope: !262)
!331 = !DILocation(line: 457, column: 11, scope: !262)
!332 = !DILocation(line: 458, column: 11, scope: !262)
!333 = !DILocation(line: 459, column: 11, scope: !262)
!334 = !DILocation(line: 460, column: 11, scope: !262)
!335 = !DILocation(line: 461, column: 5, scope: !262)
!336 = !DILocation(line: 462, column: 11, scope: !262)
!337 = !DILocation(line: 463, column: 5, scope: !262)
!338 = !DILocation(line: 465, column: 5, scope: !262)
!339 = !DILocation(line: 467, column: 11, scope: !262)
!340 = !DILocation(line: 468, column: 5, scope: !262)
!341 = !DILocation(line: 470, column: 11, scope: !262)
!342 = !DILocation(line: 471, column: 11, scope: !262)
!343 = !DILocation(line: 472, column: 5, scope: !262)
!344 = !DILocation(line: 474, column: 11, scope: !262)
!345 = !DILocation(line: 475, column: 11, scope: !262)
!346 = !DILocation(line: 476, column: 11, scope: !262)
!347 = !DILocation(line: 477, column: 11, scope: !262)
!348 = !DILocation(line: 478, column: 11, scope: !262)
!349 = !DILocation(line: 479, column: 11, scope: !262)
!350 = !DILocation(line: 480, column: 11, scope: !262)
!351 = !DILocation(line: 481, column: 11, scope: !262)
!352 = !DILocation(line: 482, column: 11, scope: !262)
!353 = !DILocation(line: 483, column: 12, scope: !262)
!354 = !DILocation(line: 484, column: 12, scope: !262)
!355 = !DILocation(line: 485, column: 12, scope: !262)
!356 = !DILocation(line: 486, column: 5, scope: !262)
!357 = !DILocation(line: 487, column: 12, scope: !262)
!358 = !DILocation(line: 488, column: 12, scope: !262)
!359 = !DILocation(line: 489, column: 12, scope: !262)
!360 = !DILocation(line: 490, column: 12, scope: !262)
!361 = !DILocation(line: 491, column: 12, scope: !262)
!362 = !DILocation(line: 492, column: 12, scope: !262)
!363 = !DILocation(line: 493, column: 12, scope: !262)
!364 = !DILocation(line: 494, column: 12, scope: !262)
!365 = !DILocation(line: 495, column: 5, scope: !262)
!366 = !DILocation(line: 496, column: 12, scope: !262)
!367 = !DILocation(line: 497, column: 12, scope: !262)
!368 = !DILocation(line: 498, column: 12, scope: !262)
!369 = !DILocation(line: 499, column: 12, scope: !262)
!370 = !DILocation(line: 500, column: 12, scope: !262)
!371 = !DILocation(line: 501, column: 12, scope: !262)
!372 = !DILocation(line: 502, column: 12, scope: !262)
!373 = !DILocation(line: 503, column: 12, scope: !262)
!374 = !DILocation(line: 504, column: 5, scope: !262)
!375 = !DILocation(line: 505, column: 5, scope: !262)
!376 = !DILocation(line: 507, column: 12, scope: !262)
!377 = !DILocation(line: 508, column: 12, scope: !262)
!378 = !DILocation(line: 509, column: 12, scope: !262)
!379 = !DILocation(line: 510, column: 12, scope: !262)
!380 = !DILocation(line: 511, column: 12, scope: !262)
!381 = !DILocation(line: 512, column: 12, scope: !262)
!382 = !DILocation(line: 513, column: 12, scope: !262)
!383 = !DILocation(line: 514, column: 12, scope: !262)
!384 = !DILocation(line: 515, column: 12, scope: !262)
!385 = !DILocation(line: 516, column: 12, scope: !262)
!386 = !DILocation(line: 517, column: 12, scope: !262)
!387 = !DILocation(line: 519, column: 12, scope: !262)
!388 = !DILocation(line: 520, column: 12, scope: !262)
!389 = !DILocation(line: 522, column: 12, scope: !262)
!390 = !DILocation(line: 523, column: 12, scope: !262)
!391 = !DILocation(line: 524, column: 12, scope: !262)
!392 = !DILocation(line: 525, column: 12, scope: !262)
!393 = !DILocation(line: 526, column: 12, scope: !262)
!394 = !DILocation(line: 527, column: 12, scope: !262)
!395 = !DILocation(line: 528, column: 12, scope: !262)
!396 = !DILocation(line: 529, column: 12, scope: !262)
!397 = !DILocation(line: 530, column: 12, scope: !262)
!398 = !DILocation(line: 531, column: 12, scope: !262)
!399 = !DILocation(line: 532, column: 12, scope: !262)
!400 = !DILocation(line: 534, column: 12, scope: !262)
!401 = !DILocation(line: 535, column: 12, scope: !262)
!402 = !DILocation(line: 536, column: 12, scope: !262)
!403 = !DILocation(line: 537, column: 12, scope: !262)
!404 = !DILocation(line: 538, column: 12, scope: !262)
!405 = !DILocation(line: 539, column: 12, scope: !262)
!406 = !DILocation(line: 540, column: 12, scope: !262)
!407 = !DILocation(line: 541, column: 12, scope: !262)
!408 = !DILocation(line: 542, column: 12, scope: !262)
!409 = !DILocation(line: 543, column: 12, scope: !262)
!410 = !DILocation(line: 544, column: 12, scope: !262)
!411 = !DILocation(line: 546, column: 12, scope: !262)
!412 = !DILocation(line: 547, column: 12, scope: !262)
!413 = !DILocation(line: 550, column: 12, scope: !262)
!414 = !DILocation(line: 551, column: 12, scope: !262)
!415 = !DILocation(line: 552, column: 12, scope: !262)
!416 = !DILocation(line: 553, column: 5, scope: !262)
!417 = !DILocation(line: 554, column: 12, scope: !262)
!418 = !DILocation(line: 555, column: 12, scope: !262)
!419 = !DILocation(line: 556, column: 12, scope: !262)
!420 = !DILocation(line: 557, column: 5, scope: !262)
!421 = !DILocation(line: 559, column: 5, scope: !262)
!422 = !DILocation(line: 561, column: 12, scope: !262)
!423 = !DILocation(line: 562, column: 12, scope: !262)
!424 = !DILocation(line: 563, column: 5, scope: !262)
!425 = !DILocation(line: 565, column: 5, scope: !262)
!426 = !DILocation(line: 567, column: 12, scope: !262)
!427 = !DILocation(line: 568, column: 5, scope: !262)
!428 = !DILocation(line: 570, column: 12, scope: !262)
!429 = !DILocation(line: 571, column: 5, scope: !262)
!430 = !DILocation(line: 573, column: 12, scope: !262)
!431 = !DILocation(line: 574, column: 12, scope: !262)
!432 = !DILocation(line: 575, column: 12, scope: !262)
!433 = !DILocation(line: 576, column: 12, scope: !262)
!434 = !DILocation(line: 577, column: 12, scope: !262)
!435 = !DILocation(line: 578, column: 12, scope: !262)
!436 = !DILocation(line: 579, column: 5, scope: !262)
!437 = !DILocation(line: 580, column: 12, scope: !262)
!438 = !DILocation(line: 581, column: 12, scope: !262)
!439 = !DILocation(line: 582, column: 5, scope: !262)
!440 = !DILocation(line: 583, column: 12, scope: !262)
!441 = !DILocation(line: 584, column: 12, scope: !262)
!442 = !DILocation(line: 585, column: 5, scope: !262)
!443 = !DILocation(line: 586, column: 5, scope: !262)
!444 = !DILocation(line: 587, column: 5, scope: !262)
!445 = !DILocation(line: 588, column: 5, scope: !262)
!446 = !DILocation(line: 589, column: 12, scope: !262)
!447 = !DILocation(line: 590, column: 5, scope: !262)
!448 = !DILocation(line: 592, column: 12, scope: !262)
!449 = !DILocation(line: 593, column: 5, scope: !262)
!450 = !DILocation(line: 595, column: 5, scope: !262)
!451 = !DILocation(line: 596, column: 5, scope: !262)
!452 = distinct !DISubprogram(name: "_ZNKSt6chrono8durationIlSt5ratioILl1ELl1000000EEE5countEv", linkageName: "_ZNKSt6chrono8durationIlSt5ratioILl1ELl1000000EEE5countEv", scope: null, file: !4, line: 598, type: !5, scopeLine: 598, spFlags: DISPFlagDefinition | DISPFlagOptimized, unit: !0, retainedNodes: !6)
!453 = !DILocation(line: 599, column: 10, scope: !454)
!454 = !DILexicalBlockFile(scope: !452, file: !4, discriminator: 0)
!455 = !DILocation(line: 600, column: 10, scope: !454)
!456 = !DILocation(line: 601, column: 5, scope: !454)
!457 = distinct !DISubprogram(name: "_ZNSt6chrono13duration_castINS_8durationIlSt5ratioILl1ELl1000000EEEElS2_ILl1ELl1000000000EEEENSt9enable_ifIXsr13__is_durationIT_EE5valueES7_E4typeERKNS1_IT0_T1_EE", linkageName: "_ZNSt6chrono13duration_castINS_8durationIlSt5ratioILl1ELl1000000EEEElS2_ILl1ELl1000000000EEEENSt9enable_ifIXsr13__is_durationIT_EE5valueES7_E4typeERKNS1_IT0_T1_EE", scope: null, file: !4, line: 603, type: !5, scopeLine: 603, spFlags: DISPFlagDefinition | DISPFlagOptimized, unit: !0, retainedNodes: !6)
!458 = !DILocation(line: 605, column: 10, scope: !459)
!459 = !DILexicalBlockFile(scope: !457, file: !4, discriminator: 0)
!460 = !DILocation(line: 606, column: 10, scope: !459)
!461 = !DILocation(line: 607, column: 10, scope: !459)
!462 = !DILocation(line: 608, column: 5, scope: !459)
!463 = !DILocation(line: 609, column: 5, scope: !459)
!464 = !DILocation(line: 610, column: 10, scope: !459)
!465 = !DILocation(line: 611, column: 5, scope: !459)
!466 = distinct !DISubprogram(name: "_ZNSt6chronomiINS_3_V212steady_clockENS_8durationIlSt5ratioILl1ELl1000000000EEEES6_EENSt11common_typeIJT0_T1_EE4typeERKNS_10time_pointIT_S8_EERKNSC_ISD_S9_EE", linkageName: "_ZNSt6chronomiINS_3_V212steady_clockENS_8durationIlSt5ratioILl1ELl1000000000EEEES6_EENSt11common_typeIJT0_T1_EE4typeERKNS_10time_pointIT_S8_EERKNSC_ISD_S9_EE", scope: null, file: !4, line: 613, type: !5, scopeLine: 613, spFlags: DISPFlagDefinition | DISPFlagOptimized, unit: !0, retainedNodes: !6)
!467 = !DILocation(line: 615, column: 10, scope: !468)
!468 = !DILexicalBlockFile(scope: !466, file: !4, discriminator: 0)
!469 = !DILocation(line: 616, column: 10, scope: !468)
!470 = !DILocation(line: 617, column: 10, scope: !468)
!471 = !DILocation(line: 618, column: 10, scope: !468)
!472 = !DILocation(line: 619, column: 10, scope: !468)
!473 = !DILocation(line: 620, column: 5, scope: !468)
!474 = !DILocation(line: 621, column: 10, scope: !468)
!475 = !DILocation(line: 622, column: 5, scope: !468)
!476 = !DILocation(line: 623, column: 10, scope: !468)
!477 = !DILocation(line: 624, column: 5, scope: !468)
!478 = !DILocation(line: 625, column: 5, scope: !468)
!479 = !DILocation(line: 626, column: 10, scope: !468)
!480 = !DILocation(line: 627, column: 5, scope: !468)
!481 = distinct !DISubprogram(name: "_ZNSt6chrono8durationIlSt5ratioILl1ELl1000000000EEEC1ERKS3_", linkageName: "_ZNSt6chrono8durationIlSt5ratioILl1ELl1000000000EEEC1ERKS3_", scope: null, file: !4, line: 629, type: !5, scopeLine: 629, spFlags: DISPFlagDefinition | DISPFlagOptimized, unit: !0, retainedNodes: !6)
!482 = !DILocation(line: 630, column: 10, scope: !483)
!483 = !DILexicalBlockFile(scope: !481, file: !4, discriminator: 0)
!484 = !DILocation(line: 631, column: 10, scope: !483)
!485 = !DILocation(line: 632, column: 10, scope: !483)
!486 = !DILocation(line: 633, column: 5, scope: !483)
!487 = !DILocation(line: 634, column: 5, scope: !483)
!488 = distinct !DISubprogram(name: "_ZNSt6chrono8durationIlSt5ratioILl1ELl1000000000EEE4zeroEv", linkageName: "_ZNSt6chrono8durationIlSt5ratioILl1ELl1000000000EEE4zeroEv", scope: null, file: !4, line: 636, type: !5, scopeLine: 636, spFlags: DISPFlagDefinition | DISPFlagOptimized, unit: !0, retainedNodes: !6)
!489 = !DILocation(line: 639, column: 10, scope: !490)
!490 = !DILexicalBlockFile(scope: !488, file: !4, discriminator: 0)
!491 = !DILocation(line: 640, column: 10, scope: !490)
!492 = !DILocation(line: 642, column: 5, scope: !490)
!493 = !DILocation(line: 643, column: 10, scope: !490)
!494 = !DILocation(line: 644, column: 10, scope: !490)
!495 = !DILocation(line: 645, column: 5, scope: !490)
!496 = !DILocation(line: 646, column: 5, scope: !490)
!497 = !DILocation(line: 647, column: 10, scope: !490)
!498 = !DILocation(line: 648, column: 5, scope: !490)
!499 = !DILocation(line: 649, column: 5, scope: !490)
!500 = !DILocation(line: 650, column: 10, scope: !490)
!501 = !DILocation(line: 651, column: 5, scope: !490)
!502 = distinct !DISubprogram(name: "_ZNSt6chrono8durationIlSt5ratioILl1ELl1000000000EEEaSERKS3_", linkageName: "_ZNSt6chrono8durationIlSt5ratioILl1ELl1000000000EEEaSERKS3_", scope: null, file: !4, line: 653, type: !5, scopeLine: 653, spFlags: DISPFlagDefinition | DISPFlagOptimized, unit: !0, retainedNodes: !6)
!503 = !DILocation(line: 654, column: 10, scope: !504)
!504 = !DILexicalBlockFile(scope: !502, file: !4, discriminator: 0)
!505 = !DILocation(line: 655, column: 10, scope: !504)
!506 = !DILocation(line: 656, column: 10, scope: !504)
!507 = !DILocation(line: 657, column: 5, scope: !504)
!508 = !DILocation(line: 658, column: 5, scope: !504)
!509 = distinct !DISubprogram(name: "_ZNKSt6vectorImSaImEE4sizeEv", linkageName: "_ZNKSt6vectorImSaImEE4sizeEv", scope: null, file: !4, line: 660, type: !5, scopeLine: 660, spFlags: DISPFlagDefinition | DISPFlagOptimized, unit: !0, retainedNodes: !6)
!510 = !DILocation(line: 662, column: 10, scope: !511)
!511 = !DILexicalBlockFile(scope: !509, file: !4, discriminator: 0)
!512 = !DILocation(line: 663, column: 10, scope: !511)
!513 = !DILocation(line: 664, column: 10, scope: !511)
!514 = !DILocation(line: 665, column: 10, scope: !511)
!515 = !DILocation(line: 666, column: 10, scope: !511)
!516 = !DILocation(line: 667, column: 10, scope: !511)
!517 = !DILocation(line: 668, column: 10, scope: !511)
!518 = !DILocation(line: 669, column: 10, scope: !511)
!519 = !DILocation(line: 670, column: 10, scope: !511)
!520 = !DILocation(line: 671, column: 11, scope: !511)
!521 = !DILocation(line: 672, column: 11, scope: !511)
!522 = !DILocation(line: 673, column: 5, scope: !511)
!523 = distinct !DISubprogram(name: "ridx_size_i64", linkageName: "ridx_size_i64", scope: null, file: !4, line: 675, type: !5, scopeLine: 675, spFlags: DISPFlagDefinition | DISPFlagOptimized, unit: !0, retainedNodes: !6)
!524 = !DILocation(line: 677, column: 10, scope: !525)
!525 = !DILexicalBlockFile(scope: !523, file: !4, discriminator: 0)
!526 = !DILocation(line: 678, column: 10, scope: !525)
!527 = !DILocation(line: 679, column: 10, scope: !525)
!528 = !DILocation(line: 680, column: 10, scope: !525)
!529 = !DILocation(line: 681, column: 10, scope: !525)
!530 = !DILocation(line: 682, column: 10, scope: !525)
!531 = !DILocation(line: 683, column: 10, scope: !525)
!532 = !DILocation(line: 684, column: 10, scope: !525)
!533 = !DILocation(line: 685, column: 10, scope: !525)
!534 = !DILocation(line: 686, column: 11, scope: !525)
!535 = !DILocation(line: 687, column: 11, scope: !525)
!536 = !DILocation(line: 688, column: 5, scope: !525)
!537 = distinct !DISubprogram(name: "_ZNSt6vectorImSaImEEC1Ev", linkageName: "_ZNSt6vectorImSaImEEC1Ev", scope: null, file: !4, line: 690, type: !5, scopeLine: 690, spFlags: DISPFlagDefinition | DISPFlagOptimized, unit: !0, retainedNodes: !6)
!538 = !DILocation(line: 691, column: 10, scope: !539)
!539 = !DILexicalBlockFile(scope: !537, file: !4, discriminator: 0)
!540 = !DILocation(line: 692, column: 5, scope: !539)
!541 = !DILocation(line: 693, column: 5, scope: !539)
!542 = distinct !DISubprogram(name: "_ZNSt6vectorImSaImEE7reserveEm", linkageName: "_ZNSt6vectorImSaImEE7reserveEm", scope: null, file: !4, line: 695, type: !5, scopeLine: 695, spFlags: DISPFlagDefinition | DISPFlagOptimized, unit: !0, retainedNodes: !6)
!543 = !DILocation(line: 699, column: 10, scope: !544)
!544 = !DILexicalBlockFile(scope: !542, file: !4, discriminator: 0)
!545 = !DILocation(line: 700, column: 10, scope: !544)
!546 = !DILocation(line: 701, column: 10, scope: !544)
!547 = !DILocation(line: 702, column: 10, scope: !544)
!548 = !DILocation(line: 703, column: 10, scope: !544)
!549 = !DILocation(line: 704, column: 10, scope: !544)
!550 = !DILocation(line: 705, column: 5, scope: !544)
!551 = !DILocation(line: 709, column: 5, scope: !544)
!552 = !DILocation(line: 710, column: 5, scope: !544)
!553 = !DILocation(line: 712, column: 11, scope: !544)
!554 = !DILocation(line: 713, column: 11, scope: !544)
!555 = !DILocation(line: 714, column: 5, scope: !544)
!556 = !DILocation(line: 716, column: 11, scope: !544)
!557 = !DILocation(line: 717, column: 11, scope: !544)
!558 = !DILocation(line: 718, column: 11, scope: !544)
!559 = !DILocation(line: 719, column: 5, scope: !544)
!560 = !DILocation(line: 721, column: 11, scope: !544)
!561 = !DILocation(line: 722, column: 11, scope: !544)
!562 = !DILocation(line: 723, column: 11, scope: !544)
!563 = !DILocation(line: 724, column: 11, scope: !544)
!564 = !DILocation(line: 725, column: 11, scope: !544)
!565 = !DILocation(line: 726, column: 11, scope: !544)
!566 = !DILocation(line: 727, column: 11, scope: !544)
!567 = !DILocation(line: 728, column: 11, scope: !544)
!568 = !DILocation(line: 729, column: 11, scope: !544)
!569 = !DILocation(line: 730, column: 11, scope: !544)
!570 = !DILocation(line: 731, column: 5, scope: !544)
!571 = !DILocation(line: 733, column: 11, scope: !544)
!572 = !DILocation(line: 734, column: 11, scope: !544)
!573 = !DILocation(line: 735, column: 11, scope: !544)
!574 = !DILocation(line: 736, column: 11, scope: !544)
!575 = !DILocation(line: 737, column: 11, scope: !544)
!576 = !DILocation(line: 738, column: 11, scope: !544)
!577 = !DILocation(line: 739, column: 5, scope: !544)
!578 = !DILocation(line: 740, column: 5, scope: !544)
!579 = !DILocation(line: 741, column: 11, scope: !544)
!580 = !DILocation(line: 742, column: 11, scope: !544)
!581 = !DILocation(line: 743, column: 11, scope: !544)
!582 = !DILocation(line: 744, column: 5, scope: !544)
!583 = !DILocation(line: 745, column: 5, scope: !544)
!584 = !DILocation(line: 746, column: 11, scope: !544)
!585 = !DILocation(line: 747, column: 11, scope: !544)
!586 = !DILocation(line: 748, column: 11, scope: !544)
!587 = !DILocation(line: 749, column: 11, scope: !544)
!588 = !DILocation(line: 750, column: 5, scope: !544)
!589 = !DILocation(line: 752, column: 5, scope: !544)
!590 = !DILocation(line: 754, column: 11, scope: !544)
!591 = !DILocation(line: 755, column: 11, scope: !544)
!592 = !DILocation(line: 756, column: 11, scope: !544)
!593 = !DILocation(line: 757, column: 11, scope: !544)
!594 = !DILocation(line: 758, column: 11, scope: !544)
!595 = !DILocation(line: 759, column: 11, scope: !544)
!596 = !DILocation(line: 760, column: 11, scope: !544)
!597 = !DILocation(line: 761, column: 11, scope: !544)
!598 = !DILocation(line: 762, column: 11, scope: !544)
!599 = !DILocation(line: 763, column: 11, scope: !544)
!600 = !DILocation(line: 764, column: 11, scope: !544)
!601 = !DILocation(line: 765, column: 5, scope: !544)
!602 = !DILocation(line: 766, column: 5, scope: !544)
!603 = !DILocation(line: 767, column: 11, scope: !544)
!604 = !DILocation(line: 768, column: 11, scope: !544)
!605 = !DILocation(line: 769, column: 5, scope: !544)
!606 = !DILocation(line: 770, column: 11, scope: !544)
!607 = !DILocation(line: 771, column: 11, scope: !544)
!608 = !DILocation(line: 772, column: 5, scope: !544)
!609 = !DILocation(line: 773, column: 5, scope: !544)
!610 = !DILocation(line: 775, column: 5, scope: !544)
!611 = distinct !DISubprogram(name: "_ZNSt6vectorIsSaIsEEC1Ev", linkageName: "_ZNSt6vectorIsSaIsEEC1Ev", scope: null, file: !4, line: 777, type: !5, scopeLine: 777, spFlags: DISPFlagDefinition | DISPFlagOptimized, unit: !0, retainedNodes: !6)
!612 = !DILocation(line: 778, column: 10, scope: !613)
!613 = !DILexicalBlockFile(scope: !611, file: !4, discriminator: 0)
!614 = !DILocation(line: 779, column: 5, scope: !613)
!615 = !DILocation(line: 780, column: 5, scope: !613)
!616 = distinct !DISubprogram(name: "_ZNSt6vectorIsSaIsEE7reserveEm", linkageName: "_ZNSt6vectorIsSaIsEE7reserveEm", scope: null, file: !4, line: 782, type: !5, scopeLine: 782, spFlags: DISPFlagDefinition | DISPFlagOptimized, unit: !0, retainedNodes: !6)
!617 = !DILocation(line: 786, column: 10, scope: !618)
!618 = !DILexicalBlockFile(scope: !616, file: !4, discriminator: 0)
!619 = !DILocation(line: 787, column: 10, scope: !618)
!620 = !DILocation(line: 788, column: 10, scope: !618)
!621 = !DILocation(line: 789, column: 10, scope: !618)
!622 = !DILocation(line: 790, column: 10, scope: !618)
!623 = !DILocation(line: 791, column: 10, scope: !618)
!624 = !DILocation(line: 792, column: 5, scope: !618)
!625 = !DILocation(line: 796, column: 5, scope: !618)
!626 = !DILocation(line: 797, column: 5, scope: !618)
!627 = !DILocation(line: 799, column: 11, scope: !618)
!628 = !DILocation(line: 800, column: 11, scope: !618)
!629 = !DILocation(line: 801, column: 5, scope: !618)
!630 = !DILocation(line: 803, column: 11, scope: !618)
!631 = !DILocation(line: 804, column: 11, scope: !618)
!632 = !DILocation(line: 805, column: 11, scope: !618)
!633 = !DILocation(line: 806, column: 5, scope: !618)
!634 = !DILocation(line: 808, column: 11, scope: !618)
!635 = !DILocation(line: 809, column: 11, scope: !618)
!636 = !DILocation(line: 810, column: 11, scope: !618)
!637 = !DILocation(line: 811, column: 11, scope: !618)
!638 = !DILocation(line: 812, column: 11, scope: !618)
!639 = !DILocation(line: 813, column: 11, scope: !618)
!640 = !DILocation(line: 814, column: 11, scope: !618)
!641 = !DILocation(line: 815, column: 11, scope: !618)
!642 = !DILocation(line: 816, column: 11, scope: !618)
!643 = !DILocation(line: 817, column: 11, scope: !618)
!644 = !DILocation(line: 818, column: 5, scope: !618)
!645 = !DILocation(line: 820, column: 11, scope: !618)
!646 = !DILocation(line: 821, column: 11, scope: !618)
!647 = !DILocation(line: 822, column: 11, scope: !618)
!648 = !DILocation(line: 823, column: 11, scope: !618)
!649 = !DILocation(line: 824, column: 11, scope: !618)
!650 = !DILocation(line: 825, column: 11, scope: !618)
!651 = !DILocation(line: 826, column: 5, scope: !618)
!652 = !DILocation(line: 827, column: 5, scope: !618)
!653 = !DILocation(line: 828, column: 11, scope: !618)
!654 = !DILocation(line: 829, column: 11, scope: !618)
!655 = !DILocation(line: 830, column: 11, scope: !618)
!656 = !DILocation(line: 831, column: 5, scope: !618)
!657 = !DILocation(line: 832, column: 5, scope: !618)
!658 = !DILocation(line: 833, column: 11, scope: !618)
!659 = !DILocation(line: 834, column: 11, scope: !618)
!660 = !DILocation(line: 835, column: 11, scope: !618)
!661 = !DILocation(line: 836, column: 11, scope: !618)
!662 = !DILocation(line: 837, column: 5, scope: !618)
!663 = !DILocation(line: 839, column: 5, scope: !618)
!664 = !DILocation(line: 841, column: 11, scope: !618)
!665 = !DILocation(line: 842, column: 11, scope: !618)
!666 = !DILocation(line: 843, column: 11, scope: !618)
!667 = !DILocation(line: 844, column: 11, scope: !618)
!668 = !DILocation(line: 845, column: 11, scope: !618)
!669 = !DILocation(line: 846, column: 11, scope: !618)
!670 = !DILocation(line: 847, column: 11, scope: !618)
!671 = !DILocation(line: 848, column: 11, scope: !618)
!672 = !DILocation(line: 849, column: 11, scope: !618)
!673 = !DILocation(line: 850, column: 11, scope: !618)
!674 = !DILocation(line: 851, column: 11, scope: !618)
!675 = !DILocation(line: 852, column: 5, scope: !618)
!676 = !DILocation(line: 853, column: 5, scope: !618)
!677 = !DILocation(line: 854, column: 11, scope: !618)
!678 = !DILocation(line: 855, column: 11, scope: !618)
!679 = !DILocation(line: 856, column: 5, scope: !618)
!680 = !DILocation(line: 857, column: 11, scope: !618)
!681 = !DILocation(line: 858, column: 11, scope: !618)
!682 = !DILocation(line: 859, column: 5, scope: !618)
!683 = !DILocation(line: 860, column: 5, scope: !618)
!684 = !DILocation(line: 862, column: 5, scope: !618)
!685 = distinct !DISubprogram(name: "_ZNSt6vectorImSaImEEixEm", linkageName: "_ZNSt6vectorImSaImEEixEm", scope: null, file: !4, line: 864, type: !5, scopeLine: 864, spFlags: DISPFlagDefinition | DISPFlagOptimized, unit: !0, retainedNodes: !6)
!686 = !DILocation(line: 865, column: 10, scope: !687)
!687 = !DILexicalBlockFile(scope: !685, file: !4, discriminator: 0)
!688 = !DILocation(line: 866, column: 10, scope: !687)
!689 = !DILocation(line: 867, column: 10, scope: !687)
!690 = !DILocation(line: 868, column: 10, scope: !687)
!691 = !DILocation(line: 869, column: 10, scope: !687)
!692 = !DILocation(line: 870, column: 10, scope: !687)
!693 = !DILocation(line: 871, column: 5, scope: !687)
!694 = distinct !DISubprogram(name: "ridx_index_i64", linkageName: "ridx_index_i64", scope: null, file: !4, line: 873, type: !5, scopeLine: 873, spFlags: DISPFlagDefinition | DISPFlagOptimized, unit: !0, retainedNodes: !6)
!695 = !DILocation(line: 874, column: 10, scope: !696)
!696 = !DILexicalBlockFile(scope: !694, file: !4, discriminator: 0)
!697 = !DILocation(line: 875, column: 10, scope: !696)
!698 = !DILocation(line: 876, column: 10, scope: !696)
!699 = !DILocation(line: 877, column: 10, scope: !696)
!700 = !DILocation(line: 878, column: 10, scope: !696)
!701 = !DILocation(line: 879, column: 10, scope: !696)
!702 = !DILocation(line: 880, column: 5, scope: !696)
!703 = distinct !DISubprogram(name: "rdur_index_i64", linkageName: "rdur_index_i64", scope: null, file: !4, line: 882, type: !5, scopeLine: 882, spFlags: DISPFlagDefinition | DISPFlagOptimized, unit: !0, retainedNodes: !6)
!704 = !DILocation(line: 883, column: 10, scope: !705)
!705 = !DILexicalBlockFile(scope: !703, file: !4, discriminator: 0)
!706 = !DILocation(line: 884, column: 10, scope: !705)
!707 = !DILocation(line: 885, column: 10, scope: !705)
!708 = !DILocation(line: 886, column: 10, scope: !705)
!709 = !DILocation(line: 887, column: 10, scope: !705)
!710 = !DILocation(line: 888, column: 10, scope: !705)
!711 = !DILocation(line: 889, column: 5, scope: !705)
!712 = distinct !DISubprogram(name: "_ZNSt6vectorIsSaIsEEixEm", linkageName: "_ZNSt6vectorIsSaIsEEixEm", scope: null, file: !4, line: 891, type: !5, scopeLine: 891, spFlags: DISPFlagDefinition | DISPFlagOptimized, unit: !0, retainedNodes: !6)
!713 = !DILocation(line: 892, column: 10, scope: !714)
!714 = !DILexicalBlockFile(scope: !712, file: !4, discriminator: 0)
!715 = !DILocation(line: 893, column: 10, scope: !714)
!716 = !DILocation(line: 894, column: 10, scope: !714)
!717 = !DILocation(line: 895, column: 10, scope: !714)
!718 = !DILocation(line: 896, column: 10, scope: !714)
!719 = !DILocation(line: 897, column: 10, scope: !714)
!720 = !DILocation(line: 898, column: 5, scope: !714)
!721 = distinct !DISubprogram(name: "rday_index_i16", linkageName: "rday_index_i16", scope: null, file: !4, line: 900, type: !5, scopeLine: 900, spFlags: DISPFlagDefinition | DISPFlagOptimized, unit: !0, retainedNodes: !6)
!722 = !DILocation(line: 901, column: 10, scope: !723)
!723 = !DILexicalBlockFile(scope: !721, file: !4, discriminator: 0)
!724 = !DILocation(line: 902, column: 10, scope: !723)
!725 = !DILocation(line: 903, column: 10, scope: !723)
!726 = !DILocation(line: 904, column: 10, scope: !723)
!727 = !DILocation(line: 905, column: 10, scope: !723)
!728 = !DILocation(line: 906, column: 10, scope: !723)
!729 = !DILocation(line: 907, column: 5, scope: !723)
!730 = distinct !DISubprogram(name: "rmon_index_i16", linkageName: "rmon_index_i16", scope: null, file: !4, line: 909, type: !5, scopeLine: 909, spFlags: DISPFlagDefinition | DISPFlagOptimized, unit: !0, retainedNodes: !6)
!731 = !DILocation(line: 910, column: 10, scope: !732)
!732 = !DILexicalBlockFile(scope: !730, file: !4, discriminator: 0)
!733 = !DILocation(line: 911, column: 10, scope: !732)
!734 = !DILocation(line: 912, column: 10, scope: !732)
!735 = !DILocation(line: 913, column: 10, scope: !732)
!736 = !DILocation(line: 914, column: 10, scope: !732)
!737 = !DILocation(line: 915, column: 10, scope: !732)
!738 = !DILocation(line: 916, column: 5, scope: !732)
!739 = distinct !DISubprogram(name: "_ZNSt6vectorImSaImEE9push_backERKm", linkageName: "_ZNSt6vectorImSaImEE9push_backERKm", scope: null, file: !4, line: 918, type: !5, scopeLine: 918, spFlags: DISPFlagDefinition | DISPFlagOptimized, unit: !0, retainedNodes: !6)
!740 = !DILocation(line: 920, column: 10, scope: !741)
!741 = !DILexicalBlockFile(scope: !739, file: !4, discriminator: 0)
!742 = !DILocation(line: 921, column: 10, scope: !741)
!743 = !DILocation(line: 922, column: 10, scope: !741)
!744 = !DILocation(line: 923, column: 10, scope: !741)
!745 = !DILocation(line: 924, column: 10, scope: !741)
!746 = !DILocation(line: 925, column: 10, scope: !741)
!747 = !DILocation(line: 926, column: 10, scope: !741)
!748 = !DILocation(line: 927, column: 10, scope: !741)
!749 = !DILocation(line: 928, column: 10, scope: !741)
!750 = !DILocation(line: 929, column: 11, scope: !741)
!751 = !DILocation(line: 930, column: 5, scope: !741)
!752 = !DILocation(line: 934, column: 11, scope: !741)
!753 = !DILocation(line: 935, column: 11, scope: !741)
!754 = !DILocation(line: 936, column: 11, scope: !741)
!755 = !DILocation(line: 937, column: 5, scope: !741)
!756 = !DILocation(line: 938, column: 11, scope: !741)
!757 = !DILocation(line: 939, column: 11, scope: !741)
!758 = !DILocation(line: 940, column: 5, scope: !741)
!759 = !DILocation(line: 941, column: 5, scope: !741)
!760 = !DILocation(line: 943, column: 11, scope: !741)
!761 = !DILocation(line: 944, column: 5, scope: !741)
!762 = !DILocation(line: 945, column: 5, scope: !741)
!763 = !DILocation(line: 946, column: 11, scope: !741)
!764 = !DILocation(line: 947, column: 5, scope: !741)
!765 = !DILocation(line: 948, column: 5, scope: !741)
!766 = !DILocation(line: 950, column: 5, scope: !741)
!767 = distinct !DISubprogram(name: "_ZNSt6vectorIsSaIsEE9push_backERKs", linkageName: "_ZNSt6vectorIsSaIsEE9push_backERKs", scope: null, file: !4, line: 952, type: !5, scopeLine: 952, spFlags: DISPFlagDefinition | DISPFlagOptimized, unit: !0, retainedNodes: !6)
!768 = !DILocation(line: 954, column: 10, scope: !769)
!769 = !DILexicalBlockFile(scope: !767, file: !4, discriminator: 0)
!770 = !DILocation(line: 955, column: 10, scope: !769)
!771 = !DILocation(line: 956, column: 10, scope: !769)
!772 = !DILocation(line: 957, column: 10, scope: !769)
!773 = !DILocation(line: 958, column: 10, scope: !769)
!774 = !DILocation(line: 959, column: 10, scope: !769)
!775 = !DILocation(line: 960, column: 10, scope: !769)
!776 = !DILocation(line: 961, column: 10, scope: !769)
!777 = !DILocation(line: 962, column: 10, scope: !769)
!778 = !DILocation(line: 963, column: 11, scope: !769)
!779 = !DILocation(line: 964, column: 5, scope: !769)
!780 = !DILocation(line: 968, column: 11, scope: !769)
!781 = !DILocation(line: 969, column: 11, scope: !769)
!782 = !DILocation(line: 970, column: 11, scope: !769)
!783 = !DILocation(line: 971, column: 5, scope: !769)
!784 = !DILocation(line: 972, column: 11, scope: !769)
!785 = !DILocation(line: 973, column: 11, scope: !769)
!786 = !DILocation(line: 974, column: 5, scope: !769)
!787 = !DILocation(line: 975, column: 5, scope: !769)
!788 = !DILocation(line: 977, column: 11, scope: !769)
!789 = !DILocation(line: 978, column: 5, scope: !769)
!790 = !DILocation(line: 979, column: 5, scope: !769)
!791 = !DILocation(line: 980, column: 11, scope: !769)
!792 = !DILocation(line: 981, column: 5, scope: !769)
!793 = !DILocation(line: 982, column: 5, scope: !769)
!794 = !DILocation(line: 984, column: 5, scope: !769)
!795 = distinct !DISubprogram(name: "_ZNSt6chrono8durationIlSt5ratioILl1ELl1000000EEEC1ERKS3_", linkageName: "_ZNSt6chrono8durationIlSt5ratioILl1ELl1000000EEEC1ERKS3_", scope: null, file: !4, line: 987, type: !5, scopeLine: 987, spFlags: DISPFlagDefinition | DISPFlagOptimized, unit: !0, retainedNodes: !6)
!796 = !DILocation(line: 988, column: 10, scope: !797)
!797 = !DILexicalBlockFile(scope: !795, file: !4, discriminator: 0)
!798 = !DILocation(line: 989, column: 10, scope: !797)
!799 = !DILocation(line: 990, column: 10, scope: !797)
!800 = !DILocation(line: 991, column: 5, scope: !797)
!801 = !DILocation(line: 992, column: 5, scope: !797)
!802 = distinct !DISubprogram(name: "_ZNSt6chrono20__duration_cast_implINS_8durationIlSt5ratioILl1ELl1000000EEEES2_ILl1ELl1000EElLb1ELb0EE6__castIlS2_ILl1ELl1000000000EEEES4_RKNS1_IT_T0_EE", linkageName: "_ZNSt6chrono20__duration_cast_implINS_8durationIlSt5ratioILl1ELl1000000EEEES2_ILl1ELl1000EElLb1ELb0EE6__castIlS2_ILl1ELl1000000000EEEES4_RKNS1_IT_T0_EE", scope: null, file: !4, line: 994, type: !5, scopeLine: 994, spFlags: DISPFlagDefinition | DISPFlagOptimized, unit: !0, retainedNodes: !6)
!803 = !DILocation(line: 997, column: 10, scope: !804)
!804 = !DILexicalBlockFile(scope: !802, file: !4, discriminator: 0)
!805 = !DILocation(line: 998, column: 10, scope: !804)
!806 = !DILocation(line: 1000, column: 5, scope: !804)
!807 = !DILocation(line: 1001, column: 10, scope: !804)
!808 = !DILocation(line: 1002, column: 10, scope: !804)
!809 = !DILocation(line: 1003, column: 10, scope: !804)
!810 = !DILocation(line: 1004, column: 10, scope: !804)
!811 = !DILocation(line: 1005, column: 5, scope: !804)
!812 = !DILocation(line: 1006, column: 5, scope: !804)
!813 = !DILocation(line: 1007, column: 10, scope: !804)
!814 = !DILocation(line: 1008, column: 5, scope: !804)
!815 = !DILocation(line: 1009, column: 5, scope: !804)
!816 = !DILocation(line: 1010, column: 11, scope: !804)
!817 = !DILocation(line: 1011, column: 5, scope: !804)
!818 = distinct !DISubprogram(name: "_ZNSt6chronomiIlSt5ratioILl1ELl1000000000EElS2_EENSt11common_typeIJNS_8durationIT_T0_EENS4_IT1_T2_EEEE4typeERKS7_RKSA_", linkageName: "_ZNSt6chronomiIlSt5ratioILl1ELl1000000000EElS2_EENSt11common_typeIJNS_8durationIT_T0_EENS4_IT1_T2_EEEE4typeERKS7_RKSA_", scope: null, file: !4, line: 1013, type: !5, scopeLine: 1013, spFlags: DISPFlagDefinition | DISPFlagOptimized, unit: !0, retainedNodes: !6)
!819 = !DILocation(line: 1015, column: 10, scope: !820)
!820 = !DILexicalBlockFile(scope: !818, file: !4, discriminator: 0)
!821 = !DILocation(line: 1016, column: 10, scope: !820)
!822 = !DILocation(line: 1018, column: 5, scope: !820)
!823 = !DILocation(line: 1019, column: 10, scope: !820)
!824 = !DILocation(line: 1020, column: 10, scope: !820)
!825 = !DILocation(line: 1021, column: 10, scope: !820)
!826 = !DILocation(line: 1022, column: 10, scope: !820)
!827 = !DILocation(line: 1023, column: 10, scope: !820)
!828 = !DILocation(line: 1024, column: 10, scope: !820)
!829 = !DILocation(line: 1025, column: 5, scope: !820)
!830 = !DILocation(line: 1026, column: 11, scope: !820)
!831 = !DILocation(line: 1027, column: 5, scope: !820)
!832 = !DILocation(line: 1028, column: 11, scope: !820)
!833 = !DILocation(line: 1029, column: 5, scope: !820)
!834 = !DILocation(line: 1030, column: 11, scope: !820)
!835 = !DILocation(line: 1031, column: 5, scope: !820)
!836 = !DILocation(line: 1032, column: 11, scope: !820)
!837 = !DILocation(line: 1033, column: 11, scope: !820)
!838 = !DILocation(line: 1034, column: 5, scope: !820)
!839 = !DILocation(line: 1035, column: 5, scope: !820)
!840 = !DILocation(line: 1036, column: 11, scope: !820)
!841 = !DILocation(line: 1037, column: 5, scope: !820)
!842 = !DILocation(line: 1038, column: 5, scope: !820)
!843 = !DILocation(line: 1039, column: 11, scope: !820)
!844 = !DILocation(line: 1040, column: 5, scope: !820)
!845 = distinct !DISubprogram(name: "_ZNKSt6chrono10time_pointINS_3_V212steady_clockENS_8durationIlSt5ratioILl1ELl1000000000EEEEE16time_since_epochEv", linkageName: "_ZNKSt6chrono10time_pointINS_3_V212steady_clockENS_8durationIlSt5ratioILl1ELl1000000000EEEEE16time_since_epochEv", scope: null, file: !4, line: 1042, type: !5, scopeLine: 1042, spFlags: DISPFlagDefinition | DISPFlagOptimized, unit: !0, retainedNodes: !6)
!846 = !DILocation(line: 1044, column: 10, scope: !847)
!847 = !DILexicalBlockFile(scope: !845, file: !4, discriminator: 0)
!848 = !DILocation(line: 1045, column: 10, scope: !847)
!849 = !DILocation(line: 1046, column: 5, scope: !847)
!850 = !DILocation(line: 1047, column: 10, scope: !847)
!851 = !DILocation(line: 1048, column: 5, scope: !847)
!852 = distinct !DISubprogram(name: "_ZNSt6chrono8durationIlSt5ratioILl1ELl1000000000EEEC1IlvEERKT_", linkageName: "_ZNSt6chrono8durationIlSt5ratioILl1ELl1000000000EEEC1IlvEERKT_", scope: null, file: !4, line: 1050, type: !5, scopeLine: 1050, spFlags: DISPFlagDefinition | DISPFlagOptimized, unit: !0, retainedNodes: !6)
!853 = !DILocation(line: 1051, column: 10, scope: !854)
!854 = !DILexicalBlockFile(scope: !852, file: !4, discriminator: 0)
!855 = !DILocation(line: 1052, column: 10, scope: !854)
!856 = !DILocation(line: 1053, column: 5, scope: !854)
!857 = !DILocation(line: 1054, column: 5, scope: !854)
!858 = distinct !DISubprogram(name: "_ZNSt6chrono15duration_valuesIlE4zeroEv", linkageName: "_ZNSt6chrono15duration_valuesIlE4zeroEv", scope: null, file: !4, line: 1056, type: !5, scopeLine: 1056, spFlags: DISPFlagDefinition | DISPFlagOptimized, unit: !0, retainedNodes: !6)
!859 = !DILocation(line: 1058, column: 5, scope: !860)
!860 = !DILexicalBlockFile(scope: !858, file: !4, discriminator: 0)
!861 = distinct !DISubprogram(name: "_ZNSt12_Vector_baseImSaImEEC1Ev", linkageName: "_ZNSt12_Vector_baseImSaImEEC1Ev", scope: null, file: !4, line: 1060, type: !5, scopeLine: 1060, spFlags: DISPFlagDefinition | DISPFlagOptimized, unit: !0, retainedNodes: !6)
!862 = !DILocation(line: 1061, column: 10, scope: !863)
!863 = !DILexicalBlockFile(scope: !861, file: !4, discriminator: 0)
!864 = !DILocation(line: 1062, column: 5, scope: !863)
!865 = !DILocation(line: 1063, column: 5, scope: !863)
!866 = distinct !DISubprogram(name: "_ZNKSt6vectorImSaImEE8max_sizeEv", linkageName: "_ZNKSt6vectorImSaImEE8max_sizeEv", scope: null, file: !4, line: 1065, type: !5, scopeLine: 1065, spFlags: DISPFlagDefinition | DISPFlagOptimized, unit: !0, retainedNodes: !6)
!867 = !DILocation(line: 1066, column: 10, scope: !868)
!868 = !DILexicalBlockFile(scope: !866, file: !4, discriminator: 0)
!869 = !DILocation(line: 1067, column: 10, scope: !868)
!870 = !DILocation(line: 1068, column: 10, scope: !868)
!871 = !DILocation(line: 1069, column: 5, scope: !868)
!872 = distinct !DISubprogram(name: "_ZNKSt6vectorImSaImEE8capacityEv", linkageName: "_ZNKSt6vectorImSaImEE8capacityEv", scope: null, file: !4, line: 1072, type: !5, scopeLine: 1072, spFlags: DISPFlagDefinition | DISPFlagOptimized, unit: !0, retainedNodes: !6)
!873 = !DILocation(line: 1074, column: 10, scope: !874)
!874 = !DILexicalBlockFile(scope: !872, file: !4, discriminator: 0)
!875 = !DILocation(line: 1075, column: 10, scope: !874)
!876 = !DILocation(line: 1076, column: 10, scope: !874)
!877 = !DILocation(line: 1077, column: 10, scope: !874)
!878 = !DILocation(line: 1078, column: 10, scope: !874)
!879 = !DILocation(line: 1079, column: 10, scope: !874)
!880 = !DILocation(line: 1080, column: 10, scope: !874)
!881 = !DILocation(line: 1081, column: 10, scope: !874)
!882 = !DILocation(line: 1082, column: 10, scope: !874)
!883 = !DILocation(line: 1083, column: 11, scope: !874)
!884 = !DILocation(line: 1084, column: 11, scope: !874)
!885 = !DILocation(line: 1085, column: 5, scope: !874)
!886 = distinct !DISubprogram(name: "_ZNSt6vectorImSaImEE15_S_use_relocateEv", linkageName: "_ZNSt6vectorImSaImEE15_S_use_relocateEv", scope: null, file: !4, line: 1087, type: !5, scopeLine: 1087, spFlags: DISPFlagDefinition | DISPFlagOptimized, unit: !0, retainedNodes: !6)
!887 = !DILocation(line: 1092, column: 10, scope: !888)
!888 = !DILexicalBlockFile(scope: !886, file: !4, discriminator: 0)
!889 = !DILocation(line: 1094, column: 5, scope: !888)
!890 = !DILocation(line: 1095, column: 5, scope: !888)
!891 = distinct !DISubprogram(name: "_ZNSt12_Vector_baseImSaImEE11_M_allocateEm", linkageName: "_ZNSt12_Vector_baseImSaImEE11_M_allocateEm", scope: null, file: !4, line: 1097, type: !5, scopeLine: 1097, spFlags: DISPFlagDefinition | DISPFlagOptimized, unit: !0, retainedNodes: !6)
!892 = !DILocation(line: 1099, column: 10, scope: !893)
!893 = !DILexicalBlockFile(scope: !891, file: !4, discriminator: 0)
!894 = !DILocation(line: 1100, column: 5, scope: !893)
!895 = !DILocation(line: 1102, column: 10, scope: !893)
!896 = !DILocation(line: 1105, column: 10, scope: !893)
!897 = !DILocation(line: 1106, column: 10, scope: !893)
!898 = !DILocation(line: 1107, column: 10, scope: !893)
!899 = !DILocation(line: 1108, column: 5, scope: !893)
!900 = !DILocation(line: 1111, column: 5, scope: !893)
!901 = !DILocation(line: 1113, column: 5, scope: !893)
!902 = !DILocation(line: 1115, column: 5, scope: !893)
!903 = distinct !DISubprogram(name: "_ZNSt6vectorImSaImEE11_S_relocateEPmS2_S2_RS0_", linkageName: "_ZNSt6vectorImSaImEE11_S_relocateEPmS2_S2_RS0_", scope: null, file: !4, line: 1117, type: !5, scopeLine: 1117, spFlags: DISPFlagDefinition | DISPFlagOptimized, unit: !0, retainedNodes: !6)
!904 = !DILocation(line: 1118, column: 10, scope: !905)
!905 = !DILexicalBlockFile(scope: !903, file: !4, discriminator: 0)
!906 = !DILocation(line: 1119, column: 5, scope: !905)
!907 = distinct !DISubprogram(name: "_ZNSt12_Vector_baseImSaImEE19_M_get_Tp_allocatorEv", linkageName: "_ZNSt12_Vector_baseImSaImEE19_M_get_Tp_allocatorEv", scope: null, file: !4, line: 1121, type: !5, scopeLine: 1121, spFlags: DISPFlagDefinition | DISPFlagOptimized, unit: !0, retainedNodes: !6)
!908 = !DILocation(line: 1122, column: 10, scope: !909)
!909 = !DILexicalBlockFile(scope: !907, file: !4, discriminator: 0)
!910 = !DILocation(line: 1125, column: 10, scope: !909)
!911 = !DILocation(line: 1126, column: 10, scope: !909)
!912 = !DILocation(line: 1127, column: 5, scope: !909)
!913 = distinct !DISubprogram(name: "_ZNSt6vectorImSaImEE20_M_allocate_and_copyISt13move_iteratorIPmEEES4_mT_S6_", linkageName: "_ZNSt6vectorImSaImEE20_M_allocate_and_copyISt13move_iteratorIPmEEES4_mT_S6_", scope: null, file: !4, line: 1129, type: !5, scopeLine: 1129, spFlags: DISPFlagDefinition | DISPFlagOptimized, unit: !0, retainedNodes: !6)
!914 = !DILocation(line: 1131, column: 10, scope: !915)
!915 = !DILexicalBlockFile(scope: !913, file: !4, discriminator: 0)
!916 = !DILocation(line: 1132, column: 10, scope: !915)
!917 = !DILocation(line: 1133, column: 10, scope: !915)
!918 = !DILocation(line: 1134, column: 10, scope: !915)
!919 = !DILocation(line: 1135, column: 5, scope: !915)
!920 = !DILocation(line: 1136, column: 5, scope: !915)
!921 = !DILocation(line: 1137, column: 10, scope: !915)
!922 = !DILocation(line: 1138, column: 10, scope: !915)
!923 = !DILocation(line: 1139, column: 5, scope: !915)
!924 = !DILocation(line: 1140, column: 5, scope: !915)
!925 = !DILocation(line: 1141, column: 10, scope: !915)
!926 = !DILocation(line: 1142, column: 10, scope: !915)
!927 = !DILocation(line: 1143, column: 10, scope: !915)
!928 = !DILocation(line: 1144, column: 11, scope: !915)
!929 = !DILocation(line: 1145, column: 5, scope: !915)
!930 = distinct !DISubprogram(name: "_ZNSt13move_iteratorIPmEC1EOS1_", linkageName: "_ZNSt13move_iteratorIPmEC1EOS1_", scope: null, file: !4, line: 1147, type: !5, scopeLine: 1147, spFlags: DISPFlagDefinition | DISPFlagOptimized, unit: !0, retainedNodes: !6)
!931 = !DILocation(line: 1148, column: 10, scope: !932)
!932 = !DILexicalBlockFile(scope: !930, file: !4, discriminator: 0)
!933 = !DILocation(line: 1149, column: 10, scope: !932)
!934 = !DILocation(line: 1150, column: 10, scope: !932)
!935 = !DILocation(line: 1151, column: 5, scope: !932)
!936 = !DILocation(line: 1152, column: 5, scope: !932)
!937 = distinct !DISubprogram(name: "_ZSt32__make_move_if_noexcept_iteratorImSt13move_iteratorIPmEET0_PT_", linkageName: "_ZSt32__make_move_if_noexcept_iteratorImSt13move_iteratorIPmEET0_PT_", scope: null, file: !4, line: 1154, type: !5, scopeLine: 1154, spFlags: DISPFlagDefinition | DISPFlagOptimized, unit: !0, retainedNodes: !6)
!938 = !DILocation(line: 1156, column: 10, scope: !939)
!939 = !DILexicalBlockFile(scope: !937, file: !4, discriminator: 0)
!940 = !DILocation(line: 1157, column: 10, scope: !939)
!941 = !DILocation(line: 1158, column: 10, scope: !939)
!942 = !DILocation(line: 1159, column: 5, scope: !939)
!943 = !DILocation(line: 1160, column: 10, scope: !939)
!944 = !DILocation(line: 1161, column: 5, scope: !939)
!945 = !DILocation(line: 1162, column: 5, scope: !939)
!946 = !DILocation(line: 1163, column: 10, scope: !939)
!947 = !DILocation(line: 1164, column: 5, scope: !939)
!948 = distinct !DISubprogram(name: "_ZSt8_DestroyIPmmEvT_S1_RSaIT0_E", linkageName: "_ZSt8_DestroyIPmmEvT_S1_RSaIT0_E", scope: null, file: !4, line: 1166, type: !5, scopeLine: 1166, spFlags: DISPFlagDefinition | DISPFlagOptimized, unit: !0, retainedNodes: !6)
!949 = !DILocation(line: 1167, column: 5, scope: !950)
!950 = !DILexicalBlockFile(scope: !948, file: !4, discriminator: 0)
!951 = distinct !DISubprogram(name: "_ZNSt12_Vector_baseImSaImEE13_M_deallocateEPmm", linkageName: "_ZNSt12_Vector_baseImSaImEE13_M_deallocateEPmm", scope: null, file: !4, line: 1169, type: !5, scopeLine: 1169, spFlags: DISPFlagDefinition | DISPFlagOptimized, unit: !0, retainedNodes: !6)
!952 = !DILocation(line: 1171, column: 10, scope: !953)
!953 = !DILexicalBlockFile(scope: !951, file: !4, discriminator: 0)
!954 = !DILocation(line: 1172, column: 5, scope: !953)
!955 = !DILocation(line: 1174, column: 10, scope: !953)
!956 = !DILocation(line: 1177, column: 10, scope: !953)
!957 = !DILocation(line: 1178, column: 10, scope: !953)
!958 = !DILocation(line: 1179, column: 5, scope: !953)
!959 = !DILocation(line: 1180, column: 5, scope: !953)
!960 = !DILocation(line: 1182, column: 5, scope: !953)
!961 = distinct !DISubprogram(name: "_ZNSt12_Vector_baseIsSaIsEEC1Ev", linkageName: "_ZNSt12_Vector_baseIsSaIsEEC1Ev", scope: null, file: !4, line: 1184, type: !5, scopeLine: 1184, spFlags: DISPFlagDefinition | DISPFlagOptimized, unit: !0, retainedNodes: !6)
!962 = !DILocation(line: 1185, column: 10, scope: !963)
!963 = !DILexicalBlockFile(scope: !961, file: !4, discriminator: 0)
!964 = !DILocation(line: 1186, column: 5, scope: !963)
!965 = !DILocation(line: 1187, column: 5, scope: !963)
!966 = distinct !DISubprogram(name: "_ZNKSt6vectorIsSaIsEE8max_sizeEv", linkageName: "_ZNKSt6vectorIsSaIsEE8max_sizeEv", scope: null, file: !4, line: 1189, type: !5, scopeLine: 1189, spFlags: DISPFlagDefinition | DISPFlagOptimized, unit: !0, retainedNodes: !6)
!967 = !DILocation(line: 1190, column: 10, scope: !968)
!968 = !DILexicalBlockFile(scope: !966, file: !4, discriminator: 0)
!969 = !DILocation(line: 1191, column: 10, scope: !968)
!970 = !DILocation(line: 1192, column: 10, scope: !968)
!971 = !DILocation(line: 1193, column: 5, scope: !968)
!972 = distinct !DISubprogram(name: "_ZNKSt6vectorIsSaIsEE8capacityEv", linkageName: "_ZNKSt6vectorIsSaIsEE8capacityEv", scope: null, file: !4, line: 1195, type: !5, scopeLine: 1195, spFlags: DISPFlagDefinition | DISPFlagOptimized, unit: !0, retainedNodes: !6)
!973 = !DILocation(line: 1197, column: 10, scope: !974)
!974 = !DILexicalBlockFile(scope: !972, file: !4, discriminator: 0)
!975 = !DILocation(line: 1198, column: 10, scope: !974)
!976 = !DILocation(line: 1199, column: 10, scope: !974)
!977 = !DILocation(line: 1200, column: 10, scope: !974)
!978 = !DILocation(line: 1201, column: 10, scope: !974)
!979 = !DILocation(line: 1202, column: 10, scope: !974)
!980 = !DILocation(line: 1203, column: 10, scope: !974)
!981 = !DILocation(line: 1204, column: 10, scope: !974)
!982 = !DILocation(line: 1205, column: 10, scope: !974)
!983 = !DILocation(line: 1206, column: 11, scope: !974)
!984 = !DILocation(line: 1207, column: 11, scope: !974)
!985 = !DILocation(line: 1208, column: 5, scope: !974)
!986 = distinct !DISubprogram(name: "_ZNKSt6vectorIsSaIsEE4sizeEv", linkageName: "_ZNKSt6vectorIsSaIsEE4sizeEv", scope: null, file: !4, line: 1210, type: !5, scopeLine: 1210, spFlags: DISPFlagDefinition | DISPFlagOptimized, unit: !0, retainedNodes: !6)
!987 = !DILocation(line: 1212, column: 10, scope: !988)
!988 = !DILexicalBlockFile(scope: !986, file: !4, discriminator: 0)
!989 = !DILocation(line: 1213, column: 10, scope: !988)
!990 = !DILocation(line: 1214, column: 10, scope: !988)
!991 = !DILocation(line: 1215, column: 10, scope: !988)
!992 = !DILocation(line: 1216, column: 10, scope: !988)
!993 = !DILocation(line: 1217, column: 10, scope: !988)
!994 = !DILocation(line: 1218, column: 10, scope: !988)
!995 = !DILocation(line: 1219, column: 10, scope: !988)
!996 = !DILocation(line: 1220, column: 10, scope: !988)
!997 = !DILocation(line: 1221, column: 11, scope: !988)
!998 = !DILocation(line: 1222, column: 11, scope: !988)
!999 = !DILocation(line: 1223, column: 5, scope: !988)
!1000 = distinct !DISubprogram(name: "_ZNSt6vectorIsSaIsEE15_S_use_relocateEv", linkageName: "_ZNSt6vectorIsSaIsEE15_S_use_relocateEv", scope: null, file: !4, line: 1225, type: !5, scopeLine: 1225, spFlags: DISPFlagDefinition | DISPFlagOptimized, unit: !0, retainedNodes: !6)
!1001 = !DILocation(line: 1230, column: 10, scope: !1002)
!1002 = !DILexicalBlockFile(scope: !1000, file: !4, discriminator: 0)
!1003 = !DILocation(line: 1232, column: 5, scope: !1002)
!1004 = !DILocation(line: 1233, column: 5, scope: !1002)
!1005 = distinct !DISubprogram(name: "_ZNSt12_Vector_baseIsSaIsEE11_M_allocateEm", linkageName: "_ZNSt12_Vector_baseIsSaIsEE11_M_allocateEm", scope: null, file: !4, line: 1235, type: !5, scopeLine: 1235, spFlags: DISPFlagDefinition | DISPFlagOptimized, unit: !0, retainedNodes: !6)
!1006 = !DILocation(line: 1237, column: 10, scope: !1007)
!1007 = !DILexicalBlockFile(scope: !1005, file: !4, discriminator: 0)
!1008 = !DILocation(line: 1238, column: 5, scope: !1007)
!1009 = !DILocation(line: 1240, column: 10, scope: !1007)
!1010 = !DILocation(line: 1243, column: 10, scope: !1007)
!1011 = !DILocation(line: 1244, column: 10, scope: !1007)
!1012 = !DILocation(line: 1245, column: 10, scope: !1007)
!1013 = !DILocation(line: 1246, column: 5, scope: !1007)
!1014 = !DILocation(line: 1249, column: 5, scope: !1007)
!1015 = !DILocation(line: 1251, column: 5, scope: !1007)
!1016 = !DILocation(line: 1253, column: 5, scope: !1007)
!1017 = distinct !DISubprogram(name: "_ZNSt6vectorIsSaIsEE11_S_relocateEPsS2_S2_RS0_", linkageName: "_ZNSt6vectorIsSaIsEE11_S_relocateEPsS2_S2_RS0_", scope: null, file: !4, line: 1255, type: !5, scopeLine: 1255, spFlags: DISPFlagDefinition | DISPFlagOptimized, unit: !0, retainedNodes: !6)
!1018 = !DILocation(line: 1256, column: 10, scope: !1019)
!1019 = !DILexicalBlockFile(scope: !1017, file: !4, discriminator: 0)
!1020 = !DILocation(line: 1257, column: 5, scope: !1019)
!1021 = distinct !DISubprogram(name: "_ZNSt12_Vector_baseIsSaIsEE19_M_get_Tp_allocatorEv", linkageName: "_ZNSt12_Vector_baseIsSaIsEE19_M_get_Tp_allocatorEv", scope: null, file: !4, line: 1259, type: !5, scopeLine: 1259, spFlags: DISPFlagDefinition | DISPFlagOptimized, unit: !0, retainedNodes: !6)
!1022 = !DILocation(line: 1260, column: 10, scope: !1023)
!1023 = !DILexicalBlockFile(scope: !1021, file: !4, discriminator: 0)
!1024 = !DILocation(line: 1263, column: 10, scope: !1023)
!1025 = !DILocation(line: 1264, column: 10, scope: !1023)
!1026 = !DILocation(line: 1265, column: 5, scope: !1023)
!1027 = distinct !DISubprogram(name: "_ZNSt6vectorIsSaIsEE20_M_allocate_and_copyISt13move_iteratorIPsEEES4_mT_S6_", linkageName: "_ZNSt6vectorIsSaIsEE20_M_allocate_and_copyISt13move_iteratorIPsEEES4_mT_S6_", scope: null, file: !4, line: 1267, type: !5, scopeLine: 1267, spFlags: DISPFlagDefinition | DISPFlagOptimized, unit: !0, retainedNodes: !6)
!1028 = !DILocation(line: 1269, column: 10, scope: !1029)
!1029 = !DILexicalBlockFile(scope: !1027, file: !4, discriminator: 0)
!1030 = !DILocation(line: 1270, column: 10, scope: !1029)
!1031 = !DILocation(line: 1271, column: 10, scope: !1029)
!1032 = !DILocation(line: 1272, column: 10, scope: !1029)
!1033 = !DILocation(line: 1273, column: 5, scope: !1029)
!1034 = !DILocation(line: 1274, column: 5, scope: !1029)
!1035 = !DILocation(line: 1275, column: 10, scope: !1029)
!1036 = !DILocation(line: 1276, column: 10, scope: !1029)
!1037 = !DILocation(line: 1277, column: 5, scope: !1029)
!1038 = !DILocation(line: 1278, column: 5, scope: !1029)
!1039 = !DILocation(line: 1279, column: 10, scope: !1029)
!1040 = !DILocation(line: 1280, column: 10, scope: !1029)
!1041 = !DILocation(line: 1281, column: 10, scope: !1029)
!1042 = !DILocation(line: 1282, column: 11, scope: !1029)
!1043 = !DILocation(line: 1283, column: 5, scope: !1029)
!1044 = distinct !DISubprogram(name: "_ZNSt13move_iteratorIPsEC1EOS1_", linkageName: "_ZNSt13move_iteratorIPsEC1EOS1_", scope: null, file: !4, line: 1285, type: !5, scopeLine: 1285, spFlags: DISPFlagDefinition | DISPFlagOptimized, unit: !0, retainedNodes: !6)
!1045 = !DILocation(line: 1286, column: 10, scope: !1046)
!1046 = !DILexicalBlockFile(scope: !1044, file: !4, discriminator: 0)
!1047 = !DILocation(line: 1287, column: 10, scope: !1046)
!1048 = !DILocation(line: 1288, column: 10, scope: !1046)
!1049 = !DILocation(line: 1289, column: 5, scope: !1046)
!1050 = !DILocation(line: 1290, column: 5, scope: !1046)
!1051 = distinct !DISubprogram(name: "_ZSt32__make_move_if_noexcept_iteratorIsSt13move_iteratorIPsEET0_PT_", linkageName: "_ZSt32__make_move_if_noexcept_iteratorIsSt13move_iteratorIPsEET0_PT_", scope: null, file: !4, line: 1292, type: !5, scopeLine: 1292, spFlags: DISPFlagDefinition | DISPFlagOptimized, unit: !0, retainedNodes: !6)
!1052 = !DILocation(line: 1294, column: 10, scope: !1053)
!1053 = !DILexicalBlockFile(scope: !1051, file: !4, discriminator: 0)
!1054 = !DILocation(line: 1295, column: 10, scope: !1053)
!1055 = !DILocation(line: 1296, column: 10, scope: !1053)
!1056 = !DILocation(line: 1297, column: 5, scope: !1053)
!1057 = !DILocation(line: 1298, column: 10, scope: !1053)
!1058 = !DILocation(line: 1299, column: 5, scope: !1053)
!1059 = !DILocation(line: 1300, column: 5, scope: !1053)
!1060 = !DILocation(line: 1301, column: 10, scope: !1053)
!1061 = !DILocation(line: 1302, column: 5, scope: !1053)
!1062 = distinct !DISubprogram(name: "_ZSt8_DestroyIPssEvT_S1_RSaIT0_E", linkageName: "_ZSt8_DestroyIPssEvT_S1_RSaIT0_E", scope: null, file: !4, line: 1304, type: !5, scopeLine: 1304, spFlags: DISPFlagDefinition | DISPFlagOptimized, unit: !0, retainedNodes: !6)
!1063 = !DILocation(line: 1305, column: 5, scope: !1064)
!1064 = !DILexicalBlockFile(scope: !1062, file: !4, discriminator: 0)
!1065 = distinct !DISubprogram(name: "_ZNSt12_Vector_baseIsSaIsEE13_M_deallocateEPsm", linkageName: "_ZNSt12_Vector_baseIsSaIsEE13_M_deallocateEPsm", scope: null, file: !4, line: 1307, type: !5, scopeLine: 1307, spFlags: DISPFlagDefinition | DISPFlagOptimized, unit: !0, retainedNodes: !6)
!1066 = !DILocation(line: 1309, column: 10, scope: !1067)
!1067 = !DILexicalBlockFile(scope: !1065, file: !4, discriminator: 0)
!1068 = !DILocation(line: 1310, column: 5, scope: !1067)
!1069 = !DILocation(line: 1312, column: 10, scope: !1067)
!1070 = !DILocation(line: 1315, column: 10, scope: !1067)
!1071 = !DILocation(line: 1316, column: 10, scope: !1067)
!1072 = !DILocation(line: 1317, column: 5, scope: !1067)
!1073 = !DILocation(line: 1318, column: 5, scope: !1067)
!1074 = !DILocation(line: 1320, column: 5, scope: !1067)
!1075 = distinct !DISubprogram(name: "_ZNSt16allocator_traitsISaImEE9constructImJRKmEEEvRS0_PT_DpOT0_", linkageName: "_ZNSt16allocator_traitsISaImEE9constructImJRKmEEEvRS0_PT_DpOT0_", scope: null, file: !4, line: 1322, type: !5, scopeLine: 1322, spFlags: DISPFlagDefinition | DISPFlagOptimized, unit: !0, retainedNodes: !6)
!1076 = !DILocation(line: 1324, column: 5, scope: !1077)
!1077 = !DILexicalBlockFile(scope: !1075, file: !4, discriminator: 0)
!1078 = !DILocation(line: 1325, column: 5, scope: !1077)
!1079 = distinct !DISubprogram(name: "_ZNSt6vectorImSaImEE17_M_realloc_insertIJRKmEEEvN9__gnu_cxx17__normal_iteratorIPmS1_EEDpOT_", linkageName: "_ZNSt6vectorImSaImEE17_M_realloc_insertIJRKmEEEvN9__gnu_cxx17__normal_iteratorIPmS1_EEDpOT_", scope: null, file: !4, line: 1327, type: !5, scopeLine: 1327, spFlags: DISPFlagDefinition | DISPFlagOptimized, unit: !0, retainedNodes: !6)
!1080 = !DILocation(line: 1331, column: 10, scope: !1081)
!1081 = !DILexicalBlockFile(scope: !1079, file: !4, discriminator: 0)
!1082 = !DILocation(line: 1332, column: 10, scope: !1081)
!1083 = !DILocation(line: 1333, column: 5, scope: !1081)
!1084 = !DILocation(line: 1336, column: 10, scope: !1081)
!1085 = !DILocation(line: 1337, column: 10, scope: !1081)
!1086 = !DILocation(line: 1338, column: 10, scope: !1081)
!1087 = !DILocation(line: 1339, column: 11, scope: !1081)
!1088 = !DILocation(line: 1340, column: 11, scope: !1081)
!1089 = !DILocation(line: 1341, column: 11, scope: !1081)
!1090 = !DILocation(line: 1342, column: 11, scope: !1081)
!1091 = !DILocation(line: 1343, column: 11, scope: !1081)
!1092 = !DILocation(line: 1344, column: 11, scope: !1081)
!1093 = !DILocation(line: 1345, column: 5, scope: !1081)
!1094 = !DILocation(line: 1346, column: 11, scope: !1081)
!1095 = !DILocation(line: 1347, column: 11, scope: !1081)
!1096 = !DILocation(line: 1350, column: 11, scope: !1081)
!1097 = !DILocation(line: 1351, column: 11, scope: !1081)
!1098 = !DILocation(line: 1352, column: 11, scope: !1081)
!1099 = !DILocation(line: 1353, column: 5, scope: !1081)
!1100 = !DILocation(line: 1354, column: 11, scope: !1081)
!1101 = !DILocation(line: 1355, column: 11, scope: !1081)
!1102 = !DILocation(line: 1356, column: 5, scope: !1081)
!1103 = !DILocation(line: 1358, column: 11, scope: !1081)
!1104 = !DILocation(line: 1359, column: 11, scope: !1081)
!1105 = !DILocation(line: 1360, column: 11, scope: !1081)
!1106 = !DILocation(line: 1361, column: 11, scope: !1081)
!1107 = !DILocation(line: 1362, column: 11, scope: !1081)
!1108 = !DILocation(line: 1363, column: 11, scope: !1081)
!1109 = !DILocation(line: 1364, column: 11, scope: !1081)
!1110 = !DILocation(line: 1365, column: 11, scope: !1081)
!1111 = !DILocation(line: 1366, column: 11, scope: !1081)
!1112 = !DILocation(line: 1367, column: 5, scope: !1081)
!1113 = !DILocation(line: 1369, column: 11, scope: !1081)
!1114 = !DILocation(line: 1370, column: 11, scope: !1081)
!1115 = !DILocation(line: 1371, column: 11, scope: !1081)
!1116 = !DILocation(line: 1372, column: 11, scope: !1081)
!1117 = !DILocation(line: 1373, column: 11, scope: !1081)
!1118 = !DILocation(line: 1374, column: 11, scope: !1081)
!1119 = !DILocation(line: 1375, column: 11, scope: !1081)
!1120 = !DILocation(line: 1376, column: 11, scope: !1081)
!1121 = !DILocation(line: 1377, column: 11, scope: !1081)
!1122 = !DILocation(line: 1378, column: 5, scope: !1081)
!1123 = !DILocation(line: 1380, column: 5, scope: !1081)
!1124 = !DILocation(line: 1382, column: 11, scope: !1081)
!1125 = !DILocation(line: 1383, column: 11, scope: !1081)
!1126 = !DILocation(line: 1384, column: 5, scope: !1081)
!1127 = !DILocation(line: 1386, column: 11, scope: !1081)
!1128 = !DILocation(line: 1387, column: 5, scope: !1081)
!1129 = !DILocation(line: 1389, column: 11, scope: !1081)
!1130 = !DILocation(line: 1390, column: 11, scope: !1081)
!1131 = !DILocation(line: 1391, column: 11, scope: !1081)
!1132 = !DILocation(line: 1392, column: 11, scope: !1081)
!1133 = !DILocation(line: 1393, column: 11, scope: !1081)
!1134 = !DILocation(line: 1394, column: 11, scope: !1081)
!1135 = !DILocation(line: 1395, column: 5, scope: !1081)
!1136 = !DILocation(line: 1396, column: 5, scope: !1081)
!1137 = !DILocation(line: 1397, column: 5, scope: !1081)
!1138 = !DILocation(line: 1398, column: 11, scope: !1081)
!1139 = !DILocation(line: 1399, column: 5, scope: !1081)
!1140 = !DILocation(line: 1400, column: 5, scope: !1081)
!1141 = distinct !DISubprogram(name: "_ZN9__gnu_cxx17__normal_iteratorIPmSt6vectorImSaImEEEC1EOS5_", linkageName: "_ZN9__gnu_cxx17__normal_iteratorIPmSt6vectorImSaImEEEC1EOS5_", scope: null, file: !4, line: 1402, type: !5, scopeLine: 1402, spFlags: DISPFlagDefinition | DISPFlagOptimized, unit: !0, retainedNodes: !6)
!1142 = !DILocation(line: 1403, column: 10, scope: !1143)
!1143 = !DILexicalBlockFile(scope: !1141, file: !4, discriminator: 0)
!1144 = !DILocation(line: 1404, column: 10, scope: !1143)
!1145 = !DILocation(line: 1405, column: 10, scope: !1143)
!1146 = !DILocation(line: 1406, column: 5, scope: !1143)
!1147 = !DILocation(line: 1407, column: 5, scope: !1143)
!1148 = distinct !DISubprogram(name: "_ZNSt6vectorImSaImEE3endEv", linkageName: "_ZNSt6vectorImSaImEE3endEv", scope: null, file: !4, line: 1409, type: !5, scopeLine: 1409, spFlags: DISPFlagDefinition | DISPFlagOptimized, unit: !0, retainedNodes: !6)
!1149 = !DILocation(line: 1411, column: 10, scope: !1150)
!1150 = !DILexicalBlockFile(scope: !1148, file: !4, discriminator: 0)
!1151 = !DILocation(line: 1412, column: 10, scope: !1150)
!1152 = !DILocation(line: 1413, column: 10, scope: !1150)
!1153 = !DILocation(line: 1414, column: 10, scope: !1150)
!1154 = !DILocation(line: 1415, column: 10, scope: !1150)
!1155 = !DILocation(line: 1416, column: 10, scope: !1150)
!1156 = !DILocation(line: 1417, column: 10, scope: !1150)
!1157 = !DILocation(line: 1418, column: 5, scope: !1150)
!1158 = !DILocation(line: 1419, column: 10, scope: !1150)
!1159 = !DILocation(line: 1420, column: 5, scope: !1150)
!1160 = !DILocation(line: 1421, column: 5, scope: !1150)
!1161 = !DILocation(line: 1422, column: 10, scope: !1150)
!1162 = !DILocation(line: 1423, column: 5, scope: !1150)
!1163 = distinct !DISubprogram(name: "_ZNSt16allocator_traitsISaIsEE9constructIsJRKsEEEvRS0_PT_DpOT0_", linkageName: "_ZNSt16allocator_traitsISaIsEE9constructIsJRKsEEEvRS0_PT_DpOT0_", scope: null, file: !4, line: 1425, type: !5, scopeLine: 1425, spFlags: DISPFlagDefinition | DISPFlagOptimized, unit: !0, retainedNodes: !6)
!1164 = !DILocation(line: 1427, column: 5, scope: !1165)
!1165 = !DILexicalBlockFile(scope: !1163, file: !4, discriminator: 0)
!1166 = !DILocation(line: 1428, column: 5, scope: !1165)
!1167 = distinct !DISubprogram(name: "_ZNSt6vectorIsSaIsEE17_M_realloc_insertIJRKsEEEvN9__gnu_cxx17__normal_iteratorIPsS1_EEDpOT_", linkageName: "_ZNSt6vectorIsSaIsEE17_M_realloc_insertIJRKsEEEvN9__gnu_cxx17__normal_iteratorIPsS1_EEDpOT_", scope: null, file: !4, line: 1430, type: !5, scopeLine: 1430, spFlags: DISPFlagDefinition | DISPFlagOptimized, unit: !0, retainedNodes: !6)
!1168 = !DILocation(line: 1434, column: 10, scope: !1169)
!1169 = !DILexicalBlockFile(scope: !1167, file: !4, discriminator: 0)
!1170 = !DILocation(line: 1435, column: 10, scope: !1169)
!1171 = !DILocation(line: 1436, column: 5, scope: !1169)
!1172 = !DILocation(line: 1439, column: 10, scope: !1169)
!1173 = !DILocation(line: 1440, column: 10, scope: !1169)
!1174 = !DILocation(line: 1441, column: 10, scope: !1169)
!1175 = !DILocation(line: 1442, column: 11, scope: !1169)
!1176 = !DILocation(line: 1443, column: 11, scope: !1169)
!1177 = !DILocation(line: 1444, column: 11, scope: !1169)
!1178 = !DILocation(line: 1445, column: 11, scope: !1169)
!1179 = !DILocation(line: 1446, column: 11, scope: !1169)
!1180 = !DILocation(line: 1447, column: 11, scope: !1169)
!1181 = !DILocation(line: 1448, column: 5, scope: !1169)
!1182 = !DILocation(line: 1449, column: 11, scope: !1169)
!1183 = !DILocation(line: 1450, column: 11, scope: !1169)
!1184 = !DILocation(line: 1453, column: 11, scope: !1169)
!1185 = !DILocation(line: 1454, column: 11, scope: !1169)
!1186 = !DILocation(line: 1455, column: 11, scope: !1169)
!1187 = !DILocation(line: 1456, column: 5, scope: !1169)
!1188 = !DILocation(line: 1457, column: 11, scope: !1169)
!1189 = !DILocation(line: 1458, column: 11, scope: !1169)
!1190 = !DILocation(line: 1459, column: 5, scope: !1169)
!1191 = !DILocation(line: 1461, column: 11, scope: !1169)
!1192 = !DILocation(line: 1462, column: 11, scope: !1169)
!1193 = !DILocation(line: 1463, column: 11, scope: !1169)
!1194 = !DILocation(line: 1464, column: 11, scope: !1169)
!1195 = !DILocation(line: 1465, column: 11, scope: !1169)
!1196 = !DILocation(line: 1466, column: 11, scope: !1169)
!1197 = !DILocation(line: 1467, column: 11, scope: !1169)
!1198 = !DILocation(line: 1468, column: 11, scope: !1169)
!1199 = !DILocation(line: 1469, column: 11, scope: !1169)
!1200 = !DILocation(line: 1470, column: 5, scope: !1169)
!1201 = !DILocation(line: 1472, column: 11, scope: !1169)
!1202 = !DILocation(line: 1473, column: 11, scope: !1169)
!1203 = !DILocation(line: 1474, column: 11, scope: !1169)
!1204 = !DILocation(line: 1475, column: 11, scope: !1169)
!1205 = !DILocation(line: 1476, column: 11, scope: !1169)
!1206 = !DILocation(line: 1477, column: 11, scope: !1169)
!1207 = !DILocation(line: 1478, column: 11, scope: !1169)
!1208 = !DILocation(line: 1479, column: 11, scope: !1169)
!1209 = !DILocation(line: 1480, column: 11, scope: !1169)
!1210 = !DILocation(line: 1481, column: 5, scope: !1169)
!1211 = !DILocation(line: 1483, column: 5, scope: !1169)
!1212 = !DILocation(line: 1485, column: 11, scope: !1169)
!1213 = !DILocation(line: 1486, column: 11, scope: !1169)
!1214 = !DILocation(line: 1487, column: 5, scope: !1169)
!1215 = !DILocation(line: 1489, column: 11, scope: !1169)
!1216 = !DILocation(line: 1490, column: 5, scope: !1169)
!1217 = !DILocation(line: 1492, column: 11, scope: !1169)
!1218 = !DILocation(line: 1493, column: 11, scope: !1169)
!1219 = !DILocation(line: 1494, column: 11, scope: !1169)
!1220 = !DILocation(line: 1495, column: 11, scope: !1169)
!1221 = !DILocation(line: 1496, column: 11, scope: !1169)
!1222 = !DILocation(line: 1497, column: 11, scope: !1169)
!1223 = !DILocation(line: 1498, column: 5, scope: !1169)
!1224 = !DILocation(line: 1499, column: 5, scope: !1169)
!1225 = !DILocation(line: 1500, column: 5, scope: !1169)
!1226 = !DILocation(line: 1501, column: 11, scope: !1169)
!1227 = !DILocation(line: 1502, column: 5, scope: !1169)
!1228 = !DILocation(line: 1503, column: 5, scope: !1169)
!1229 = distinct !DISubprogram(name: "_ZN9__gnu_cxx17__normal_iteratorIPsSt6vectorIsSaIsEEEC1EOS5_", linkageName: "_ZN9__gnu_cxx17__normal_iteratorIPsSt6vectorIsSaIsEEEC1EOS5_", scope: null, file: !4, line: 1505, type: !5, scopeLine: 1505, spFlags: DISPFlagDefinition | DISPFlagOptimized, unit: !0, retainedNodes: !6)
!1230 = !DILocation(line: 1506, column: 10, scope: !1231)
!1231 = !DILexicalBlockFile(scope: !1229, file: !4, discriminator: 0)
!1232 = !DILocation(line: 1507, column: 10, scope: !1231)
!1233 = !DILocation(line: 1508, column: 10, scope: !1231)
!1234 = !DILocation(line: 1509, column: 5, scope: !1231)
!1235 = !DILocation(line: 1510, column: 5, scope: !1231)
!1236 = distinct !DISubprogram(name: "_ZNSt6vectorIsSaIsEE3endEv", linkageName: "_ZNSt6vectorIsSaIsEE3endEv", scope: null, file: !4, line: 1512, type: !5, scopeLine: 1512, spFlags: DISPFlagDefinition | DISPFlagOptimized, unit: !0, retainedNodes: !6)
!1237 = !DILocation(line: 1514, column: 10, scope: !1238)
!1238 = !DILexicalBlockFile(scope: !1236, file: !4, discriminator: 0)
!1239 = !DILocation(line: 1515, column: 10, scope: !1238)
!1240 = !DILocation(line: 1516, column: 10, scope: !1238)
!1241 = !DILocation(line: 1517, column: 10, scope: !1238)
!1242 = !DILocation(line: 1518, column: 10, scope: !1238)
!1243 = !DILocation(line: 1519, column: 10, scope: !1238)
!1244 = !DILocation(line: 1520, column: 10, scope: !1238)
!1245 = !DILocation(line: 1521, column: 5, scope: !1238)
!1246 = !DILocation(line: 1522, column: 10, scope: !1238)
!1247 = !DILocation(line: 1523, column: 5, scope: !1238)
!1248 = !DILocation(line: 1524, column: 5, scope: !1238)
!1249 = !DILocation(line: 1525, column: 10, scope: !1238)
!1250 = !DILocation(line: 1526, column: 5, scope: !1238)
!1251 = distinct !DISubprogram(name: "_ZNSt6chrono8durationIlSt5ratioILl1ELl1000000EEEC1IlvEERKT_", linkageName: "_ZNSt6chrono8durationIlSt5ratioILl1ELl1000000EEEC1IlvEERKT_", scope: null, file: !4, line: 1528, type: !5, scopeLine: 1528, spFlags: DISPFlagDefinition | DISPFlagOptimized, unit: !0, retainedNodes: !6)
!1252 = !DILocation(line: 1529, column: 10, scope: !1253)
!1253 = !DILexicalBlockFile(scope: !1251, file: !4, discriminator: 0)
!1254 = !DILocation(line: 1530, column: 10, scope: !1253)
!1255 = !DILocation(line: 1531, column: 5, scope: !1253)
!1256 = !DILocation(line: 1532, column: 5, scope: !1253)
!1257 = distinct !DISubprogram(name: "_ZNKSt6chrono8durationIlSt5ratioILl1ELl1000000000EEE5countEv", linkageName: "_ZNKSt6chrono8durationIlSt5ratioILl1ELl1000000000EEE5countEv", scope: null, file: !4, line: 1534, type: !5, scopeLine: 1534, spFlags: DISPFlagDefinition | DISPFlagOptimized, unit: !0, retainedNodes: !6)
!1258 = !DILocation(line: 1535, column: 10, scope: !1259)
!1259 = !DILexicalBlockFile(scope: !1257, file: !4, discriminator: 0)
!1260 = !DILocation(line: 1536, column: 10, scope: !1259)
!1261 = !DILocation(line: 1537, column: 5, scope: !1259)
!1262 = distinct !DISubprogram(name: "_ZNSt12_Vector_baseImSaImEE12_Vector_implC1Ev", linkageName: "_ZNSt12_Vector_baseImSaImEE12_Vector_implC1Ev", scope: null, file: !4, line: 1539, type: !5, scopeLine: 1539, spFlags: DISPFlagDefinition | DISPFlagOptimized, unit: !0, retainedNodes: !6)
!1263 = !DILocation(line: 1540, column: 10, scope: !1264)
!1264 = !DILexicalBlockFile(scope: !1262, file: !4, discriminator: 0)
!1265 = !DILocation(line: 1541, column: 5, scope: !1264)
!1266 = !DILocation(line: 1542, column: 5, scope: !1264)
!1267 = distinct !DISubprogram(name: "_ZNSt6vectorImSaImEE11_S_max_sizeERKS0_", linkageName: "_ZNSt6vectorImSaImEE11_S_max_sizeERKS0_", scope: null, file: !4, line: 1544, type: !5, scopeLine: 1544, spFlags: DISPFlagDefinition | DISPFlagOptimized, unit: !0, retainedNodes: !6)
!1268 = !DILocation(line: 1547, column: 10, scope: !1269)
!1269 = !DILexicalBlockFile(scope: !1267, file: !4, discriminator: 0)
!1270 = !DILocation(line: 1549, column: 5, scope: !1269)
!1271 = !DILocation(line: 1550, column: 10, scope: !1269)
!1272 = !DILocation(line: 1551, column: 5, scope: !1269)
!1273 = !DILocation(line: 1552, column: 5, scope: !1269)
!1274 = !DILocation(line: 1553, column: 5, scope: !1269)
!1275 = !DILocation(line: 1554, column: 10, scope: !1269)
!1276 = !DILocation(line: 1555, column: 10, scope: !1269)
!1277 = !DILocation(line: 1556, column: 5, scope: !1269)
!1278 = distinct !DISubprogram(name: "_ZNKSt12_Vector_baseImSaImEE19_M_get_Tp_allocatorEv", linkageName: "_ZNKSt12_Vector_baseImSaImEE19_M_get_Tp_allocatorEv", scope: null, file: !4, line: 1558, type: !5, scopeLine: 1558, spFlags: DISPFlagDefinition | DISPFlagOptimized, unit: !0, retainedNodes: !6)
!1279 = !DILocation(line: 1559, column: 10, scope: !1280)
!1280 = !DILexicalBlockFile(scope: !1278, file: !4, discriminator: 0)
!1281 = !DILocation(line: 1562, column: 10, scope: !1280)
!1282 = !DILocation(line: 1563, column: 10, scope: !1280)
!1283 = !DILocation(line: 1564, column: 5, scope: !1280)
!1284 = distinct !DISubprogram(name: "_ZNSt6vectorImSaImEE19_S_nothrow_relocateESt17integral_constantIbLb1EE", linkageName: "_ZNSt6vectorImSaImEE19_S_nothrow_relocateESt17integral_constantIbLb1EE", scope: null, file: !4, line: 1566, type: !5, scopeLine: 1566, spFlags: DISPFlagDefinition | DISPFlagOptimized, unit: !0, retainedNodes: !6)
!1285 = !DILocation(line: 1568, column: 5, scope: !1286)
!1286 = !DILexicalBlockFile(scope: !1284, file: !4, discriminator: 0)
!1287 = distinct !DISubprogram(name: "_ZNSt17integral_constantIbLb1EEC1EOS0_", linkageName: "_ZNSt17integral_constantIbLb1EEC1EOS0_", scope: null, file: !4, line: 1570, type: !5, scopeLine: 1570, spFlags: DISPFlagDefinition | DISPFlagOptimized, unit: !0, retainedNodes: !6)
!1288 = !DILocation(line: 1571, column: 5, scope: !1289)
!1289 = !DILexicalBlockFile(scope: !1287, file: !4, discriminator: 0)
!1290 = distinct !DISubprogram(name: "_ZNSt16allocator_traitsISaImEE8allocateERS0_m", linkageName: "_ZNSt16allocator_traitsISaImEE8allocateERS0_m", scope: null, file: !4, line: 1573, type: !5, scopeLine: 1573, spFlags: DISPFlagDefinition | DISPFlagOptimized, unit: !0, retainedNodes: !6)
!1291 = !DILocation(line: 1576, column: 10, scope: !1292)
!1292 = !DILexicalBlockFile(scope: !1290, file: !4, discriminator: 0)
!1293 = !DILocation(line: 1577, column: 5, scope: !1292)
!1294 = distinct !DISubprogram(name: "_ZNSt6vectorImSaImEE14_S_do_relocateEPmS2_S2_RS0_St17integral_constantIbLb1EE", linkageName: "_ZNSt6vectorImSaImEE14_S_do_relocateEPmS2_S2_RS0_St17integral_constantIbLb1EE", scope: null, file: !4, line: 1579, type: !5, scopeLine: 1579, spFlags: DISPFlagDefinition | DISPFlagOptimized, unit: !0, retainedNodes: !6)
!1295 = !DILocation(line: 1580, column: 10, scope: !1296)
!1296 = !DILexicalBlockFile(scope: !1294, file: !4, discriminator: 0)
!1297 = !DILocation(line: 1581, column: 5, scope: !1296)
!1298 = distinct !DISubprogram(name: "_ZSt22__uninitialized_copy_aISt13move_iteratorIPmES1_mET0_T_S4_S3_RSaIT1_E", linkageName: "_ZSt22__uninitialized_copy_aISt13move_iteratorIPmES1_mET0_T_S4_S3_RSaIT1_E", scope: null, file: !4, line: 1583, type: !5, scopeLine: 1583, spFlags: DISPFlagDefinition | DISPFlagOptimized, unit: !0, retainedNodes: !6)
!1299 = !DILocation(line: 1585, column: 10, scope: !1300)
!1300 = !DILexicalBlockFile(scope: !1298, file: !4, discriminator: 0)
!1301 = !DILocation(line: 1586, column: 10, scope: !1300)
!1302 = !DILocation(line: 1587, column: 10, scope: !1300)
!1303 = !DILocation(line: 1588, column: 10, scope: !1300)
!1304 = !DILocation(line: 1589, column: 5, scope: !1300)
!1305 = !DILocation(line: 1590, column: 5, scope: !1300)
!1306 = !DILocation(line: 1591, column: 5, scope: !1300)
!1307 = !DILocation(line: 1592, column: 5, scope: !1300)
!1308 = !DILocation(line: 1593, column: 10, scope: !1300)
!1309 = !DILocation(line: 1594, column: 10, scope: !1300)
!1310 = !DILocation(line: 1595, column: 10, scope: !1300)
!1311 = !DILocation(line: 1596, column: 5, scope: !1300)
!1312 = distinct !DISubprogram(name: "_ZNSt13move_iteratorIPmEC1ERKS1_", linkageName: "_ZNSt13move_iteratorIPmEC1ERKS1_", scope: null, file: !4, line: 1598, type: !5, scopeLine: 1598, spFlags: DISPFlagDefinition | DISPFlagOptimized, unit: !0, retainedNodes: !6)
!1313 = !DILocation(line: 1599, column: 10, scope: !1314)
!1314 = !DILexicalBlockFile(scope: !1312, file: !4, discriminator: 0)
!1315 = !DILocation(line: 1600, column: 10, scope: !1314)
!1316 = !DILocation(line: 1601, column: 10, scope: !1314)
!1317 = !DILocation(line: 1602, column: 5, scope: !1314)
!1318 = !DILocation(line: 1603, column: 5, scope: !1314)
!1319 = distinct !DISubprogram(name: "_ZNSt13move_iteratorIPmEC1ES0_", linkageName: "_ZNSt13move_iteratorIPmEC1ES0_", scope: null, file: !4, line: 1605, type: !5, scopeLine: 1605, spFlags: DISPFlagDefinition | DISPFlagOptimized, unit: !0, retainedNodes: !6)
!1320 = !DILocation(line: 1606, column: 10, scope: !1321)
!1321 = !DILexicalBlockFile(scope: !1319, file: !4, discriminator: 0)
!1322 = !DILocation(line: 1607, column: 5, scope: !1321)
!1323 = !DILocation(line: 1608, column: 5, scope: !1321)
!1324 = distinct !DISubprogram(name: "_ZSt8_DestroyIPmEvT_S1_", linkageName: "_ZSt8_DestroyIPmEvT_S1_", scope: null, file: !4, line: 1610, type: !5, scopeLine: 1610, spFlags: DISPFlagDefinition | DISPFlagOptimized, unit: !0, retainedNodes: !6)
!1325 = !DILocation(line: 1611, column: 5, scope: !1326)
!1326 = !DILexicalBlockFile(scope: !1324, file: !4, discriminator: 0)
!1327 = distinct !DISubprogram(name: "_ZNSt16allocator_traitsISaImEE10deallocateERS0_Pmm", linkageName: "_ZNSt16allocator_traitsISaImEE10deallocateERS0_Pmm", scope: null, file: !4, line: 1613, type: !5, scopeLine: 1613, spFlags: DISPFlagDefinition | DISPFlagOptimized, unit: !0, retainedNodes: !6)
!1328 = !DILocation(line: 1615, column: 5, scope: !1329)
!1329 = !DILexicalBlockFile(scope: !1327, file: !4, discriminator: 0)
!1330 = !DILocation(line: 1616, column: 5, scope: !1329)
!1331 = distinct !DISubprogram(name: "_ZNSt12_Vector_baseIsSaIsEE12_Vector_implC1Ev", linkageName: "_ZNSt12_Vector_baseIsSaIsEE12_Vector_implC1Ev", scope: null, file: !4, line: 1618, type: !5, scopeLine: 1618, spFlags: DISPFlagDefinition | DISPFlagOptimized, unit: !0, retainedNodes: !6)
!1332 = !DILocation(line: 1619, column: 10, scope: !1333)
!1333 = !DILexicalBlockFile(scope: !1331, file: !4, discriminator: 0)
!1334 = !DILocation(line: 1620, column: 5, scope: !1333)
!1335 = !DILocation(line: 1621, column: 5, scope: !1333)
!1336 = distinct !DISubprogram(name: "_ZNSt6vectorIsSaIsEE11_S_max_sizeERKS0_", linkageName: "_ZNSt6vectorIsSaIsEE11_S_max_sizeERKS0_", scope: null, file: !4, line: 1623, type: !5, scopeLine: 1623, spFlags: DISPFlagDefinition | DISPFlagOptimized, unit: !0, retainedNodes: !6)
!1337 = !DILocation(line: 1626, column: 10, scope: !1338)
!1338 = !DILexicalBlockFile(scope: !1336, file: !4, discriminator: 0)
!1339 = !DILocation(line: 1628, column: 5, scope: !1338)
!1340 = !DILocation(line: 1629, column: 10, scope: !1338)
!1341 = !DILocation(line: 1630, column: 5, scope: !1338)
!1342 = !DILocation(line: 1631, column: 5, scope: !1338)
!1343 = !DILocation(line: 1632, column: 5, scope: !1338)
!1344 = !DILocation(line: 1633, column: 10, scope: !1338)
!1345 = !DILocation(line: 1634, column: 10, scope: !1338)
!1346 = !DILocation(line: 1635, column: 5, scope: !1338)
!1347 = distinct !DISubprogram(name: "_ZNKSt12_Vector_baseIsSaIsEE19_M_get_Tp_allocatorEv", linkageName: "_ZNKSt12_Vector_baseIsSaIsEE19_M_get_Tp_allocatorEv", scope: null, file: !4, line: 1637, type: !5, scopeLine: 1637, spFlags: DISPFlagDefinition | DISPFlagOptimized, unit: !0, retainedNodes: !6)
!1348 = !DILocation(line: 1638, column: 10, scope: !1349)
!1349 = !DILexicalBlockFile(scope: !1347, file: !4, discriminator: 0)
!1350 = !DILocation(line: 1641, column: 10, scope: !1349)
!1351 = !DILocation(line: 1642, column: 10, scope: !1349)
!1352 = !DILocation(line: 1643, column: 5, scope: !1349)
!1353 = distinct !DISubprogram(name: "_ZNSt6vectorIsSaIsEE19_S_nothrow_relocateESt17integral_constantIbLb1EE", linkageName: "_ZNSt6vectorIsSaIsEE19_S_nothrow_relocateESt17integral_constantIbLb1EE", scope: null, file: !4, line: 1645, type: !5, scopeLine: 1645, spFlags: DISPFlagDefinition | DISPFlagOptimized, unit: !0, retainedNodes: !6)
!1354 = !DILocation(line: 1647, column: 5, scope: !1355)
!1355 = !DILexicalBlockFile(scope: !1353, file: !4, discriminator: 0)
!1356 = distinct !DISubprogram(name: "_ZNSt16allocator_traitsISaIsEE8allocateERS0_m", linkageName: "_ZNSt16allocator_traitsISaIsEE8allocateERS0_m", scope: null, file: !4, line: 1649, type: !5, scopeLine: 1649, spFlags: DISPFlagDefinition | DISPFlagOptimized, unit: !0, retainedNodes: !6)
!1357 = !DILocation(line: 1652, column: 10, scope: !1358)
!1358 = !DILexicalBlockFile(scope: !1356, file: !4, discriminator: 0)
!1359 = !DILocation(line: 1653, column: 5, scope: !1358)
!1360 = distinct !DISubprogram(name: "_ZNSt6vectorIsSaIsEE14_S_do_relocateEPsS2_S2_RS0_St17integral_constantIbLb1EE", linkageName: "_ZNSt6vectorIsSaIsEE14_S_do_relocateEPsS2_S2_RS0_St17integral_constantIbLb1EE", scope: null, file: !4, line: 1655, type: !5, scopeLine: 1655, spFlags: DISPFlagDefinition | DISPFlagOptimized, unit: !0, retainedNodes: !6)
!1361 = !DILocation(line: 1656, column: 10, scope: !1362)
!1362 = !DILexicalBlockFile(scope: !1360, file: !4, discriminator: 0)
!1363 = !DILocation(line: 1657, column: 5, scope: !1362)
!1364 = distinct !DISubprogram(name: "_ZSt22__uninitialized_copy_aISt13move_iteratorIPsES1_sET0_T_S4_S3_RSaIT1_E", linkageName: "_ZSt22__uninitialized_copy_aISt13move_iteratorIPsES1_sET0_T_S4_S3_RSaIT1_E", scope: null, file: !4, line: 1659, type: !5, scopeLine: 1659, spFlags: DISPFlagDefinition | DISPFlagOptimized, unit: !0, retainedNodes: !6)
!1365 = !DILocation(line: 1661, column: 10, scope: !1366)
!1366 = !DILexicalBlockFile(scope: !1364, file: !4, discriminator: 0)
!1367 = !DILocation(line: 1662, column: 10, scope: !1366)
!1368 = !DILocation(line: 1663, column: 10, scope: !1366)
!1369 = !DILocation(line: 1664, column: 10, scope: !1366)
!1370 = !DILocation(line: 1665, column: 5, scope: !1366)
!1371 = !DILocation(line: 1666, column: 5, scope: !1366)
!1372 = !DILocation(line: 1667, column: 5, scope: !1366)
!1373 = !DILocation(line: 1668, column: 5, scope: !1366)
!1374 = !DILocation(line: 1669, column: 10, scope: !1366)
!1375 = !DILocation(line: 1670, column: 10, scope: !1366)
!1376 = !DILocation(line: 1671, column: 10, scope: !1366)
!1377 = !DILocation(line: 1672, column: 5, scope: !1366)
!1378 = distinct !DISubprogram(name: "_ZNSt13move_iteratorIPsEC1ERKS1_", linkageName: "_ZNSt13move_iteratorIPsEC1ERKS1_", scope: null, file: !4, line: 1674, type: !5, scopeLine: 1674, spFlags: DISPFlagDefinition | DISPFlagOptimized, unit: !0, retainedNodes: !6)
!1379 = !DILocation(line: 1675, column: 10, scope: !1380)
!1380 = !DILexicalBlockFile(scope: !1378, file: !4, discriminator: 0)
!1381 = !DILocation(line: 1676, column: 10, scope: !1380)
!1382 = !DILocation(line: 1677, column: 10, scope: !1380)
!1383 = !DILocation(line: 1678, column: 5, scope: !1380)
!1384 = !DILocation(line: 1679, column: 5, scope: !1380)
!1385 = distinct !DISubprogram(name: "_ZNSt13move_iteratorIPsEC1ES0_", linkageName: "_ZNSt13move_iteratorIPsEC1ES0_", scope: null, file: !4, line: 1681, type: !5, scopeLine: 1681, spFlags: DISPFlagDefinition | DISPFlagOptimized, unit: !0, retainedNodes: !6)
!1386 = !DILocation(line: 1682, column: 10, scope: !1387)
!1387 = !DILexicalBlockFile(scope: !1385, file: !4, discriminator: 0)
!1388 = !DILocation(line: 1683, column: 5, scope: !1387)
!1389 = !DILocation(line: 1684, column: 5, scope: !1387)
!1390 = distinct !DISubprogram(name: "_ZSt8_DestroyIPsEvT_S1_", linkageName: "_ZSt8_DestroyIPsEvT_S1_", scope: null, file: !4, line: 1686, type: !5, scopeLine: 1686, spFlags: DISPFlagDefinition | DISPFlagOptimized, unit: !0, retainedNodes: !6)
!1391 = !DILocation(line: 1687, column: 5, scope: !1392)
!1392 = !DILexicalBlockFile(scope: !1390, file: !4, discriminator: 0)
!1393 = distinct !DISubprogram(name: "_ZNSt16allocator_traitsISaIsEE10deallocateERS0_Psm", linkageName: "_ZNSt16allocator_traitsISaIsEE10deallocateERS0_Psm", scope: null, file: !4, line: 1689, type: !5, scopeLine: 1689, spFlags: DISPFlagDefinition | DISPFlagOptimized, unit: !0, retainedNodes: !6)
!1394 = !DILocation(line: 1691, column: 5, scope: !1395)
!1395 = !DILexicalBlockFile(scope: !1393, file: !4, discriminator: 0)
!1396 = !DILocation(line: 1692, column: 5, scope: !1395)
!1397 = distinct !DISubprogram(name: "_ZN9__gnu_cxx13new_allocatorImE9constructImJRKmEEEvPT_DpOT0_", linkageName: "_ZN9__gnu_cxx13new_allocatorImE9constructImJRKmEEEvPT_DpOT0_", scope: null, file: !4, line: 1694, type: !5, scopeLine: 1694, spFlags: DISPFlagDefinition | DISPFlagOptimized, unit: !0, retainedNodes: !6)
!1398 = !DILocation(line: 1695, column: 10, scope: !1399)
!1399 = !DILexicalBlockFile(scope: !1397, file: !4, discriminator: 0)
!1400 = !DILocation(line: 1696, column: 5, scope: !1399)
!1401 = !DILocation(line: 1697, column: 5, scope: !1399)
!1402 = distinct !DISubprogram(name: "_ZNKSt6vectorImSaImEE12_M_check_lenEmPKc", linkageName: "_ZNKSt6vectorImSaImEE12_M_check_lenEmPKc", scope: null, file: !4, line: 1699, type: !5, scopeLine: 1699, spFlags: DISPFlagDefinition | DISPFlagOptimized, unit: !0, retainedNodes: !6)
!1403 = !DILocation(line: 1703, column: 10, scope: !1404)
!1404 = !DILexicalBlockFile(scope: !1402, file: !4, discriminator: 0)
!1405 = !DILocation(line: 1704, column: 5, scope: !1404)
!1406 = !DILocation(line: 1705, column: 10, scope: !1404)
!1407 = !DILocation(line: 1706, column: 5, scope: !1404)
!1408 = !DILocation(line: 1707, column: 5, scope: !1404)
!1409 = !DILocation(line: 1708, column: 10, scope: !1404)
!1410 = !DILocation(line: 1709, column: 10, scope: !1404)
!1411 = !DILocation(line: 1710, column: 10, scope: !1404)
!1412 = !DILocation(line: 1711, column: 10, scope: !1404)
!1413 = !DILocation(line: 1712, column: 10, scope: !1404)
!1414 = !DILocation(line: 1713, column: 5, scope: !1404)
!1415 = !DILocation(line: 1715, column: 5, scope: !1404)
!1416 = !DILocation(line: 1716, column: 5, scope: !1404)
!1417 = !DILocation(line: 1718, column: 11, scope: !1404)
!1418 = !DILocation(line: 1719, column: 11, scope: !1404)
!1419 = !DILocation(line: 1720, column: 5, scope: !1404)
!1420 = !DILocation(line: 1721, column: 11, scope: !1404)
!1421 = !DILocation(line: 1722, column: 11, scope: !1404)
!1422 = !DILocation(line: 1723, column: 11, scope: !1404)
!1423 = !DILocation(line: 1724, column: 11, scope: !1404)
!1424 = !DILocation(line: 1725, column: 11, scope: !1404)
!1425 = !DILocation(line: 1726, column: 5, scope: !1404)
!1426 = !DILocation(line: 1728, column: 5, scope: !1404)
!1427 = !DILocation(line: 1730, column: 11, scope: !1404)
!1428 = !DILocation(line: 1731, column: 11, scope: !1404)
!1429 = !DILocation(line: 1732, column: 5, scope: !1404)
!1430 = !DILocation(line: 1734, column: 5, scope: !1404)
!1431 = !DILocation(line: 1736, column: 5, scope: !1404)
!1432 = !DILocation(line: 1738, column: 11, scope: !1404)
!1433 = !DILocation(line: 1739, column: 5, scope: !1404)
!1434 = !DILocation(line: 1741, column: 5, scope: !1404)
!1435 = !DILocation(line: 1743, column: 5, scope: !1404)
!1436 = !DILocation(line: 1745, column: 5, scope: !1404)
!1437 = distinct !DISubprogram(name: "_ZN9__gnu_cxxmiIPmSt6vectorImSaImEEEENS_17__normal_iteratorIT_T0_E15difference_typeERKS8_SB_", linkageName: "_ZN9__gnu_cxxmiIPmSt6vectorImSaImEEEENS_17__normal_iteratorIT_T0_E15difference_typeERKS8_SB_", scope: null, file: !4, line: 1747, type: !5, scopeLine: 1747, spFlags: DISPFlagDefinition | DISPFlagOptimized, unit: !0, retainedNodes: !6)
!1438 = !DILocation(line: 1749, column: 10, scope: !1439)
!1439 = !DILexicalBlockFile(scope: !1437, file: !4, discriminator: 0)
!1440 = !DILocation(line: 1750, column: 10, scope: !1439)
!1441 = !DILocation(line: 1751, column: 10, scope: !1439)
!1442 = !DILocation(line: 1752, column: 10, scope: !1439)
!1443 = !DILocation(line: 1753, column: 10, scope: !1439)
!1444 = !DILocation(line: 1754, column: 10, scope: !1439)
!1445 = !DILocation(line: 1755, column: 10, scope: !1439)
!1446 = !DILocation(line: 1756, column: 10, scope: !1439)
!1447 = !DILocation(line: 1757, column: 5, scope: !1439)
!1448 = distinct !DISubprogram(name: "_ZNSt6vectorImSaImEE5beginEv", linkageName: "_ZNSt6vectorImSaImEE5beginEv", scope: null, file: !4, line: 1759, type: !5, scopeLine: 1759, spFlags: DISPFlagDefinition | DISPFlagOptimized, unit: !0, retainedNodes: !6)
!1449 = !DILocation(line: 1761, column: 10, scope: !1450)
!1450 = !DILexicalBlockFile(scope: !1448, file: !4, discriminator: 0)
!1451 = !DILocation(line: 1762, column: 10, scope: !1450)
!1452 = !DILocation(line: 1763, column: 10, scope: !1450)
!1453 = !DILocation(line: 1764, column: 10, scope: !1450)
!1454 = !DILocation(line: 1765, column: 10, scope: !1450)
!1455 = !DILocation(line: 1766, column: 10, scope: !1450)
!1456 = !DILocation(line: 1767, column: 10, scope: !1450)
!1457 = !DILocation(line: 1768, column: 5, scope: !1450)
!1458 = !DILocation(line: 1769, column: 10, scope: !1450)
!1459 = !DILocation(line: 1770, column: 5, scope: !1450)
!1460 = !DILocation(line: 1771, column: 5, scope: !1450)
!1461 = !DILocation(line: 1772, column: 10, scope: !1450)
!1462 = !DILocation(line: 1773, column: 5, scope: !1450)
!1463 = distinct !DISubprogram(name: "_ZNK9__gnu_cxx17__normal_iteratorIPmSt6vectorImSaImEEE4baseEv", linkageName: "_ZNK9__gnu_cxx17__normal_iteratorIPmSt6vectorImSaImEEE4baseEv", scope: null, file: !4, line: 1775, type: !5, scopeLine: 1775, spFlags: DISPFlagDefinition | DISPFlagOptimized, unit: !0, retainedNodes: !6)
!1464 = !DILocation(line: 1776, column: 10, scope: !1465)
!1465 = !DILexicalBlockFile(scope: !1463, file: !4, discriminator: 0)
!1466 = !DILocation(line: 1777, column: 5, scope: !1465)
!1467 = distinct !DISubprogram(name: "_ZSt34__uninitialized_move_if_noexcept_aIPmS0_SaImEET0_T_S3_S2_RT1_", linkageName: "_ZSt34__uninitialized_move_if_noexcept_aIPmS0_SaImEET0_T_S3_S2_RT1_", scope: null, file: !4, line: 1779, type: !5, scopeLine: 1779, spFlags: DISPFlagDefinition | DISPFlagOptimized, unit: !0, retainedNodes: !6)
!1468 = !DILocation(line: 1781, column: 10, scope: !1469)
!1469 = !DILexicalBlockFile(scope: !1467, file: !4, discriminator: 0)
!1470 = !DILocation(line: 1782, column: 10, scope: !1469)
!1471 = !DILocation(line: 1783, column: 10, scope: !1469)
!1472 = !DILocation(line: 1784, column: 10, scope: !1469)
!1473 = !DILocation(line: 1785, column: 10, scope: !1469)
!1474 = !DILocation(line: 1786, column: 5, scope: !1469)
!1475 = !DILocation(line: 1787, column: 5, scope: !1469)
!1476 = !DILocation(line: 1788, column: 10, scope: !1469)
!1477 = !DILocation(line: 1789, column: 5, scope: !1469)
!1478 = !DILocation(line: 1790, column: 5, scope: !1469)
!1479 = !DILocation(line: 1791, column: 10, scope: !1469)
!1480 = !DILocation(line: 1792, column: 10, scope: !1469)
!1481 = !DILocation(line: 1793, column: 10, scope: !1469)
!1482 = !DILocation(line: 1794, column: 5, scope: !1469)
!1483 = distinct !DISubprogram(name: "_ZN9__gnu_cxx17__normal_iteratorIPmSt6vectorImSaImEEEC1ERKS1_", linkageName: "_ZN9__gnu_cxx17__normal_iteratorIPmSt6vectorImSaImEEEC1ERKS1_", scope: null, file: !4, line: 1796, type: !5, scopeLine: 1796, spFlags: DISPFlagDefinition | DISPFlagOptimized, unit: !0, retainedNodes: !6)
!1484 = !DILocation(line: 1797, column: 10, scope: !1485)
!1485 = !DILexicalBlockFile(scope: !1483, file: !4, discriminator: 0)
!1486 = !DILocation(line: 1798, column: 10, scope: !1485)
!1487 = !DILocation(line: 1799, column: 5, scope: !1485)
!1488 = !DILocation(line: 1800, column: 5, scope: !1485)
!1489 = distinct !DISubprogram(name: "_ZN9__gnu_cxx13new_allocatorIsE9constructIsJRKsEEEvPT_DpOT0_", linkageName: "_ZN9__gnu_cxx13new_allocatorIsE9constructIsJRKsEEEvPT_DpOT0_", scope: null, file: !4, line: 1802, type: !5, scopeLine: 1802, spFlags: DISPFlagDefinition | DISPFlagOptimized, unit: !0, retainedNodes: !6)
!1490 = !DILocation(line: 1803, column: 10, scope: !1491)
!1491 = !DILexicalBlockFile(scope: !1489, file: !4, discriminator: 0)
!1492 = !DILocation(line: 1804, column: 5, scope: !1491)
!1493 = !DILocation(line: 1805, column: 5, scope: !1491)
!1494 = distinct !DISubprogram(name: "_ZNKSt6vectorIsSaIsEE12_M_check_lenEmPKc", linkageName: "_ZNKSt6vectorIsSaIsEE12_M_check_lenEmPKc", scope: null, file: !4, line: 1807, type: !5, scopeLine: 1807, spFlags: DISPFlagDefinition | DISPFlagOptimized, unit: !0, retainedNodes: !6)
!1495 = !DILocation(line: 1811, column: 10, scope: !1496)
!1496 = !DILexicalBlockFile(scope: !1494, file: !4, discriminator: 0)
!1497 = !DILocation(line: 1812, column: 5, scope: !1496)
!1498 = !DILocation(line: 1813, column: 10, scope: !1496)
!1499 = !DILocation(line: 1814, column: 5, scope: !1496)
!1500 = !DILocation(line: 1815, column: 5, scope: !1496)
!1501 = !DILocation(line: 1816, column: 10, scope: !1496)
!1502 = !DILocation(line: 1817, column: 10, scope: !1496)
!1503 = !DILocation(line: 1818, column: 10, scope: !1496)
!1504 = !DILocation(line: 1819, column: 10, scope: !1496)
!1505 = !DILocation(line: 1820, column: 10, scope: !1496)
!1506 = !DILocation(line: 1821, column: 5, scope: !1496)
!1507 = !DILocation(line: 1823, column: 5, scope: !1496)
!1508 = !DILocation(line: 1824, column: 5, scope: !1496)
!1509 = !DILocation(line: 1826, column: 11, scope: !1496)
!1510 = !DILocation(line: 1827, column: 11, scope: !1496)
!1511 = !DILocation(line: 1828, column: 5, scope: !1496)
!1512 = !DILocation(line: 1829, column: 11, scope: !1496)
!1513 = !DILocation(line: 1830, column: 11, scope: !1496)
!1514 = !DILocation(line: 1831, column: 11, scope: !1496)
!1515 = !DILocation(line: 1832, column: 11, scope: !1496)
!1516 = !DILocation(line: 1833, column: 11, scope: !1496)
!1517 = !DILocation(line: 1834, column: 5, scope: !1496)
!1518 = !DILocation(line: 1836, column: 5, scope: !1496)
!1519 = !DILocation(line: 1838, column: 11, scope: !1496)
!1520 = !DILocation(line: 1839, column: 11, scope: !1496)
!1521 = !DILocation(line: 1840, column: 5, scope: !1496)
!1522 = !DILocation(line: 1842, column: 5, scope: !1496)
!1523 = !DILocation(line: 1844, column: 5, scope: !1496)
!1524 = !DILocation(line: 1846, column: 11, scope: !1496)
!1525 = !DILocation(line: 1847, column: 5, scope: !1496)
!1526 = !DILocation(line: 1849, column: 5, scope: !1496)
!1527 = !DILocation(line: 1851, column: 5, scope: !1496)
!1528 = !DILocation(line: 1853, column: 5, scope: !1496)
!1529 = distinct !DISubprogram(name: "_ZN9__gnu_cxxmiIPsSt6vectorIsSaIsEEEENS_17__normal_iteratorIT_T0_E15difference_typeERKS8_SB_", linkageName: "_ZN9__gnu_cxxmiIPsSt6vectorIsSaIsEEEENS_17__normal_iteratorIT_T0_E15difference_typeERKS8_SB_", scope: null, file: !4, line: 1855, type: !5, scopeLine: 1855, spFlags: DISPFlagDefinition | DISPFlagOptimized, unit: !0, retainedNodes: !6)
!1530 = !DILocation(line: 1857, column: 10, scope: !1531)
!1531 = !DILexicalBlockFile(scope: !1529, file: !4, discriminator: 0)
!1532 = !DILocation(line: 1858, column: 10, scope: !1531)
!1533 = !DILocation(line: 1859, column: 10, scope: !1531)
!1534 = !DILocation(line: 1860, column: 10, scope: !1531)
!1535 = !DILocation(line: 1861, column: 10, scope: !1531)
!1536 = !DILocation(line: 1862, column: 10, scope: !1531)
!1537 = !DILocation(line: 1863, column: 10, scope: !1531)
!1538 = !DILocation(line: 1864, column: 10, scope: !1531)
!1539 = !DILocation(line: 1865, column: 5, scope: !1531)
!1540 = distinct !DISubprogram(name: "_ZNSt6vectorIsSaIsEE5beginEv", linkageName: "_ZNSt6vectorIsSaIsEE5beginEv", scope: null, file: !4, line: 1867, type: !5, scopeLine: 1867, spFlags: DISPFlagDefinition | DISPFlagOptimized, unit: !0, retainedNodes: !6)
!1541 = !DILocation(line: 1869, column: 10, scope: !1542)
!1542 = !DILexicalBlockFile(scope: !1540, file: !4, discriminator: 0)
!1543 = !DILocation(line: 1870, column: 10, scope: !1542)
!1544 = !DILocation(line: 1871, column: 10, scope: !1542)
!1545 = !DILocation(line: 1872, column: 10, scope: !1542)
!1546 = !DILocation(line: 1873, column: 10, scope: !1542)
!1547 = !DILocation(line: 1874, column: 10, scope: !1542)
!1548 = !DILocation(line: 1875, column: 10, scope: !1542)
!1549 = !DILocation(line: 1876, column: 5, scope: !1542)
!1550 = !DILocation(line: 1877, column: 10, scope: !1542)
!1551 = !DILocation(line: 1878, column: 5, scope: !1542)
!1552 = !DILocation(line: 1879, column: 5, scope: !1542)
!1553 = !DILocation(line: 1880, column: 10, scope: !1542)
!1554 = !DILocation(line: 1881, column: 5, scope: !1542)
!1555 = distinct !DISubprogram(name: "_ZNK9__gnu_cxx17__normal_iteratorIPsSt6vectorIsSaIsEEE4baseEv", linkageName: "_ZNK9__gnu_cxx17__normal_iteratorIPsSt6vectorIsSaIsEEE4baseEv", scope: null, file: !4, line: 1883, type: !5, scopeLine: 1883, spFlags: DISPFlagDefinition | DISPFlagOptimized, unit: !0, retainedNodes: !6)
!1556 = !DILocation(line: 1884, column: 10, scope: !1557)
!1557 = !DILexicalBlockFile(scope: !1555, file: !4, discriminator: 0)
!1558 = !DILocation(line: 1885, column: 5, scope: !1557)
!1559 = distinct !DISubprogram(name: "_ZSt34__uninitialized_move_if_noexcept_aIPsS0_SaIsEET0_T_S3_S2_RT1_", linkageName: "_ZSt34__uninitialized_move_if_noexcept_aIPsS0_SaIsEET0_T_S3_S2_RT1_", scope: null, file: !4, line: 1887, type: !5, scopeLine: 1887, spFlags: DISPFlagDefinition | DISPFlagOptimized, unit: !0, retainedNodes: !6)
!1560 = !DILocation(line: 1889, column: 10, scope: !1561)
!1561 = !DILexicalBlockFile(scope: !1559, file: !4, discriminator: 0)
!1562 = !DILocation(line: 1890, column: 10, scope: !1561)
!1563 = !DILocation(line: 1891, column: 10, scope: !1561)
!1564 = !DILocation(line: 1892, column: 10, scope: !1561)
!1565 = !DILocation(line: 1893, column: 10, scope: !1561)
!1566 = !DILocation(line: 1894, column: 5, scope: !1561)
!1567 = !DILocation(line: 1895, column: 5, scope: !1561)
!1568 = !DILocation(line: 1896, column: 10, scope: !1561)
!1569 = !DILocation(line: 1897, column: 5, scope: !1561)
!1570 = !DILocation(line: 1898, column: 5, scope: !1561)
!1571 = !DILocation(line: 1899, column: 10, scope: !1561)
!1572 = !DILocation(line: 1900, column: 10, scope: !1561)
!1573 = !DILocation(line: 1901, column: 10, scope: !1561)
!1574 = !DILocation(line: 1902, column: 5, scope: !1561)
!1575 = distinct !DISubprogram(name: "_ZN9__gnu_cxx17__normal_iteratorIPsSt6vectorIsSaIsEEEC1ERKS1_", linkageName: "_ZN9__gnu_cxx17__normal_iteratorIPsSt6vectorIsSaIsEEEC1ERKS1_", scope: null, file: !4, line: 1904, type: !5, scopeLine: 1904, spFlags: DISPFlagDefinition | DISPFlagOptimized, unit: !0, retainedNodes: !6)
!1576 = !DILocation(line: 1905, column: 10, scope: !1577)
!1577 = !DILexicalBlockFile(scope: !1575, file: !4, discriminator: 0)
!1578 = !DILocation(line: 1906, column: 10, scope: !1577)
!1579 = !DILocation(line: 1907, column: 5, scope: !1577)
!1580 = !DILocation(line: 1908, column: 5, scope: !1577)
!1581 = distinct !DISubprogram(name: "_ZNSaImEC1Ev", linkageName: "_ZNSaImEC1Ev", scope: null, file: !4, line: 1910, type: !5, scopeLine: 1910, spFlags: DISPFlagDefinition | DISPFlagOptimized, unit: !0, retainedNodes: !6)
!1582 = !DILocation(line: 1911, column: 5, scope: !1583)
!1583 = !DILexicalBlockFile(scope: !1581, file: !4, discriminator: 0)
!1584 = distinct !DISubprogram(name: "_ZNSt12_Vector_baseImSaImEE17_Vector_impl_dataC1Ev", linkageName: "_ZNSt12_Vector_baseImSaImEE17_Vector_impl_dataC1Ev", scope: null, file: !4, line: 1913, type: !5, scopeLine: 1913, spFlags: DISPFlagDefinition | DISPFlagOptimized, unit: !0, retainedNodes: !6)
!1585 = !DILocation(line: 1915, column: 10, scope: !1586)
!1586 = !DILexicalBlockFile(scope: !1584, file: !4, discriminator: 0)
!1587 = !DILocation(line: 1916, column: 5, scope: !1586)
!1588 = !DILocation(line: 1917, column: 10, scope: !1586)
!1589 = !DILocation(line: 1918, column: 5, scope: !1586)
!1590 = !DILocation(line: 1919, column: 10, scope: !1586)
!1591 = !DILocation(line: 1920, column: 5, scope: !1586)
!1592 = !DILocation(line: 1921, column: 5, scope: !1586)
!1593 = distinct !DISubprogram(name: "_ZNSt16allocator_traitsISaImEE8max_sizeERKS0_", linkageName: "_ZNSt16allocator_traitsISaImEE8max_sizeERKS0_", scope: null, file: !4, line: 1923, type: !5, scopeLine: 1923, spFlags: DISPFlagDefinition | DISPFlagOptimized, unit: !0, retainedNodes: !6)
!1594 = !DILocation(line: 1925, column: 5, scope: !1595)
!1595 = !DILexicalBlockFile(scope: !1593, file: !4, discriminator: 0)
!1596 = distinct !DISubprogram(name: "_ZSt3minImERKT_S2_S2_", linkageName: "_ZSt3minImERKT_S2_S2_", scope: null, file: !4, line: 1927, type: !5, scopeLine: 1927, spFlags: DISPFlagDefinition | DISPFlagOptimized, unit: !0, retainedNodes: !6)
!1597 = !DILocation(line: 1928, column: 10, scope: !1598)
!1598 = !DILexicalBlockFile(scope: !1596, file: !4, discriminator: 0)
!1599 = !DILocation(line: 1929, column: 10, scope: !1598)
!1600 = !DILocation(line: 1930, column: 10, scope: !1598)
!1601 = !DILocation(line: 1931, column: 10, scope: !1598)
!1602 = !DILocation(line: 1932, column: 5, scope: !1598)
!1603 = distinct !DISubprogram(name: "_ZN9__gnu_cxx13new_allocatorImE8allocateEmPKv", linkageName: "_ZN9__gnu_cxx13new_allocatorImE8allocateEmPKv", scope: null, file: !4, line: 1934, type: !5, scopeLine: 1934, spFlags: DISPFlagDefinition | DISPFlagOptimized, unit: !0, retainedNodes: !6)
!1604 = !DILocation(line: 1937, column: 10, scope: !1605)
!1605 = !DILexicalBlockFile(scope: !1603, file: !4, discriminator: 0)
!1606 = !DILocation(line: 1938, column: 5, scope: !1605)
!1607 = !DILocation(line: 1940, column: 5, scope: !1605)
!1608 = !DILocation(line: 1941, column: 5, scope: !1605)
!1609 = !DILocation(line: 1943, column: 10, scope: !1605)
!1610 = !DILocation(line: 1944, column: 10, scope: !1605)
!1611 = !DILocation(line: 1946, column: 5, scope: !1605)
!1612 = distinct !DISubprogram(name: "_ZSt12__relocate_aIPmS0_SaImEET0_T_S3_S2_RT1_", linkageName: "_ZSt12__relocate_aIPmS0_SaImEET0_T_S3_S2_RT1_", scope: null, file: !4, line: 1948, type: !5, scopeLine: 1948, spFlags: DISPFlagDefinition | DISPFlagOptimized, unit: !0, retainedNodes: !6)
!1613 = !DILocation(line: 1949, column: 10, scope: !1614)
!1614 = !DILexicalBlockFile(scope: !1612, file: !4, discriminator: 0)
!1615 = !DILocation(line: 1950, column: 5, scope: !1614)
!1616 = distinct !DISubprogram(name: "_ZSt18uninitialized_copyISt13move_iteratorIPmES1_ET0_T_S4_S3_", linkageName: "_ZSt18uninitialized_copyISt13move_iteratorIPmES1_ET0_T_S4_S3_", scope: null, file: !4, line: 1952, type: !5, scopeLine: 1952, spFlags: DISPFlagDefinition | DISPFlagOptimized, unit: !0, retainedNodes: !6)
