; ModuleID = 'LLVMDialectModule'
source_filename = "LLVMDialectModule"
target datalayout = "e-m:e-p270:32:32-p271:32:32-p272:64:64-i64:64-f80:128-n8:16:32:64-S128"
target triple = "x86_64-unknown-linux-gnu"

%"struct.std::chrono::duration.0" = type { i64 }
%"struct.std::chrono::duration" = type { i64 }
%"struct.std::chrono::time_point" = type { %"struct.std::chrono::duration" }
%"class.std::vector" = type { %"struct.std::_Vector_base" }
%"struct.std::_Vector_base" = type { %"struct.std::_Vector_base<int, std::allocator<int>>::_Vector_impl" }
%"struct.std::_Vector_base<int, std::allocator<int>>::_Vector_impl" = type { %"struct.std::_Vector_base<int, std::allocator<int>>::_Vector_impl_data" }
%"struct.std::_Vector_base<int, std::allocator<int>>::_Vector_impl_data" = type { ptr, ptr, ptr }
%class.anon = type { ptr }
%class.MeanVisitor = type { i64, i64 }
%class.MinVisitor = type <{ i64, i64, i8, [7 x i8] }>
%class.MaxVisitor = type <{ i64, i64, i8, [7 x i8] }>
%"class.__gnu_cxx::__normal_iterator" = type { ptr }
%class.anon.7 = type { i8 }
%class.anon.6 = type { i8 }
%class.anon.14 = type { i8 }
%"class.std::vector.1" = type { %"struct.std::_Vector_base.2" }
%"struct.std::_Vector_base.2" = type { %"struct.std::_Vector_base<unsigned long, std::allocator<unsigned long>>::_Vector_impl" }
%"struct.std::_Vector_base<unsigned long, std::allocator<unsigned long>>::_Vector_impl" = type { %"struct.std::_Vector_base<unsigned long, std::allocator<unsigned long>>::_Vector_impl_data" }
%"struct.std::_Vector_base<unsigned long, std::allocator<unsigned long>>::_Vector_impl_data" = type { ptr, ptr, ptr }
%"class.std::vector.16" = type { %"struct.std::_Vector_base.17" }
%"struct.std::_Vector_base.17" = type { %"struct.std::_Vector_base<short, std::allocator<short>>::_Vector_impl" }
%"struct.std::_Vector_base<short, std::allocator<short>>::_Vector_impl" = type { %"struct.std::_Vector_base<short, std::allocator<short>>::_Vector_impl_data" }
%"struct.std::_Vector_base<short, std::allocator<short>>::_Vector_impl_data" = type { ptr, ptr, ptr }
%"class.std::vector.9" = type { %"struct.std::_Vector_base.10" }
%"struct.std::_Vector_base.10" = type { %"struct.std::_Vector_base<double, std::allocator<double>>::_Vector_impl" }
%"struct.std::_Vector_base<double, std::allocator<double>>::_Vector_impl" = type { %"struct.std::_Vector_base<double, std::allocator<double>>::_Vector_impl_data" }
%"struct.std::_Vector_base<double, std::allocator<double>>::_Vector_impl_data" = type { ptr, ptr, ptr }
%struct.rvector = type { ptr, ptr, ptr }
%"class.std::move_iterator" = type { ptr }
%"class.std::move_iterator.26" = type { ptr }
%"class.__gnu_cxx::__normal_iterator.27" = type { ptr }
%"class.__gnu_cxx::__normal_iterator.28" = type { ptr }
%"class.std::move_iterator.29" = type { ptr }
%"class.std::vector.21" = type { %"struct.std::_Vector_base.22" }
%"struct.std::_Vector_base.22" = type { %"struct.std::_Vector_base<char, std::allocator<char>>::_Vector_impl" }
%"struct.std::_Vector_base<char, std::allocator<char>>::_Vector_impl" = type { %"struct.std::_Vector_base<char, std::allocator<char>>::_Vector_impl_data" }
%"struct.std::_Vector_base<char, std::allocator<char>>::_Vector_impl_data" = type { ptr, ptr, ptr }
%"struct.std::__is_move_insertable" = type { i8 }
%"struct.std::__is_move_insertable.30" = type { i8 }
%"struct.std::__is_move_insertable.34" = type { i8 }
%"struct.std::integral_constant" = type { i8 }

@_rbuf = external global ptr
@tokens = external global [33554432 x { i64, i8, i8, i16, i32 }]
@str35 = internal constant [26 x i8] c"vector::_M_realloc_insert\00"
@str34 = internal constant [16 x i8] c"vector::reserve\00"
@str33 = internal constant [36 x i8] c"Size larger than cap, dont do this\0A\00"
@store_fwd_col = external global ptr
@psg_cnt_col = external global ptr
@pick_month_col = external global ptr
@pick_day_col = external global ptr
@index_col = external global ptr
@str32 = internal constant [52 x i8] c"analyze_trip_durations_of_timestamps() on key = %s\0A\00"
@str31 = internal constant [60 x i8] c"Number of rows that have haversine_distance > 100 KM = %lu\0A\00"
@haversine_col = external global ptr
@str30 = internal constant [59 x i8] c"pickup_longitude_vec.size() == dropoff_latitude_vec.size()\00"
@str29 = internal constant [60 x i8] c"pickup_longitude_vec.size() == dropoff_longitude_vec.size()\00"
@str28 = internal constant [43 x i8] c"void calculate_haversine_distance_column()\00"
@str27 = internal constant [56 x i8] c"/users/Zijian/new_rt/apps/dataframe/new_app/all_step.cc\00"
@str26 = internal constant [58 x i8] c"pickup_longitude_vec.size() == pickup_latitude_vec.size()\00"
@drop_lat_col = external global ptr
@drop_long_col = external global ptr
@pick_lat_col = external global ptr
@pick_long_col = external global ptr
@str25 = internal constant [39 x i8] c"calculate_haversine_distance_column()\0A\00"
@str24 = internal constant [4 x i8] c"}\0A\0A\00"
@str23 = internal constant [5 x i8] c"%d, \00"
@str22 = internal constant [2 x i8] c"{\00"
@str21 = internal constant [4 x i8] c"%f\0A\00"
@str20 = internal constant [45 x i8] c"calculate_distribution_store_and_fwd_flag()\0A\00"
@str19 = internal constant [26 x i8] c"Max duration %lu seconds\0A\00"
@str18 = internal constant [26 x i8] c"Min duration %lu seconds\0A\00"
@str17 = internal constant [27 x i8] c"Mean duration %lu seconds\0A\00"
@duration_col = external global ptr
@str16 = internal constant [27 x i8] c"calculate_trip_duration()\0A\00"
@str15 = internal constant [2 x i8] c"\0A\00"
@str14 = internal constant [62 x i8] c"print_passage_counts_by_vendor_id(vendor_id), vendor_id = %d\0A\00"
@str13 = internal constant [56 x i8] c"Number of unique vendor_ids in the train dataset: %ld\0A\0A\00"
@vendor_id_col = external global ptr
@str12 = internal constant [48 x i8] c"number of vendor_ids in the train dataset: %ld\0A\00"
@str11 = internal constant [38 x i8] c"print_number_vendor_ids_and_unique()\0A\00"
@str10 = internal constant [15 x i8] c"Total: %.6f s\0A\00"
@str9 = internal constant [16 x i8] c"Step 8: %.6f s\0A\00"
@str8 = internal constant [16 x i8] c"Step 7: %.6f s\0A\00"
@str7 = internal constant [16 x i8] c"Step 5: %.6f s\0A\00"
@str6 = internal constant [16 x i8] c"Step 4: %.6f s\0A\00"
@str5 = internal constant [16 x i8] c"Step 3: %.6f s\0A\00"
@str4 = internal constant [18 x i8] c"Step 2-2: %.6f s\0A\00"
@str3 = internal constant [18 x i8] c"Step 2-1: %.6f s\0A\00"
@str2 = internal constant [16 x i8] c"Step 1: %.6f s\0A\00"
@str1 = internal constant [13 x i8] c"pickup_month\00"
@str0 = internal constant [11 x i8] c"pickup_day\00"

declare ptr @malloc(i64)

declare void @free(ptr)

declare void @poll_qid5(i32, i16)

declare i32 @cache_request_impl_1(i32, i64, i32, i8)

declare void @poll_qid11(i32, i16)

declare i32 @cache_request_impl_2(i32, i64, i32, i8)

declare void @poll_qid12(i32, i16)

declare i32 @cache_request_impl_12(i32, i64, i32, i8)

declare void @poll_qid3(i32, i16)

declare i32 @cache_request_impl_3(i32, i64, i32, i8)

declare void @poll_qid4(i32, i16)

declare i32 @cache_request_impl_4(i32, i64, i32, i8)

declare i32 @cache_request_impl_11(i32, i64, i32, i8)

declare i32 @cache_request_impl_5(i32, i64, i32, i8)

declare void @poll_qid7(i32, i16)

declare i32 @cache_request_impl_7(i32, i64, i32, i8)

declare i32 @cache_request_impl_10(i32, i64, i32, i8)

declare i32 @cache_request_impl_9(i32, i64, i32, i8)

declare i32 @cache_request_impl_8(i32, i64, i32, i8)

declare i32 @cache_request_impl_6(i32, i64, i32, i8)

declare void @__assert_fail(ptr, ptr, i32, ptr)

declare i32 @printf(ptr, ...)

define i32 @main() !dbg !3 {
  %1 = alloca %"struct.std::chrono::duration.0", i64 1, align 8, !dbg !7
  %2 = alloca %"struct.std::chrono::duration", i64 1, align 8, !dbg !9
  %3 = alloca %"struct.std::chrono::duration.0", i64 1, align 8, !dbg !10
  %4 = alloca %"struct.std::chrono::duration", i64 1, align 8, !dbg !11
  %5 = alloca %"struct.std::chrono::duration.0", i64 1, align 8, !dbg !12
  %6 = alloca %"struct.std::chrono::duration", i64 1, align 8, !dbg !13
  %7 = alloca %"struct.std::chrono::duration.0", i64 1, align 8, !dbg !14
  %8 = alloca %"struct.std::chrono::duration", i64 1, align 8, !dbg !15
  %9 = alloca %"struct.std::chrono::duration.0", i64 1, align 8, !dbg !16
  %10 = alloca %"struct.std::chrono::duration", i64 1, align 8, !dbg !17
  %11 = alloca %"struct.std::chrono::duration.0", i64 1, align 8, !dbg !18
  %12 = alloca %"struct.std::chrono::duration", i64 1, align 8, !dbg !19
  %13 = alloca %"struct.std::chrono::duration.0", i64 1, align 8, !dbg !20
  %14 = alloca %"struct.std::chrono::duration", i64 1, align 8, !dbg !21
  %15 = alloca %"struct.std::chrono::duration.0", i64 1, align 8, !dbg !22
  %16 = alloca %"struct.std::chrono::duration", i64 1, align 8, !dbg !23
  %17 = alloca %"struct.std::chrono::duration.0", i64 1, align 8, !dbg !24
  %18 = alloca %"struct.std::chrono::duration", i64 1, align 8, !dbg !25
  %19 = alloca %"struct.std::chrono::time_point", i64 1, align 8, !dbg !26
  %20 = alloca %"struct.std::chrono::time_point", i64 1, align 8, !dbg !27
  %21 = alloca %"struct.std::chrono::time_point", i64 1, align 8, !dbg !28
  %22 = alloca %"struct.std::chrono::time_point", i64 1, align 8, !dbg !29
  %23 = alloca %"struct.std::chrono::time_point", i64 1, align 8, !dbg !30
  %24 = alloca %"struct.std::chrono::time_point", i64 1, align 8, !dbg !31
  %25 = alloca %"struct.std::chrono::time_point", i64 1, align 8, !dbg !32
  %26 = alloca %"struct.std::chrono::time_point", i64 1, align 8, !dbg !33
  %27 = alloca %"struct.std::chrono::time_point", i64 1, align 8, !dbg !34
  %28 = alloca [10 x %"struct.std::chrono::time_point"], i64 1, align 8, !dbg !35
  call void @_Z9ext_setupv(), !dbg !36
  %29 = getelementptr [10 x %"struct.std::chrono::time_point"], ptr %28, i32 0, i32 0, !dbg !37
  br label %30, !dbg !38

30:                                               ; preds = %33, %0
  %31 = phi i64 [ %35, %33 ], [ 0, %0 ]
  %32 = icmp slt i64 %31, 10, !dbg !39
  br i1 %32, label %33, label %36, !dbg !40

33:                                               ; preds = %30
  %34 = getelementptr %"struct.std::chrono::time_point", ptr %29, i64 %31, !dbg !41
  call void @_ZNSt6chrono10time_pointINS_3_V212steady_clockENS_8durationIlSt5ratioILl1ELl1000000000EEEEEC1Ev(ptr %34), !dbg !42
  %35 = add i64 %31, 1, !dbg !43
  br label %30, !dbg !44

36:                                               ; preds = %30
  %37 = call %"struct.std::chrono::time_point" @_ZNSt6chrono3_V212steady_clock3nowEv(), !dbg !45
  store %"struct.std::chrono::time_point" %37, ptr %27, align 8, !dbg !46
  %38 = call ptr @_ZNSt6chrono10time_pointINS_3_V212steady_clockENS_8durationIlSt5ratioILl1ELl1000000000EEEEEaSEOS7_(ptr %29, ptr %27), !dbg !47
  call void @_Z34print_number_vendor_ids_and_uniquev(), !dbg !48
  %39 = getelementptr %"struct.std::chrono::time_point", ptr %29, i32 1, !dbg !49
  %40 = call %"struct.std::chrono::time_point" @_ZNSt6chrono3_V212steady_clock3nowEv(), !dbg !50
  store %"struct.std::chrono::time_point" %40, ptr %26, align 8, !dbg !51
  %41 = call ptr @_ZNSt6chrono10time_pointINS_3_V212steady_clockENS_8durationIlSt5ratioILl1ELl1000000000EEEEEaSEOS7_(ptr %39, ptr %26), !dbg !52
  call void @_Z33print_passage_counts_by_vendor_idi(i32 1), !dbg !53
  %42 = getelementptr %"struct.std::chrono::time_point", ptr %29, i32 2, !dbg !54
  %43 = call %"struct.std::chrono::time_point" @_ZNSt6chrono3_V212steady_clock3nowEv(), !dbg !55
  store %"struct.std::chrono::time_point" %43, ptr %25, align 8, !dbg !56
  %44 = call ptr @_ZNSt6chrono10time_pointINS_3_V212steady_clockENS_8durationIlSt5ratioILl1ELl1000000000EEEEEaSEOS7_(ptr %42, ptr %25), !dbg !57
  call void @_Z33print_passage_counts_by_vendor_idi(i32 2), !dbg !58
  %45 = getelementptr %"struct.std::chrono::time_point", ptr %29, i32 3, !dbg !59
  %46 = call %"struct.std::chrono::time_point" @_ZNSt6chrono3_V212steady_clock3nowEv(), !dbg !60
  store %"struct.std::chrono::time_point" %46, ptr %24, align 8, !dbg !61
  %47 = call ptr @_ZNSt6chrono10time_pointINS_3_V212steady_clockENS_8durationIlSt5ratioILl1ELl1000000000EEEEEaSEOS7_(ptr %45, ptr %24), !dbg !62
  call void @_Z23calculate_trip_durationv(), !dbg !63
  %48 = getelementptr %"struct.std::chrono::time_point", ptr %29, i32 4, !dbg !64
  %49 = call %"struct.std::chrono::time_point" @_ZNSt6chrono3_V212steady_clock3nowEv(), !dbg !65
  store %"struct.std::chrono::time_point" %49, ptr %23, align 8, !dbg !66
  %50 = call ptr @_ZNSt6chrono10time_pointINS_3_V212steady_clockENS_8durationIlSt5ratioILl1ELl1000000000EEEEEaSEOS7_(ptr %48, ptr %23), !dbg !67
  call void @_Z41calculate_distribution_store_and_fwd_flagv(), !dbg !68
  %51 = getelementptr %"struct.std::chrono::time_point", ptr %29, i32 5, !dbg !69
  %52 = call %"struct.std::chrono::time_point" @_ZNSt6chrono3_V212steady_clock3nowEv(), !dbg !70
  store %"struct.std::chrono::time_point" %52, ptr %22, align 8, !dbg !71
  %53 = call ptr @_ZNSt6chrono10time_pointINS_3_V212steady_clockENS_8durationIlSt5ratioILl1ELl1000000000EEEEEaSEOS7_(ptr %51, ptr %22), !dbg !72
  call void @_Z35calculate_haversine_distance_columnv(), !dbg !73
  %54 = getelementptr %"struct.std::chrono::time_point", ptr %29, i32 6, !dbg !74
  %55 = call %"struct.std::chrono::time_point" @_ZNSt6chrono3_V212steady_clock3nowEv(), !dbg !75
  store %"struct.std::chrono::time_point" %55, ptr %21, align 8, !dbg !76
  %56 = call ptr @_ZNSt6chrono10time_pointINS_3_V212steady_clockENS_8durationIlSt5ratioILl1ELl1000000000EEEEEaSEOS7_(ptr %54, ptr %21), !dbg !77
  call void @_Z29analyze_trip_durations_of_dayIsEvPKc(ptr @str0), !dbg !78
  %57 = getelementptr %"struct.std::chrono::time_point", ptr %29, i32 7, !dbg !79
  %58 = call %"struct.std::chrono::time_point" @_ZNSt6chrono3_V212steady_clock3nowEv(), !dbg !80
  store %"struct.std::chrono::time_point" %58, ptr %20, align 8, !dbg !81
  %59 = call ptr @_ZNSt6chrono10time_pointINS_3_V212steady_clockENS_8durationIlSt5ratioILl1ELl1000000000EEEEEaSEOS7_(ptr %57, ptr %20), !dbg !82
  call void @_Z31analyze_trip_durations_of_monthIsEvPKc(ptr @str1), !dbg !83
  %60 = getelementptr %"struct.std::chrono::time_point", ptr %29, i32 8, !dbg !84
  %61 = call %"struct.std::chrono::time_point" @_ZNSt6chrono3_V212steady_clock3nowEv(), !dbg !85
  store %"struct.std::chrono::time_point" %61, ptr %19, align 8, !dbg !86
  %62 = call ptr @_ZNSt6chrono10time_pointINS_3_V212steady_clockENS_8durationIlSt5ratioILl1ELl1000000000EEEEEaSEOS7_(ptr %60, ptr %19), !dbg !87
  %63 = call %"struct.std::chrono::duration" @_ZNSt6chronomiINS_3_V212steady_clockENS_8durationIlSt5ratioILl1ELl1000000000EEEES6_EENSt11common_typeIJT0_T1_EE4typeERKNS_10time_pointIT_S8_EERKNSC_ISD_S9_EE(ptr %39, ptr %29), !dbg !88
  store %"struct.std::chrono::duration" %63, ptr %18, align 8, !dbg !89
  %64 = call %"struct.std::chrono::duration.0" @_ZNSt6chrono13duration_castINS_8durationIlSt5ratioILl1ELl1000000EEEElS2_ILl1ELl1000000000EEEENSt9enable_ifIXsr13__is_durationIT_EE5valueES7_E4typeERKNS1_IT0_T1_EE(ptr %18), !dbg !90
  store %"struct.std::chrono::duration.0" %64, ptr %17, align 8, !dbg !91
  %65 = call i64 @_ZNKSt6chrono8durationIlSt5ratioILl1ELl1000000EEE5countEv(ptr %17), !dbg !92
  %66 = sitofp i64 %65 to double, !dbg !93
  %67 = fdiv double %66, 1.000000e+06, !dbg !94
  %68 = call i32 (ptr, ...) @printf(ptr @str2, double %67), !dbg !95
  %69 = call %"struct.std::chrono::duration" @_ZNSt6chronomiINS_3_V212steady_clockENS_8durationIlSt5ratioILl1ELl1000000000EEEES6_EENSt11common_typeIJT0_T1_EE4typeERKNS_10time_pointIT_S8_EERKNSC_ISD_S9_EE(ptr %42, ptr %39), !dbg !96
  store %"struct.std::chrono::duration" %69, ptr %16, align 8, !dbg !97
  %70 = call %"struct.std::chrono::duration.0" @_ZNSt6chrono13duration_castINS_8durationIlSt5ratioILl1ELl1000000EEEElS2_ILl1ELl1000000000EEEENSt9enable_ifIXsr13__is_durationIT_EE5valueES7_E4typeERKNS1_IT0_T1_EE(ptr %16), !dbg !98
  store %"struct.std::chrono::duration.0" %70, ptr %15, align 8, !dbg !99
  %71 = call i64 @_ZNKSt6chrono8durationIlSt5ratioILl1ELl1000000EEE5countEv(ptr %15), !dbg !100
  %72 = sitofp i64 %71 to double, !dbg !101
  %73 = fdiv double %72, 1.000000e+06, !dbg !102
  %74 = call i32 (ptr, ...) @printf(ptr @str3, double %73), !dbg !103
  %75 = call %"struct.std::chrono::duration" @_ZNSt6chronomiINS_3_V212steady_clockENS_8durationIlSt5ratioILl1ELl1000000000EEEES6_EENSt11common_typeIJT0_T1_EE4typeERKNS_10time_pointIT_S8_EERKNSC_ISD_S9_EE(ptr %45, ptr %42), !dbg !104
  store %"struct.std::chrono::duration" %75, ptr %14, align 8, !dbg !105
  %76 = call %"struct.std::chrono::duration.0" @_ZNSt6chrono13duration_castINS_8durationIlSt5ratioILl1ELl1000000EEEElS2_ILl1ELl1000000000EEEENSt9enable_ifIXsr13__is_durationIT_EE5valueES7_E4typeERKNS1_IT0_T1_EE(ptr %14), !dbg !106
  store %"struct.std::chrono::duration.0" %76, ptr %13, align 8, !dbg !107
  %77 = call i64 @_ZNKSt6chrono8durationIlSt5ratioILl1ELl1000000EEE5countEv(ptr %13), !dbg !108
  %78 = sitofp i64 %77 to double, !dbg !109
  %79 = fdiv double %78, 1.000000e+06, !dbg !110
  %80 = call i32 (ptr, ...) @printf(ptr @str4, double %79), !dbg !111
  %81 = call %"struct.std::chrono::duration" @_ZNSt6chronomiINS_3_V212steady_clockENS_8durationIlSt5ratioILl1ELl1000000000EEEES6_EENSt11common_typeIJT0_T1_EE4typeERKNS_10time_pointIT_S8_EERKNSC_ISD_S9_EE(ptr %48, ptr %45), !dbg !112
  store %"struct.std::chrono::duration" %81, ptr %12, align 8, !dbg !113
  %82 = call %"struct.std::chrono::duration.0" @_ZNSt6chrono13duration_castINS_8durationIlSt5ratioILl1ELl1000000EEEElS2_ILl1ELl1000000000EEEENSt9enable_ifIXsr13__is_durationIT_EE5valueES7_E4typeERKNS1_IT0_T1_EE(ptr %12), !dbg !114
  store %"struct.std::chrono::duration.0" %82, ptr %11, align 8, !dbg !115
  %83 = call i64 @_ZNKSt6chrono8durationIlSt5ratioILl1ELl1000000EEE5countEv(ptr %11), !dbg !116
  %84 = sitofp i64 %83 to double, !dbg !117
  %85 = fdiv double %84, 1.000000e+06, !dbg !118
  %86 = call i32 (ptr, ...) @printf(ptr @str5, double %85), !dbg !119
  %87 = call %"struct.std::chrono::duration" @_ZNSt6chronomiINS_3_V212steady_clockENS_8durationIlSt5ratioILl1ELl1000000000EEEES6_EENSt11common_typeIJT0_T1_EE4typeERKNS_10time_pointIT_S8_EERKNSC_ISD_S9_EE(ptr %51, ptr %48), !dbg !120
  store %"struct.std::chrono::duration" %87, ptr %10, align 8, !dbg !121
  %88 = call %"struct.std::chrono::duration.0" @_ZNSt6chrono13duration_castINS_8durationIlSt5ratioILl1ELl1000000EEEElS2_ILl1ELl1000000000EEEENSt9enable_ifIXsr13__is_durationIT_EE5valueES7_E4typeERKNS1_IT0_T1_EE(ptr %10), !dbg !122
  store %"struct.std::chrono::duration.0" %88, ptr %9, align 8, !dbg !123
  %89 = call i64 @_ZNKSt6chrono8durationIlSt5ratioILl1ELl1000000EEE5countEv(ptr %9), !dbg !124
  %90 = sitofp i64 %89 to double, !dbg !125
  %91 = fdiv double %90, 1.000000e+06, !dbg !126
  %92 = call i32 (ptr, ...) @printf(ptr @str6, double %91), !dbg !127
  %93 = call %"struct.std::chrono::duration" @_ZNSt6chronomiINS_3_V212steady_clockENS_8durationIlSt5ratioILl1ELl1000000000EEEES6_EENSt11common_typeIJT0_T1_EE4typeERKNS_10time_pointIT_S8_EERKNSC_ISD_S9_EE(ptr %54, ptr %51), !dbg !128
  store %"struct.std::chrono::duration" %93, ptr %8, align 8, !dbg !129
  %94 = call %"struct.std::chrono::duration.0" @_ZNSt6chrono13duration_castINS_8durationIlSt5ratioILl1ELl1000000EEEElS2_ILl1ELl1000000000EEEENSt9enable_ifIXsr13__is_durationIT_EE5valueES7_E4typeERKNS1_IT0_T1_EE(ptr %8), !dbg !130
  store %"struct.std::chrono::duration.0" %94, ptr %7, align 8, !dbg !131
  %95 = call i64 @_ZNKSt6chrono8durationIlSt5ratioILl1ELl1000000EEE5countEv(ptr %7), !dbg !132
  %96 = sitofp i64 %95 to double, !dbg !133
  %97 = fdiv double %96, 1.000000e+06, !dbg !134
  %98 = call i32 (ptr, ...) @printf(ptr @str7, double %97), !dbg !135
  %99 = call %"struct.std::chrono::duration" @_ZNSt6chronomiINS_3_V212steady_clockENS_8durationIlSt5ratioILl1ELl1000000000EEEES6_EENSt11common_typeIJT0_T1_EE4typeERKNS_10time_pointIT_S8_EERKNSC_ISD_S9_EE(ptr %57, ptr %54), !dbg !136
  store %"struct.std::chrono::duration" %99, ptr %6, align 8, !dbg !137
  %100 = call %"struct.std::chrono::duration.0" @_ZNSt6chrono13duration_castINS_8durationIlSt5ratioILl1ELl1000000EEEElS2_ILl1ELl1000000000EEEENSt9enable_ifIXsr13__is_durationIT_EE5valueES7_E4typeERKNS1_IT0_T1_EE(ptr %6), !dbg !138
  store %"struct.std::chrono::duration.0" %100, ptr %5, align 8, !dbg !139
  %101 = call i64 @_ZNKSt6chrono8durationIlSt5ratioILl1ELl1000000EEE5countEv(ptr %5), !dbg !140
  %102 = sitofp i64 %101 to double, !dbg !141
  %103 = fdiv double %102, 1.000000e+06, !dbg !142
  %104 = call i32 (ptr, ...) @printf(ptr @str8, double %103), !dbg !143
  %105 = call %"struct.std::chrono::duration" @_ZNSt6chronomiINS_3_V212steady_clockENS_8durationIlSt5ratioILl1ELl1000000000EEEES6_EENSt11common_typeIJT0_T1_EE4typeERKNS_10time_pointIT_S8_EERKNSC_ISD_S9_EE(ptr %60, ptr %57), !dbg !144
  store %"struct.std::chrono::duration" %105, ptr %4, align 8, !dbg !145
  %106 = call %"struct.std::chrono::duration.0" @_ZNSt6chrono13duration_castINS_8durationIlSt5ratioILl1ELl1000000EEEElS2_ILl1ELl1000000000EEEENSt9enable_ifIXsr13__is_durationIT_EE5valueES7_E4typeERKNS1_IT0_T1_EE(ptr %4), !dbg !146
  store %"struct.std::chrono::duration.0" %106, ptr %3, align 8, !dbg !147
  %107 = call i64 @_ZNKSt6chrono8durationIlSt5ratioILl1ELl1000000EEE5countEv(ptr %3), !dbg !148
  %108 = sitofp i64 %107 to double, !dbg !149
  %109 = fdiv double %108, 1.000000e+06, !dbg !150
  %110 = call i32 (ptr, ...) @printf(ptr @str9, double %109), !dbg !151
  %111 = call %"struct.std::chrono::duration" @_ZNSt6chronomiINS_3_V212steady_clockENS_8durationIlSt5ratioILl1ELl1000000000EEEES6_EENSt11common_typeIJT0_T1_EE4typeERKNS_10time_pointIT_S8_EERKNSC_ISD_S9_EE(ptr %60, ptr %29), !dbg !152
  store %"struct.std::chrono::duration" %111, ptr %2, align 8, !dbg !153
  %112 = call %"struct.std::chrono::duration.0" @_ZNSt6chrono13duration_castINS_8durationIlSt5ratioILl1ELl1000000EEEElS2_ILl1ELl1000000000EEEENSt9enable_ifIXsr13__is_durationIT_EE5valueES7_E4typeERKNS1_IT0_T1_EE(ptr %2), !dbg !154
  store %"struct.std::chrono::duration.0" %112, ptr %1, align 8, !dbg !155
  %113 = call i64 @_ZNKSt6chrono8durationIlSt5ratioILl1ELl1000000EEE5countEv(ptr %1), !dbg !156
  %114 = sitofp i64 %113 to double, !dbg !157
  %115 = fdiv double %114, 1.000000e+06, !dbg !158
  %116 = call i32 (ptr, ...) @printf(ptr @str10, double %115), !dbg !159
  ret i32 undef, !dbg !160
}

declare void @_Z9ext_setupv()

define linkonce_odr void @_ZNSt6chrono10time_pointINS_3_V212steady_clockENS_8durationIlSt5ratioILl1ELl1000000000EEEEEC1Ev(ptr %0) !dbg !161 {
  %2 = alloca %"struct.std::chrono::duration", i64 1, align 8, !dbg !162
  %3 = alloca %"struct.std::chrono::duration", i64 1, align 8, !dbg !164
  %4 = call %"struct.std::chrono::duration" @_ZNSt6chrono8durationIlSt5ratioILl1ELl1000000000EEE4zeroEv(), !dbg !165
  store %"struct.std::chrono::duration" %4, ptr %2, align 8, !dbg !166
  call void @_ZNSt6chrono8durationIlSt5ratioILl1ELl1000000000EEEC1ERKS3_(ptr %3, ptr %2), !dbg !167
  %5 = getelementptr %"struct.std::chrono::time_point", ptr %0, i32 0, i32 0, !dbg !168
  %6 = load %"struct.std::chrono::duration", ptr %3, align 8, !dbg !169
  store %"struct.std::chrono::duration" %6, ptr %5, align 8, !dbg !170
  ret void, !dbg !171
}

define linkonce_odr ptr @_ZNSt6chrono10time_pointINS_3_V212steady_clockENS_8durationIlSt5ratioILl1ELl1000000000EEEEEaSEOS7_(ptr %0, ptr %1) !dbg !172 {
  %3 = getelementptr %"struct.std::chrono::time_point", ptr %0, i32 0, i32 0, !dbg !173
  %4 = getelementptr %"struct.std::chrono::time_point", ptr %1, i32 0, i32 0, !dbg !175
  %5 = call ptr @_ZNSt6chrono8durationIlSt5ratioILl1ELl1000000000EEEaSERKS3_(ptr %3, ptr %4), !dbg !176
  ret ptr %0, !dbg !177
}

declare %"struct.std::chrono::time_point" @_ZNSt6chrono3_V212steady_clock3nowEv()

define void @_Z34print_number_vendor_ids_and_uniquev() !dbg !178 {
  %1 = call i32 (ptr, ...) @printf(ptr @str11), !dbg !179
  %2 = load ptr, ptr @vendor_id_col, align 8, !dbg !181
  %3 = call i64 @_ZNKSt6vectorIiSaIiEE4sizeEv__0(ptr %2), !dbg !182
  %4 = call i32 (ptr, ...) @printf(ptr @str12, i64 %3), !dbg !183
  %5 = call i64 @_Z21get_vid_unique_valuesv(), !dbg !184
  %6 = call i32 (ptr, ...) @printf(ptr @str13, i64 %5), !dbg !185
  ret void, !dbg !186
}

define void @_Z33print_passage_counts_by_vendor_idi(i32 %0) !dbg !187 {
  %2 = alloca %"class.std::vector", i64 1, align 8, !dbg !188
  %3 = alloca %class.anon, i64 1, align 8, !dbg !190
  %4 = alloca %class.anon, i64 1, align 8, !dbg !191
  %5 = alloca %class.anon, i64 1, align 8, !dbg !192
  %6 = alloca %class.anon, i64 1, align 8, !dbg !193
  %7 = alloca i32, i64 1, align 4, !dbg !194
  store i32 undef, ptr %7, align 4, !dbg !195
  store i32 %0, ptr %7, align 4, !dbg !196
  %8 = call i32 (ptr, ...) @printf(ptr @str14, i32 %0), !dbg !197
  %9 = getelementptr %class.anon, ptr %5, i32 0, i32 0, !dbg !198
  store ptr %7, ptr %9, align 8, !dbg !199
  %10 = load %class.anon, ptr %5, align 8, !dbg !200
  store %class.anon %10, ptr %4, align 8, !dbg !201
  call void @"_ZZ33print_passage_counts_by_vendor_idiEN3$_0C1EOS_"(ptr %6, ptr %4), !dbg !202
  %11 = load %class.anon, ptr %6, align 8, !dbg !203
  store %class.anon %11, ptr %3, align 8, !dbg !204
  call void @_ZNSt6vectorIiSaIiEEC1Ev(ptr %2), !dbg !205
  call void @"_Z14get_psg_by_vidIZ33print_passage_counts_by_vendor_idiE3$_0iEvRT_RSt6vectorIT0_SaIS4_EE"(ptr %3, ptr %2), !dbg !206
  %12 = call i64 @_ZNKSt6vectorIiSaIiEE4sizeEv(ptr %2), !dbg !207
  %13 = load i32, ptr %7, align 4, !dbg !208
  %14 = icmp eq i32 %13, 1, !dbg !209
  br i1 %14, label %15, label %24, !dbg !210

15:                                               ; preds = %1
  br label %16, !dbg !211

16:                                               ; preds = %19, %15
  %17 = phi i64 [ %22, %19 ], [ 0, %15 ]
  %18 = icmp slt i64 %17, %12, !dbg !212
  br i1 %18, label %19, label %23, !dbg !213

19:                                               ; preds = %16
  %20 = call ptr @_ZNSt6vectorIiSaIiEEixEm(ptr %2, i64 %17), !dbg !214
  %21 = load i32, ptr %20, align 4, !dbg !215
  call void @_Z20step21_passage_counti(i32 %21), !dbg !216
  %22 = add i64 %17, 1, !dbg !217
  br label %16, !dbg !218

23:                                               ; preds = %16
  call void @_Z19step21_count_resultv(), !dbg !219
  br label %33, !dbg !220

24:                                               ; preds = %1
  br label %25, !dbg !221

25:                                               ; preds = %28, %24
  %26 = phi i64 [ %31, %28 ], [ 0, %24 ]
  %27 = icmp slt i64 %26, %12, !dbg !222
  br i1 %27, label %28, label %32, !dbg !223

28:                                               ; preds = %25
  %29 = call ptr @_ZNSt6vectorIiSaIiEEixEm(ptr %2, i64 %26), !dbg !224
  %30 = load i32, ptr %29, align 4, !dbg !225
  call void @_Z20step22_passage_counti(i32 %30), !dbg !226
  %31 = add i64 %26, 1, !dbg !227
  br label %25, !dbg !228

32:                                               ; preds = %25
  call void @_Z19step22_count_resultv(), !dbg !229
  br label %33, !dbg !230

33:                                               ; preds = %23, %32
  %34 = call i32 (ptr, ...) @printf(ptr @str15), !dbg !231
  ret void, !dbg !232
}

define void @_Z23calculate_trip_durationv() !dbg !233 {
  %1 = alloca %class.MeanVisitor, i64 1, align 8, !dbg !234
  %2 = alloca %class.MinVisitor, i64 1, align 8, !dbg !236
  %3 = alloca %class.MaxVisitor, i64 1, align 8, !dbg !237
  %4 = call i32 (ptr, ...) @printf(ptr @str16), !dbg !238
  call void @_Z16prepare_durationv(), !dbg !239
  call void @_ZN10MaxVisitorImmEC1Ev(ptr %3), !dbg !240
  call void @_ZN10MinVisitorImmEC1Ev(ptr %2), !dbg !241
  call void @_ZN11MeanVisitorImmEC1Ev(ptr %1), !dbg !242
  call void @_Z5visitI10MaxVisitorImmE10MinVisitorImmE11MeanVisitorImmEEvRT_RT0_RT1_(ptr %3, ptr %2, ptr %1), !dbg !243
  %5 = call i64 @_ZNK11MeanVisitorImmE10get_resultEv(ptr %1), !dbg !244
  %6 = call i32 (ptr, ...) @printf(ptr @str17, i64 %5), !dbg !245
  %7 = call i64 @_ZNK10MinVisitorImmE10get_resultEv(ptr %2), !dbg !246
  %8 = call i32 (ptr, ...) @printf(ptr @str18, i64 %7), !dbg !247
  %9 = call i64 @_ZNK10MaxVisitorImmE10get_resultEv(ptr %3), !dbg !248
  %10 = call i32 (ptr, ...) @printf(ptr @str19, i64 %9), !dbg !249
  %11 = call i32 (ptr, ...) @printf(ptr @str15), !dbg !250
  ret void, !dbg !251
}

define void @_Z41calculate_distribution_store_and_fwd_flagv() !dbg !252 {
  %1 = alloca %"class.__gnu_cxx::__normal_iterator", i64 1, align 8, !dbg !253
  %2 = alloca %"class.__gnu_cxx::__normal_iterator", i64 1, align 8, !dbg !255
  %3 = alloca %"class.__gnu_cxx::__normal_iterator", i64 1, align 8, !dbg !256
  %4 = alloca %"class.__gnu_cxx::__normal_iterator", i64 1, align 8, !dbg !257
  %5 = alloca %"class.__gnu_cxx::__normal_iterator", i64 1, align 8, !dbg !258
  %6 = alloca %"class.__gnu_cxx::__normal_iterator", i64 1, align 8, !dbg !259
  %7 = alloca i32, i64 1, align 4, !dbg !260
  store i32 undef, ptr %7, align 4, !dbg !261
  %8 = alloca %"class.std::vector", i64 1, align 8, !dbg !262
  %9 = alloca %"class.std::vector", i64 1, align 8, !dbg !263
  %10 = alloca %class.anon.7, i64 1, align 8, !dbg !264
  %11 = alloca %class.anon.7, i64 1, align 8, !dbg !265
  %12 = alloca %"class.std::vector", i64 1, align 8, !dbg !266
  %13 = alloca %class.anon.6, i64 1, align 8, !dbg !267
  %14 = alloca %class.anon.6, i64 1, align 8, !dbg !268
  %15 = call i32 (ptr, ...) @printf(ptr @str20), !dbg !269
  %16 = load %class.anon.6, ptr %14, align 1, !dbg !270
  store %class.anon.6 %16, ptr %13, align 1, !dbg !271
  call void @_ZNSt6vectorIiSaIiEEC1Ev(ptr %12), !dbg !272
  call void @"_Z19get_vid_by_storefwdIZ41calculate_distribution_store_and_fwd_flagvE3$_0iEvRT_RSt6vectorIT0_SaIS4_EE"(ptr %13, ptr %12), !dbg !273
  %17 = call i64 @_ZNKSt6vectorIiSaIiEE4sizeEv(ptr %12), !dbg !274
  %18 = sitofp i64 %17 to double, !dbg !275
  %19 = call ptr @_Z9get_indexv(), !dbg !276
  %20 = call i64 @_ZNKSt6vectorImSaImEE4sizeEv(ptr %19), !dbg !277
  %21 = sitofp i64 %20 to double, !dbg !278
  %22 = fdiv double %18, %21, !dbg !279
  %23 = call i32 (ptr, ...) @printf(ptr @str21, double %22), !dbg !280
  %24 = load %class.anon.7, ptr %11, align 1, !dbg !281
  store %class.anon.7 %24, ptr %10, align 1, !dbg !282
  call void @_ZNSt6vectorIiSaIiEEC1Ev(ptr %9), !dbg !283
  call void @"_Z19get_vid_by_storefwdIZ41calculate_distribution_store_and_fwd_flagvE3$_1iEvRT_RSt6vectorIT0_SaIS4_EE"(ptr %10, ptr %9), !dbg !284
  call void @_ZNSt6vectorIiSaIiEEC1Ev(ptr %8), !dbg !285
  %25 = call i64 @_ZNKSt6vectorIiSaIiEE4sizeEv(ptr %9), !dbg !286
  br label %26, !dbg !287

26:                                               ; preds = %35, %0
  %27 = phi i64 [ %36, %35 ], [ 0, %0 ]
  %28 = icmp slt i64 %27, %25, !dbg !288
  br i1 %28, label %29, label %37, !dbg !289

29:                                               ; preds = %26
  %30 = call ptr @_ZNSt6vectorIiSaIiEEixEm(ptr %9, i64 %27), !dbg !290
  %31 = load i32, ptr %30, align 4, !dbg !291
  store i32 %31, ptr %7, align 4, !dbg !292
  %32 = call i8 @_Z15step4_firstTimei(i32 %31), !dbg !293
  %33 = icmp ne i8 %32, 0, !dbg !294
  br i1 %33, label %34, label %35, !dbg !295

34:                                               ; preds = %29
  call void @_ZNSt6vectorIiSaIiEE9push_backERKi(ptr %8, ptr %7), !dbg !296
  br label %35, !dbg !297

35:                                               ; preds = %34, %29
  %36 = add i64 %27, 1, !dbg !298
  br label %26, !dbg !299

37:                                               ; preds = %26
  %38 = call i32 (ptr, ...) @printf(ptr @str22), !dbg !300
  %39 = call %"class.__gnu_cxx::__normal_iterator" @_ZNSt6vectorIiSaIiEE5beginEv(ptr %8), !dbg !301
  store %"class.__gnu_cxx::__normal_iterator" %39, ptr %5, align 8, !dbg !302
  call void @_ZN9__gnu_cxx17__normal_iteratorIPiSt6vectorIiSaIiEEEC1EOS5_(ptr %6, ptr %5), !dbg !303
  %40 = load %"class.__gnu_cxx::__normal_iterator", ptr %6, align 8, !dbg !304
  store %"class.__gnu_cxx::__normal_iterator" %40, ptr %4, align 8, !dbg !305
  %41 = call %"class.__gnu_cxx::__normal_iterator" @_ZNSt6vectorIiSaIiEE3endEv(ptr %8), !dbg !306
  store %"class.__gnu_cxx::__normal_iterator" %41, ptr %2, align 8, !dbg !307
  call void @_ZN9__gnu_cxx17__normal_iteratorIPiSt6vectorIiSaIiEEEC1EOS5_(ptr %3, ptr %2), !dbg !308
  %42 = load %"class.__gnu_cxx::__normal_iterator", ptr %3, align 8, !dbg !309
  store %"class.__gnu_cxx::__normal_iterator" %42, ptr %1, align 8, !dbg !310
  br label %43, !dbg !311

43:                                               ; preds = %46, %37
  %44 = call i8 @_ZN9__gnu_cxxneIPiSt6vectorIiSaIiEEEEbRKNS_17__normal_iteratorIT_T0_EESA_(ptr %4, ptr %1), !dbg !312
  %45 = icmp ne i8 %44, 0, !dbg !313
  br i1 %45, label %46, label %51, !dbg !314

46:                                               ; preds = %43
  %47 = call ptr @_ZNK9__gnu_cxx17__normal_iteratorIPiSt6vectorIiSaIiEEEdeEv(ptr %4), !dbg !315
  %48 = load i32, ptr %47, align 4, !dbg !316
  %49 = call i32 (ptr, ...) @printf(ptr @str23, i32 %48), !dbg !317
  %50 = call ptr @_ZN9__gnu_cxx17__normal_iteratorIPiSt6vectorIiSaIiEEEppEv(ptr %4), !dbg !318
  br label %43, !dbg !319

51:                                               ; preds = %43
  %52 = call i32 (ptr, ...) @printf(ptr @str24), !dbg !320
  ret void, !dbg !321
}

define void @_Z35calculate_haversine_distance_columnv() !dbg !322 {
  %1 = alloca %"class.std::vector", i64 1, align 8, !dbg !323
  %2 = alloca %class.anon.14, i64 1, align 8, !dbg !325
  %3 = alloca %class.anon.14, i64 1, align 8, !dbg !326
  %4 = call i32 (ptr, ...) @printf(ptr @str25), !dbg !327
  %5 = load ptr, ptr @pick_long_col, align 8, !dbg !328
  %6 = load ptr, ptr @pick_lat_col, align 8, !dbg !329
  %7 = load ptr, ptr @drop_long_col, align 8, !dbg !330
  %8 = load ptr, ptr @drop_lat_col, align 8, !dbg !331
  %9 = call i64 @_ZNKSt6vectorIdSaIdEE4sizeEv__4(ptr %5), !dbg !332
  %10 = call i64 @_ZNKSt6vectorIdSaIdEE4sizeEv__3(ptr %6), !dbg !333
  %11 = icmp eq i64 %9, %10, !dbg !334
  br i1 %11, label %12, label %13, !dbg !335

12:                                               ; preds = %0
  br label %14, !dbg !336

13:                                               ; preds = %0
  call void @__assert_fail(ptr @str26, ptr @str27, i32 308, ptr @str28), !dbg !337
  br label %14, !dbg !338

14:                                               ; preds = %12, %13
  %15 = call i64 @_ZNKSt6vectorIdSaIdEE4sizeEv__4(ptr %5), !dbg !339
  %16 = call i64 @_ZNKSt6vectorIdSaIdEE4sizeEv__2(ptr %7), !dbg !340
  %17 = icmp eq i64 %15, %16, !dbg !341
  br i1 %17, label %18, label %19, !dbg !342

18:                                               ; preds = %14
  br label %20, !dbg !343

19:                                               ; preds = %14
  call void @__assert_fail(ptr @str29, ptr @str27, i32 309, ptr @str28), !dbg !344
  br label %20, !dbg !345

20:                                               ; preds = %18, %19
  %21 = call i64 @_ZNKSt6vectorIdSaIdEE4sizeEv__4(ptr %5), !dbg !346
  %22 = call i64 @_ZNKSt6vectorIdSaIdEE4sizeEv__1(ptr %8), !dbg !347
  %23 = icmp eq i64 %21, %22, !dbg !348
  br i1 %23, label %24, label %25, !dbg !349

24:                                               ; preds = %20
  br label %26, !dbg !350

25:                                               ; preds = %20
  call void @__assert_fail(ptr @str30, ptr @str27, i32 310, ptr @str28), !dbg !351
  br label %26, !dbg !352

26:                                               ; preds = %24, %25
  %27 = call i64 @_ZNKSt6vectorIdSaIdEE4sizeEv__3(ptr %6), !dbg !353
  %28 = load ptr, ptr @haversine_col, align 8, !dbg !354
  %29 = add i64 %27, 1023, !dbg !355
  %30 = sdiv i64 %29, 1024, !dbg !356
  %31 = alloca i32, i32 2, align 4, !dbg !357
  %32 = call ptr @_ZNSt6vectorIdSaIdEEixEm__0(ptr %28, i64 0), !dbg !358
  %33 = ptrtoint ptr %32 to i64, !dbg !359
  %34 = and i64 %33, -8192, !dbg !360
  %35 = udiv i64 %34, 8192, !dbg !361
  %36 = srem i64 %35, 36864, !dbg !362
  %37 = trunc i64 %36 to i32, !dbg !363
  %38 = call i32 @cache_request_impl_6(i32 0, i64 %34, i32 %37, i8 1), !dbg !364
  store i32 %37, ptr %31, align 4, !dbg !365
  %39 = alloca i32, i32 2, align 4, !dbg !366
  %40 = call ptr @_ZNSt6vectorIdSaIdEEixEm__2(ptr %7, i64 0), !dbg !367
  %41 = ptrtoint ptr %40 to i64, !dbg !368
  %42 = and i64 %41, -8192, !dbg !369
  %43 = udiv i64 %42, 8192, !dbg !370
  %44 = srem i64 %43, 36864, !dbg !371
  %45 = trunc i64 %44 to i32, !dbg !372
  %46 = call i32 @cache_request_impl_8(i32 0, i64 %42, i32 %45, i8 1), !dbg !373
  store i32 %45, ptr %39, align 4, !dbg !374
  %47 = alloca i32, i32 2, align 4, !dbg !375
  %48 = call ptr @_ZNSt6vectorIdSaIdEEixEm__3(ptr %6, i64 0), !dbg !376
  %49 = ptrtoint ptr %48 to i64, !dbg !377
  %50 = and i64 %49, -8192, !dbg !378
  %51 = udiv i64 %50, 8192, !dbg !379
  %52 = srem i64 %51, 36864, !dbg !380
  %53 = trunc i64 %52 to i32, !dbg !381
  %54 = call i32 @cache_request_impl_9(i32 0, i64 %50, i32 %53, i8 1), !dbg !382
  store i32 %53, ptr %47, align 4, !dbg !383
  %55 = alloca i32, i32 2, align 4, !dbg !384
  %56 = call ptr @_ZNSt6vectorIdSaIdEEixEm__4(ptr %5, i64 0), !dbg !385
  %57 = ptrtoint ptr %56 to i64, !dbg !386
  %58 = and i64 %57, -8192, !dbg !387
  %59 = udiv i64 %58, 8192, !dbg !388
  %60 = srem i64 %59, 36864, !dbg !389
  %61 = trunc i64 %60 to i32, !dbg !390
  %62 = call i32 @cache_request_impl_10(i32 0, i64 %58, i32 %61, i8 1), !dbg !391
  store i32 %61, ptr %55, align 4, !dbg !392
  %63 = alloca i32, i32 2, align 4, !dbg !393
  %64 = call ptr @_ZNSt6vectorIdSaIdEEixEm__1(ptr %8, i64 0), !dbg !394
  %65 = ptrtoint ptr %64 to i64, !dbg !395
  %66 = and i64 %65, -8192, !dbg !396
  %67 = udiv i64 %66, 8192, !dbg !397
  %68 = srem i64 %67, 36864, !dbg !398
  %69 = trunc i64 %68 to i32, !dbg !399
  %70 = call i32 @cache_request_impl_7(i32 0, i64 %66, i32 %69, i8 1), !dbg !400
  store i32 %69, ptr %63, align 4, !dbg !401
  br label %71, !dbg !402

71:                                               ; preds = %246, %26
  %72 = phi i64 [ %247, %246 ], [ 0, %26 ]
  %73 = icmp slt i64 %72, %30, !dbg !403
  br i1 %73, label %74, label %248, !dbg !404

74:                                               ; preds = %71
  %75 = add i64 %72, 1, !dbg !405
  %76 = icmp slt i64 %75, %30, !dbg !406
  br i1 %76, label %77, label %122, !dbg !407

77:                                               ; preds = %74
  %78 = srem i64 %75, 2, !dbg !408
  %79 = trunc i64 %78 to i32, !dbg !409
  %80 = mul i64 %75, 1024, !dbg !410
  %81 = call ptr @_ZNSt6vectorIdSaIdEEixEm__0(ptr %28, i64 %80), !dbg !411
  %82 = ptrtoint ptr %81 to i64, !dbg !412
  %83 = and i64 %82, -8192, !dbg !413
  %84 = udiv i64 %83, 8192, !dbg !414
  %85 = srem i64 %84, 36864, !dbg !415
  %86 = trunc i64 %85 to i32, !dbg !416
  %87 = call i32 @cache_request_impl_6(i32 0, i64 %83, i32 %86, i8 1), !dbg !417
  %88 = sext i32 %79 to i64, !dbg !418
  %89 = getelementptr i32, ptr %31, i64 %88, !dbg !419
  store i32 %86, ptr %89, align 4, !dbg !420
  %90 = call ptr @_ZNSt6vectorIdSaIdEEixEm__2(ptr %7, i64 %80), !dbg !421
  %91 = ptrtoint ptr %90 to i64, !dbg !422
  %92 = and i64 %91, -8192, !dbg !423
  %93 = udiv i64 %92, 8192, !dbg !424
  %94 = srem i64 %93, 36864, !dbg !425
  %95 = trunc i64 %94 to i32, !dbg !426
  %96 = call i32 @cache_request_impl_8(i32 0, i64 %92, i32 %95, i8 1), !dbg !427
  %97 = getelementptr i32, ptr %39, i64 %88, !dbg !428
  store i32 %95, ptr %97, align 4, !dbg !429
  %98 = call ptr @_ZNSt6vectorIdSaIdEEixEm__3(ptr %6, i64 %80), !dbg !430
  %99 = ptrtoint ptr %98 to i64, !dbg !431
  %100 = and i64 %99, -8192, !dbg !432
  %101 = udiv i64 %100, 8192, !dbg !433
  %102 = srem i64 %101, 36864, !dbg !434
  %103 = trunc i64 %102 to i32, !dbg !435
  %104 = call i32 @cache_request_impl_9(i32 0, i64 %100, i32 %103, i8 1), !dbg !436
  %105 = getelementptr i32, ptr %47, i64 %88, !dbg !437
  store i32 %103, ptr %105, align 4, !dbg !438
  %106 = call ptr @_ZNSt6vectorIdSaIdEEixEm__4(ptr %5, i64 %80), !dbg !439
  %107 = ptrtoint ptr %106 to i64, !dbg !440
  %108 = and i64 %107, -8192, !dbg !441
  %109 = udiv i64 %108, 8192, !dbg !442
  %110 = srem i64 %109, 36864, !dbg !443
  %111 = trunc i64 %110 to i32, !dbg !444
  %112 = call i32 @cache_request_impl_10(i32 0, i64 %108, i32 %111, i8 1), !dbg !445
  %113 = getelementptr i32, ptr %55, i64 %88, !dbg !446
  store i32 %111, ptr %113, align 4, !dbg !447
  %114 = call ptr @_ZNSt6vectorIdSaIdEEixEm__1(ptr %8, i64 %80), !dbg !448
  %115 = ptrtoint ptr %114 to i64, !dbg !449
  %116 = and i64 %115, -8192, !dbg !450
  %117 = udiv i64 %116, 8192, !dbg !451
  %118 = srem i64 %117, 36864, !dbg !452
  %119 = trunc i64 %118 to i32, !dbg !453
  %120 = call i32 @cache_request_impl_7(i32 0, i64 %116, i32 %119, i8 1), !dbg !454
  %121 = getelementptr i32, ptr %63, i64 %88, !dbg !455
  store i32 %119, ptr %121, align 4, !dbg !456
  br label %122, !dbg !457

122:                                              ; preds = %77, %74
  %123 = mul i64 %72, 1024, !dbg !458
  %124 = call ptr @_ZNSt6vectorIdSaIdEEixEm__0(ptr %28, i64 %123), !dbg !459
  %125 = srem i64 %72, 2, !dbg !460
  %126 = getelementptr i32, ptr %31, i64 %125, !dbg !461
  %127 = load i32, ptr %126, align 4, !dbg !462
  %128 = ptrtoint ptr %124 to i64, !dbg !463
  %129 = sext i32 %127 to i64, !dbg !464
  %130 = mul i64 %129, 8192, !dbg !465
  %131 = srem i64 %128, 8192, !dbg !466
  %132 = add i64 %130, %131, !dbg !467
  %133 = add i64 %132, 11811160064, !dbg !468
  %134 = load ptr, ptr @_rbuf, align 8, !dbg !469
  %135 = getelementptr i8, ptr %134, i64 %133, !dbg !470
  %136 = add i32 %127, 405504, !dbg !471
  %137 = sext i32 %136 to i64, !dbg !472
  %138 = getelementptr { i64, i8, i8, i16, i32 }, ptr @tokens, i64 %137, !dbg !473
  %139 = getelementptr { i64, i8, i8, i16, i32 }, ptr %138, i32 0, i32 1, !dbg !474
  %140 = load i8, ptr %139, align 1, !dbg !475
  %141 = or i8 %140, 2, !dbg !476
  store i8 %141, ptr %139, align 1, !dbg !477
  %142 = call ptr @_ZNSt6vectorIdSaIdEEixEm__2(ptr %7, i64 %123), !dbg !478
  %143 = getelementptr i32, ptr %39, i64 %125, !dbg !479
  %144 = load i32, ptr %143, align 4, !dbg !480
  %145 = ptrtoint ptr %142 to i64, !dbg !481
  %146 = sext i32 %144 to i64, !dbg !482
  %147 = mul i64 %146, 8192, !dbg !483
  %148 = srem i64 %145, 8192, !dbg !484
  %149 = add i64 %147, %148, !dbg !485
  %150 = add i64 %149, 7516192768, !dbg !486
  %151 = load ptr, ptr @_rbuf, align 8, !dbg !487
  %152 = getelementptr i8, ptr %151, i64 %150, !dbg !488
  %153 = call ptr @_ZNSt6vectorIdSaIdEEixEm__3(ptr %6, i64 %123), !dbg !489
  %154 = getelementptr i32, ptr %47, i64 %125, !dbg !490
  %155 = load i32, ptr %154, align 4, !dbg !491
  %156 = ptrtoint ptr %153 to i64, !dbg !492
  %157 = sext i32 %155 to i64, !dbg !493
  %158 = mul i64 %157, 8192, !dbg !494
  %159 = srem i64 %156, 8192, !dbg !495
  %160 = add i64 %158, %159, !dbg !496
  %161 = add i64 %160, 5368709120, !dbg !497
  %162 = load ptr, ptr @_rbuf, align 8, !dbg !498
  %163 = getelementptr i8, ptr %162, i64 %161, !dbg !499
  %164 = call ptr @_ZNSt6vectorIdSaIdEEixEm__4(ptr %5, i64 %123), !dbg !500
  %165 = getelementptr i32, ptr %55, i64 %125, !dbg !501
  %166 = load i32, ptr %165, align 4, !dbg !502
  %167 = ptrtoint ptr %164 to i64, !dbg !503
  %168 = sext i32 %166 to i64, !dbg !504
  %169 = mul i64 %168, 8192, !dbg !505
  %170 = srem i64 %167, 8192, !dbg !506
  %171 = add i64 %169, %170, !dbg !507
  %172 = add i64 %171, 4294967296, !dbg !508
  %173 = load ptr, ptr @_rbuf, align 8, !dbg !509
  %174 = getelementptr i8, ptr %173, i64 %172, !dbg !510
  %175 = call ptr @_ZNSt6vectorIdSaIdEEixEm__1(ptr %8, i64 %123), !dbg !511
  %176 = getelementptr i32, ptr %63, i64 %125, !dbg !512
  %177 = load i32, ptr %176, align 4, !dbg !513
  %178 = ptrtoint ptr %175 to i64, !dbg !514
  %179 = sext i32 %177 to i64, !dbg !515
  %180 = mul i64 %179, 8192, !dbg !516
  %181 = srem i64 %178, 8192, !dbg !517
  %182 = add i64 %180, %181, !dbg !518
  %183 = add i64 %182, 8589934592, !dbg !519
  %184 = load ptr, ptr @_rbuf, align 8, !dbg !520
  %185 = getelementptr i8, ptr %184, i64 %183, !dbg !521
  %186 = add i32 %177, 294912, !dbg !522
  %187 = sext i32 %186 to i64, !dbg !523
  %188 = getelementptr { i64, i8, i8, i16, i32 }, ptr @tokens, i64 %187, !dbg !524
  %189 = getelementptr { i64, i8, i8, i16, i32 }, ptr %188, i32 0, i32 3, !dbg !525
  %190 = load i16, ptr %189, align 2, !dbg !526
  call void @poll_qid7(i32 8, i16 %190), !dbg !527
  %191 = mul i64 %75, 1024, !dbg !528
  %192 = icmp sgt i64 %27, %191, !dbg !529
  br i1 %192, label %193, label %194, !dbg !530

193:                                              ; preds = %122
  br label %197, !dbg !531

194:                                              ; preds = %122
  %195 = mul i64 %72, 1024, !dbg !532
  %196 = sub i64 %27, %195, !dbg !533
  br label %197, !dbg !534

197:                                              ; preds = %193, %194
  %198 = phi i64 [ %196, %194 ], [ 1024, %193 ]
  br label %199, !dbg !535

199:                                              ; preds = %197
  %200 = mul i64 %72, 1024, !dbg !536
  br label %201, !dbg !537

201:                                              ; preds = %204, %199
  %202 = phi i64 [ %245, %204 ], [ 0, %199 ]
  %203 = icmp slt i64 %202, %198, !dbg !538
  br i1 %203, label %204, label %246, !dbg !539

204:                                              ; preds = %201
  %205 = add i64 %202, %200, !dbg !540
  %206 = getelementptr double, ptr %135, i64 %202, !dbg !541
  %207 = getelementptr double, ptr %152, i64 %202, !dbg !542
  %208 = getelementptr double, ptr %163, i64 %202, !dbg !543
  %209 = getelementptr double, ptr %174, i64 %202, !dbg !544
  %210 = getelementptr double, ptr %185, i64 %202, !dbg !545
  %211 = call ptr @_ZNSt6vectorIdSaIdEEixEm__0(ptr %28, i64 %205), !dbg !546
  %212 = call ptr @_ZNSt6vectorIdSaIdEEixEm__3(ptr %6, i64 %205), !dbg !547
  %213 = load double, ptr %208, align 8, !dbg !548
  %214 = call ptr @_ZNSt6vectorIdSaIdEEixEm__4(ptr %5, i64 %205), !dbg !549
  %215 = load double, ptr %209, align 8, !dbg !550
  %216 = call ptr @_ZNSt6vectorIdSaIdEEixEm__1(ptr %8, i64 %205), !dbg !551
  %217 = load double, ptr %210, align 8, !dbg !552
  %218 = call ptr @_ZNSt6vectorIdSaIdEEixEm__2(ptr %7, i64 %205), !dbg !553
  %219 = load double, ptr %207, align 8, !dbg !554
  %220 = fsub double %217, %213, !dbg !555
  %221 = fmul double %220, 0x400921FB54442D18, !dbg !556
  %222 = fdiv double %221, 1.800000e+02, !dbg !557
  %223 = fsub double %219, %215, !dbg !558
  %224 = fmul double %223, 0x400921FB54442D18, !dbg !559
  %225 = fdiv double %224, 1.800000e+02, !dbg !560
  %226 = fmul double %213, 0x400921FB54442D18, !dbg !561
  %227 = fdiv double %226, 1.800000e+02, !dbg !562
  %228 = fmul double %217, 0x400921FB54442D18, !dbg !563
  %229 = fdiv double %228, 1.800000e+02, !dbg !564
  %230 = fdiv double %222, 2.000000e+00, !dbg !565
  %231 = call double @llvm.sin.f64(double %230), !dbg !566
  %232 = call double @llvm.pow.f64(double %231, double 2.000000e+00), !dbg !567
  %233 = fdiv double %225, 2.000000e+00, !dbg !568
  %234 = call double @llvm.sin.f64(double %233), !dbg !569
  %235 = call double @llvm.pow.f64(double %234, double 2.000000e+00), !dbg !570
  %236 = call double @llvm.cos.f64(double %227), !dbg !571
  %237 = fmul double %235, %236, !dbg !572
  %238 = call double @llvm.cos.f64(double %229), !dbg !573
  %239 = fmul double %237, %238, !dbg !574
  %240 = fadd double %232, %239, !dbg !575
  %241 = call double @llvm.sqrt.f64(double %240), !dbg !576
  %242 = call double @asin(double %241), !dbg !577
  %243 = fmul double %242, 2.000000e+00, !dbg !578
  %244 = fmul double %243, 6.371000e+03, !dbg !579
  store double %244, ptr %206, align 8, !dbg !580
  %245 = add i64 %202, 1, !dbg !581
  br label %201, !dbg !582

246:                                              ; preds = %201
  %247 = add i64 %72, 1, !dbg !583
  br label %71, !dbg !584

248:                                              ; preds = %71
  call void @_Z12hvs_set_sizem(i64 %27), !dbg !585
  %249 = load %class.anon.14, ptr %3, align 1, !dbg !586
  store %class.anon.14 %249, ptr %2, align 1, !dbg !587
  call void @_ZNSt6vectorIiSaIiEEC1Ev(ptr %1), !dbg !588
  call void @"_Z20get_vid_by_haversineIZ35calculate_haversine_distance_columnvE3$_0iEvRT_RSt6vectorIT0_SaIS4_EE"(ptr %2, ptr %1), !dbg !589
  %250 = call i64 @_ZNKSt6vectorIiSaIiEE4sizeEv(ptr %1), !dbg !590
  %251 = call i32 (ptr, ...) @printf(ptr @str31, i64 %250), !dbg !591
  %252 = call i32 (ptr, ...) @printf(ptr @str15), !dbg !592
  ret void, !dbg !593
}

define linkonce_odr void @_Z29analyze_trip_durations_of_dayIsEvPKc(ptr %0) !dbg !594 {
  %2 = alloca i64, i64 1, align 8, !dbg !595
  store i64 undef, ptr %2, align 8, !dbg !597
  %3 = alloca i16, i64 1, align 2, !dbg !598
  store i16 undef, ptr %3, align 2, !dbg !599
  %4 = alloca i64, i64 1, align 8, !dbg !600
  store i64 undef, ptr %4, align 8, !dbg !601
  %5 = alloca %"class.std::vector.1", i64 1, align 8, !dbg !602
  %6 = alloca %"class.std::vector.16", i64 1, align 8, !dbg !603
  %7 = alloca %"class.std::vector.1", i64 1, align 8, !dbg !604
  %8 = call i32 (ptr, ...) @printf(ptr @str32, ptr %0), !dbg !605
  %9 = load ptr, ptr @index_col, align 8, !dbg !606
  %10 = load ptr, ptr @pick_day_col, align 8, !dbg !607
  %11 = load ptr, ptr @duration_col, align 8, !dbg !608
  %12 = call i64 @_ZNKSt6vectorImSaImEE4sizeEv__0(ptr %9), !dbg !609
  call void @_ZNSt6vectorImSaImEEC1Ev(ptr %7), !dbg !610
  call void @_ZNSt6vectorImSaImEE7reserveEm(ptr %7, i64 %12), !dbg !611
  call void @_ZNSt6vectorIsSaIsEEC1Ev(ptr %6), !dbg !612
  call void @_ZNSt6vectorIsSaIsEE7reserveEm(ptr %6, i64 %12), !dbg !613
  call void @_ZNSt6vectorImSaImEEC1Ev(ptr %5), !dbg !614
  call void @_ZNSt6vectorImSaImEE7reserveEm(ptr %5, i64 %12), !dbg !615
  %13 = add i64 %12, 1023, !dbg !616
  %14 = sdiv i64 %13, 1024, !dbg !617
  %15 = alloca i32, i32 2, align 4, !dbg !618
  %16 = call ptr @_ZNSt6vectorImSaImEEixEm__0(ptr %9, i64 0), !dbg !619
  %17 = ptrtoint ptr %16 to i64, !dbg !620
  %18 = and i64 %17, -8192, !dbg !621
  %19 = udiv i64 %18, 8192, !dbg !622
  %20 = srem i64 %19, 36864, !dbg !623
  %21 = trunc i64 %20 to i32, !dbg !624
  %22 = call i32 @cache_request_impl_5(i32 0, i64 %18, i32 %21, i8 1), !dbg !625
  store i32 %21, ptr %15, align 4, !dbg !626
  %23 = alloca i32, i32 2, align 4, !dbg !627
  %24 = call ptr @_ZNSt6vectorImSaImEEixEm__1(ptr %11, i64 0), !dbg !628
  %25 = ptrtoint ptr %24 to i64, !dbg !629
  %26 = and i64 %25, -8192, !dbg !630
  %27 = udiv i64 %26, 8192, !dbg !631
  %28 = srem i64 %27, 36864, !dbg !632
  %29 = trunc i64 %28 to i32, !dbg !633
  %30 = call i32 @cache_request_impl_11(i32 0, i64 %26, i32 %29, i8 1), !dbg !634
  store i32 %29, ptr %23, align 4, !dbg !635
  %31 = alloca i32, i32 2, align 4, !dbg !636
  %32 = call ptr @_ZNSt6vectorIsSaIsEEixEm__1(ptr %10, i64 0), !dbg !637
  %33 = ptrtoint ptr %32 to i64, !dbg !638
  %34 = and i64 %33, -2048, !dbg !639
  %35 = udiv i64 %34, 2048, !dbg !640
  %36 = srem i64 %35, 36864, !dbg !641
  %37 = trunc i64 %36 to i32, !dbg !642
  %38 = call i32 @cache_request_impl_4(i32 0, i64 %34, i32 %37, i8 1), !dbg !643
  store i32 %37, ptr %31, align 4, !dbg !644
  br label %39, !dbg !645

39:                                               ; preds = %140, %1
  %40 = phi i64 [ %141, %140 ], [ 0, %1 ]
  %41 = icmp slt i64 %40, %14, !dbg !646
  br i1 %41, label %42, label %142, !dbg !647

42:                                               ; preds = %39
  %43 = add i64 %40, 1, !dbg !648
  %44 = icmp slt i64 %43, %14, !dbg !649
  br i1 %44, label %45, label %74, !dbg !650

45:                                               ; preds = %42
  %46 = srem i64 %43, 2, !dbg !651
  %47 = trunc i64 %46 to i32, !dbg !652
  %48 = mul i64 %43, 1024, !dbg !653
  %49 = call ptr @_ZNSt6vectorImSaImEEixEm__0(ptr %9, i64 %48), !dbg !654
  %50 = ptrtoint ptr %49 to i64, !dbg !655
  %51 = and i64 %50, -8192, !dbg !656
  %52 = udiv i64 %51, 8192, !dbg !657
  %53 = srem i64 %52, 36864, !dbg !658
  %54 = trunc i64 %53 to i32, !dbg !659
  %55 = call i32 @cache_request_impl_5(i32 0, i64 %51, i32 %54, i8 1), !dbg !660
  %56 = sext i32 %47 to i64, !dbg !661
  %57 = getelementptr i32, ptr %15, i64 %56, !dbg !662
  store i32 %54, ptr %57, align 4, !dbg !663
  %58 = call ptr @_ZNSt6vectorImSaImEEixEm__1(ptr %11, i64 %48), !dbg !664
  %59 = ptrtoint ptr %58 to i64, !dbg !665
  %60 = and i64 %59, -8192, !dbg !666
  %61 = udiv i64 %60, 8192, !dbg !667
  %62 = srem i64 %61, 36864, !dbg !668
  %63 = trunc i64 %62 to i32, !dbg !669
  %64 = call i32 @cache_request_impl_11(i32 0, i64 %60, i32 %63, i8 1), !dbg !670
  %65 = getelementptr i32, ptr %23, i64 %56, !dbg !671
  store i32 %63, ptr %65, align 4, !dbg !672
  %66 = call ptr @_ZNSt6vectorIsSaIsEEixEm__1(ptr %10, i64 %48), !dbg !673
  %67 = ptrtoint ptr %66 to i64, !dbg !674
  %68 = and i64 %67, -2048, !dbg !675
  %69 = udiv i64 %68, 2048, !dbg !676
  %70 = srem i64 %69, 36864, !dbg !677
  %71 = trunc i64 %70 to i32, !dbg !678
  %72 = call i32 @cache_request_impl_4(i32 0, i64 %68, i32 %71, i8 1), !dbg !679
  %73 = getelementptr i32, ptr %31, i64 %56, !dbg !680
  store i32 %71, ptr %73, align 4, !dbg !681
  br label %74, !dbg !682

74:                                               ; preds = %45, %42
  %75 = mul i64 %40, 1024, !dbg !683
  %76 = call ptr @_ZNSt6vectorImSaImEEixEm__0(ptr %9, i64 %75), !dbg !684
  %77 = srem i64 %40, 2, !dbg !685
  %78 = getelementptr i32, ptr %15, i64 %77, !dbg !686
  %79 = load i32, ptr %78, align 4, !dbg !687
  %80 = ptrtoint ptr %76 to i64, !dbg !688
  %81 = sext i32 %79 to i64, !dbg !689
  %82 = mul i64 %81, 8192, !dbg !690
  %83 = srem i64 %80, 8192, !dbg !691
  %84 = add i64 %82, %83, !dbg !692
  %85 = add i64 %84, 9663676416, !dbg !693
  %86 = load ptr, ptr @_rbuf, align 8, !dbg !694
  %87 = getelementptr i8, ptr %86, i64 %85, !dbg !695
  %88 = call ptr @_ZNSt6vectorImSaImEEixEm__1(ptr %11, i64 %75), !dbg !696
  %89 = getelementptr i32, ptr %23, i64 %77, !dbg !697
  %90 = load i32, ptr %89, align 4, !dbg !698
  %91 = ptrtoint ptr %88 to i64, !dbg !699
  %92 = sext i32 %90 to i64, !dbg !700
  %93 = mul i64 %92, 8192, !dbg !701
  %94 = srem i64 %91, 8192, !dbg !702
  %95 = add i64 %93, %94, !dbg !703
  %96 = add i64 %95, 10737418240, !dbg !704
  %97 = load ptr, ptr @_rbuf, align 8, !dbg !705
  %98 = getelementptr i8, ptr %97, i64 %96, !dbg !706
  %99 = call ptr @_ZNSt6vectorIsSaIsEEixEm__1(ptr %10, i64 %75), !dbg !707
  %100 = getelementptr i32, ptr %31, i64 %77, !dbg !708
  %101 = load i32, ptr %100, align 4, !dbg !709
  %102 = ptrtoint ptr %99 to i64, !dbg !710
  %103 = sext i32 %101 to i64, !dbg !711
  %104 = mul i64 %103, 2048, !dbg !712
  %105 = srem i64 %102, 2048, !dbg !713
  %106 = add i64 %104, %105, !dbg !714
  %107 = add i64 %106, 12884901888, !dbg !715
  %108 = load ptr, ptr @_rbuf, align 8, !dbg !716
  %109 = getelementptr i8, ptr %108, i64 %107, !dbg !717
  %110 = add i32 %101, 442368, !dbg !718
  %111 = sext i32 %110 to i64, !dbg !719
  %112 = getelementptr { i64, i8, i8, i16, i32 }, ptr @tokens, i64 %111, !dbg !720
  %113 = getelementptr { i64, i8, i8, i16, i32 }, ptr %112, i32 0, i32 3, !dbg !721
  %114 = load i16, ptr %113, align 2, !dbg !722
  call void @poll_qid4(i32 12, i16 %114), !dbg !723
  %115 = mul i64 %43, 1024, !dbg !724
  %116 = icmp sgt i64 %12, %115, !dbg !725
  br i1 %116, label %117, label %118, !dbg !726

117:                                              ; preds = %74
  br label %121, !dbg !727

118:                                              ; preds = %74
  %119 = mul i64 %40, 1024, !dbg !728
  %120 = sub i64 %12, %119, !dbg !729
  br label %121, !dbg !730

121:                                              ; preds = %117, %118
  %122 = phi i64 [ %120, %118 ], [ 1024, %117 ]
  br label %123, !dbg !731

123:                                              ; preds = %121
  %124 = mul i64 %40, 1024, !dbg !732
  br label %125, !dbg !733

125:                                              ; preds = %128, %123
  %126 = phi i64 [ %139, %128 ], [ 0, %123 ]
  %127 = icmp slt i64 %126, %122, !dbg !734
  br i1 %127, label %128, label %140, !dbg !735

128:                                              ; preds = %125
  %129 = add i64 %126, %124, !dbg !736
  %130 = getelementptr i64, ptr %87, i64 %126, !dbg !737
  %131 = getelementptr i64, ptr %98, i64 %126, !dbg !738
  %132 = getelementptr i16, ptr %109, i64 %126, !dbg !739
  %133 = call ptr @_ZNSt6vectorImSaImEEixEm__0(ptr %9, i64 %129), !dbg !740
  %134 = load i64, ptr %130, align 8, !dbg !741
  store i64 %134, ptr %4, align 8, !dbg !742
  %135 = call ptr @_ZNSt6vectorIsSaIsEEixEm__1(ptr %10, i64 %129), !dbg !743
  %136 = load i16, ptr %132, align 2, !dbg !744
  store i16 %136, ptr %3, align 2, !dbg !745
  %137 = call ptr @_ZNSt6vectorImSaImEEixEm__1(ptr %11, i64 %129), !dbg !746
  %138 = load i64, ptr %131, align 8, !dbg !747
  store i64 %138, ptr %2, align 8, !dbg !748
  call void @_ZNSt6vectorImSaImEE9push_backERKm(ptr %7, ptr %4), !dbg !749
  call void @_ZNSt6vectorIsSaIsEE9push_backERKs(ptr %6, ptr %3), !dbg !750
  call void @_ZNSt6vectorImSaImEE9push_backERKm(ptr %5, ptr %2), !dbg !751
  %139 = add i64 %126, 1, !dbg !752
  br label %125, !dbg !753

140:                                              ; preds = %125
  %141 = add i64 %40, 1, !dbg !754
  br label %39, !dbg !755

142:                                              ; preds = %39
  call void @_Z24step7_process_after_copyPKcRSt6vectorImSaImEERS1_IsSaIsEES4_(ptr %0, ptr %7, ptr %6, ptr %5), !dbg !756
  ret void, !dbg !757
}

define linkonce_odr void @_Z31analyze_trip_durations_of_monthIsEvPKc(ptr %0) !dbg !758 {
  %2 = alloca i64, i64 1, align 8, !dbg !759
  store i64 undef, ptr %2, align 8, !dbg !761
  %3 = alloca i16, i64 1, align 2, !dbg !762
  store i16 undef, ptr %3, align 2, !dbg !763
  %4 = alloca i64, i64 1, align 8, !dbg !764
  store i64 undef, ptr %4, align 8, !dbg !765
  %5 = alloca %"class.std::vector.1", i64 1, align 8, !dbg !766
  %6 = alloca %"class.std::vector.16", i64 1, align 8, !dbg !767
  %7 = alloca %"class.std::vector.1", i64 1, align 8, !dbg !768
  %8 = call i32 (ptr, ...) @printf(ptr @str32, ptr %0), !dbg !769
  %9 = load ptr, ptr @index_col, align 8, !dbg !770
  %10 = load ptr, ptr @pick_month_col, align 8, !dbg !771
  %11 = load ptr, ptr @duration_col, align 8, !dbg !772
  %12 = call i64 @_ZNKSt6vectorImSaImEE4sizeEv__0(ptr %9), !dbg !773
  call void @_ZNSt6vectorImSaImEEC1Ev(ptr %7), !dbg !774
  call void @_ZNSt6vectorImSaImEE7reserveEm(ptr %7, i64 %12), !dbg !775
  call void @_ZNSt6vectorIsSaIsEEC1Ev(ptr %6), !dbg !776
  call void @_ZNSt6vectorIsSaIsEE7reserveEm(ptr %6, i64 %12), !dbg !777
  call void @_ZNSt6vectorImSaImEEC1Ev(ptr %5), !dbg !778
  call void @_ZNSt6vectorImSaImEE7reserveEm(ptr %5, i64 %12), !dbg !779
  %13 = add i64 %12, 1023, !dbg !780
  %14 = sdiv i64 %13, 1024, !dbg !781
  %15 = alloca i32, i32 2, align 4, !dbg !782
  %16 = call ptr @_ZNSt6vectorImSaImEEixEm__1(ptr %11, i64 0), !dbg !783
  %17 = ptrtoint ptr %16 to i64, !dbg !784
  %18 = and i64 %17, -8192, !dbg !785
  %19 = udiv i64 %18, 8192, !dbg !786
  %20 = srem i64 %19, 36864, !dbg !787
  %21 = trunc i64 %20 to i32, !dbg !788
  %22 = call i32 @cache_request_impl_11(i32 0, i64 %18, i32 %21, i8 1), !dbg !789
  store i32 %21, ptr %15, align 4, !dbg !790
  %23 = alloca i32, i32 2, align 4, !dbg !791
  %24 = call ptr @_ZNSt6vectorImSaImEEixEm__0(ptr %9, i64 0), !dbg !792
  %25 = ptrtoint ptr %24 to i64, !dbg !793
  %26 = and i64 %25, -8192, !dbg !794
  %27 = udiv i64 %26, 8192, !dbg !795
  %28 = srem i64 %27, 36864, !dbg !796
  %29 = trunc i64 %28 to i32, !dbg !797
  %30 = call i32 @cache_request_impl_5(i32 0, i64 %26, i32 %29, i8 1), !dbg !798
  store i32 %29, ptr %23, align 4, !dbg !799
  %31 = alloca i32, i32 2, align 4, !dbg !800
  %32 = call ptr @_ZNSt6vectorIsSaIsEEixEm__0(ptr %10, i64 0), !dbg !801
  %33 = ptrtoint ptr %32 to i64, !dbg !802
  %34 = and i64 %33, -2048, !dbg !803
  %35 = udiv i64 %34, 2048, !dbg !804
  %36 = srem i64 %35, 36864, !dbg !805
  %37 = trunc i64 %36 to i32, !dbg !806
  %38 = call i32 @cache_request_impl_3(i32 0, i64 %34, i32 %37, i8 1), !dbg !807
  store i32 %37, ptr %31, align 4, !dbg !808
  br label %39, !dbg !809

39:                                               ; preds = %140, %1
  %40 = phi i64 [ %141, %140 ], [ 0, %1 ]
  %41 = icmp slt i64 %40, %14, !dbg !810
  br i1 %41, label %42, label %142, !dbg !811

42:                                               ; preds = %39
  %43 = add i64 %40, 1, !dbg !812
  %44 = icmp slt i64 %43, %14, !dbg !813
  br i1 %44, label %45, label %74, !dbg !814

45:                                               ; preds = %42
  %46 = srem i64 %43, 2, !dbg !815
  %47 = trunc i64 %46 to i32, !dbg !816
  %48 = mul i64 %43, 1024, !dbg !817
  %49 = call ptr @_ZNSt6vectorImSaImEEixEm__1(ptr %11, i64 %48), !dbg !818
  %50 = ptrtoint ptr %49 to i64, !dbg !819
  %51 = and i64 %50, -8192, !dbg !820
  %52 = udiv i64 %51, 8192, !dbg !821
  %53 = srem i64 %52, 36864, !dbg !822
  %54 = trunc i64 %53 to i32, !dbg !823
  %55 = call i32 @cache_request_impl_11(i32 0, i64 %51, i32 %54, i8 1), !dbg !824
  %56 = sext i32 %47 to i64, !dbg !825
  %57 = getelementptr i32, ptr %15, i64 %56, !dbg !826
  store i32 %54, ptr %57, align 4, !dbg !827
  %58 = call ptr @_ZNSt6vectorImSaImEEixEm__0(ptr %9, i64 %48), !dbg !828
  %59 = ptrtoint ptr %58 to i64, !dbg !829
  %60 = and i64 %59, -8192, !dbg !830
  %61 = udiv i64 %60, 8192, !dbg !831
  %62 = srem i64 %61, 36864, !dbg !832
  %63 = trunc i64 %62 to i32, !dbg !833
  %64 = call i32 @cache_request_impl_5(i32 0, i64 %60, i32 %63, i8 1), !dbg !834
  %65 = getelementptr i32, ptr %23, i64 %56, !dbg !835
  store i32 %63, ptr %65, align 4, !dbg !836
  %66 = call ptr @_ZNSt6vectorIsSaIsEEixEm__0(ptr %10, i64 %48), !dbg !837
  %67 = ptrtoint ptr %66 to i64, !dbg !838
  %68 = and i64 %67, -2048, !dbg !839
  %69 = udiv i64 %68, 2048, !dbg !840
  %70 = srem i64 %69, 36864, !dbg !841
  %71 = trunc i64 %70 to i32, !dbg !842
  %72 = call i32 @cache_request_impl_3(i32 0, i64 %68, i32 %71, i8 1), !dbg !843
  %73 = getelementptr i32, ptr %31, i64 %56, !dbg !844
  store i32 %71, ptr %73, align 4, !dbg !845
  br label %74, !dbg !846

74:                                               ; preds = %45, %42
  %75 = mul i64 %40, 1024, !dbg !847
  %76 = call ptr @_ZNSt6vectorImSaImEEixEm__1(ptr %11, i64 %75), !dbg !848
  %77 = srem i64 %40, 2, !dbg !849
  %78 = getelementptr i32, ptr %15, i64 %77, !dbg !850
  %79 = load i32, ptr %78, align 4, !dbg !851
  %80 = ptrtoint ptr %76 to i64, !dbg !852
  %81 = sext i32 %79 to i64, !dbg !853
  %82 = mul i64 %81, 8192, !dbg !854
  %83 = srem i64 %80, 8192, !dbg !855
  %84 = add i64 %82, %83, !dbg !856
  %85 = add i64 %84, 10737418240, !dbg !857
  %86 = load ptr, ptr @_rbuf, align 8, !dbg !858
  %87 = getelementptr i8, ptr %86, i64 %85, !dbg !859
  %88 = call ptr @_ZNSt6vectorImSaImEEixEm__0(ptr %9, i64 %75), !dbg !860
  %89 = getelementptr i32, ptr %23, i64 %77, !dbg !861
  %90 = load i32, ptr %89, align 4, !dbg !862
  %91 = ptrtoint ptr %88 to i64, !dbg !863
  %92 = sext i32 %90 to i64, !dbg !864
  %93 = mul i64 %92, 8192, !dbg !865
  %94 = srem i64 %91, 8192, !dbg !866
  %95 = add i64 %93, %94, !dbg !867
  %96 = add i64 %95, 9663676416, !dbg !868
  %97 = load ptr, ptr @_rbuf, align 8, !dbg !869
  %98 = getelementptr i8, ptr %97, i64 %96, !dbg !870
  %99 = call ptr @_ZNSt6vectorIsSaIsEEixEm__0(ptr %10, i64 %75), !dbg !871
  %100 = getelementptr i32, ptr %31, i64 %77, !dbg !872
  %101 = load i32, ptr %100, align 4, !dbg !873
  %102 = ptrtoint ptr %99 to i64, !dbg !874
  %103 = sext i32 %101 to i64, !dbg !875
  %104 = mul i64 %103, 2048, !dbg !876
  %105 = srem i64 %102, 2048, !dbg !877
  %106 = add i64 %104, %105, !dbg !878
  %107 = add i64 %106, 13958643712, !dbg !879
  %108 = load ptr, ptr @_rbuf, align 8, !dbg !880
  %109 = getelementptr i8, ptr %108, i64 %107, !dbg !881
  %110 = add i32 %101, 479232, !dbg !882
  %111 = sext i32 %110 to i64, !dbg !883
  %112 = getelementptr { i64, i8, i8, i16, i32 }, ptr @tokens, i64 %111, !dbg !884
  %113 = getelementptr { i64, i8, i8, i16, i32 }, ptr %112, i32 0, i32 3, !dbg !885
  %114 = load i16, ptr %113, align 2, !dbg !886
  call void @poll_qid3(i32 13, i16 %114), !dbg !887
  %115 = mul i64 %43, 1024, !dbg !888
  %116 = icmp sgt i64 %12, %115, !dbg !889
  br i1 %116, label %117, label %118, !dbg !890

117:                                              ; preds = %74
  br label %121, !dbg !891

118:                                              ; preds = %74
  %119 = mul i64 %40, 1024, !dbg !892
  %120 = sub i64 %12, %119, !dbg !893
  br label %121, !dbg !894

121:                                              ; preds = %117, %118
  %122 = phi i64 [ %120, %118 ], [ 1024, %117 ]
  br label %123, !dbg !895

123:                                              ; preds = %121
  %124 = mul i64 %40, 1024, !dbg !896
  br label %125, !dbg !897

125:                                              ; preds = %128, %123
  %126 = phi i64 [ %139, %128 ], [ 0, %123 ]
  %127 = icmp slt i64 %126, %122, !dbg !898
  br i1 %127, label %128, label %140, !dbg !899

128:                                              ; preds = %125
  %129 = add i64 %126, %124, !dbg !900
  %130 = getelementptr i64, ptr %87, i64 %126, !dbg !901
  %131 = getelementptr i64, ptr %98, i64 %126, !dbg !902
  %132 = getelementptr i16, ptr %109, i64 %126, !dbg !903
  %133 = call ptr @_ZNSt6vectorImSaImEEixEm__0(ptr %9, i64 %129), !dbg !904
  %134 = load i64, ptr %131, align 8, !dbg !905
  store i64 %134, ptr %4, align 8, !dbg !906
  %135 = call ptr @_ZNSt6vectorIsSaIsEEixEm__0(ptr %10, i64 %129), !dbg !907
  %136 = load i16, ptr %132, align 2, !dbg !908
  store i16 %136, ptr %3, align 2, !dbg !909
  %137 = call ptr @_ZNSt6vectorImSaImEEixEm__1(ptr %11, i64 %129), !dbg !910
  %138 = load i64, ptr %130, align 8, !dbg !911
  store i64 %138, ptr %2, align 8, !dbg !912
  call void @_ZNSt6vectorImSaImEE9push_backERKm(ptr %7, ptr %4), !dbg !913
  call void @_ZNSt6vectorIsSaIsEE9push_backERKs(ptr %6, ptr %3), !dbg !914
  call void @_ZNSt6vectorImSaImEE9push_backERKm(ptr %5, ptr %2), !dbg !915
  %139 = add i64 %126, 1, !dbg !916
  br label %125, !dbg !917

140:                                              ; preds = %125
  %141 = add i64 %40, 1, !dbg !918
  br label %39, !dbg !919

142:                                              ; preds = %39
  call void @_Z24step7_process_after_copyPKcRSt6vectorImSaImEERS1_IsSaIsEES4_(ptr %0, ptr %7, ptr %6, ptr %5), !dbg !920
  ret void, !dbg !921
}

define linkonce_odr i64 @_ZNKSt6chrono8durationIlSt5ratioILl1ELl1000000EEE5countEv(ptr %0) !dbg !922 {
  %2 = getelementptr %"struct.std::chrono::duration.0", ptr %0, i32 0, i32 0, !dbg !923
  %3 = load i64, ptr %2, align 8, !dbg !925
  ret i64 %3, !dbg !926
}

define linkonce_odr %"struct.std::chrono::duration.0" @_ZNSt6chrono13duration_castINS_8durationIlSt5ratioILl1ELl1000000EEEElS2_ILl1ELl1000000000EEEENSt9enable_ifIXsr13__is_durationIT_EE5valueES7_E4typeERKNS1_IT0_T1_EE(ptr %0) !dbg !927 {
  %2 = alloca %"struct.std::chrono::duration.0", i64 1, align 8, !dbg !928
  %3 = alloca %"struct.std::chrono::duration.0", i64 1, align 8, !dbg !930
  %4 = call %"struct.std::chrono::duration.0" @_ZNSt6chrono20__duration_cast_implINS_8durationIlSt5ratioILl1ELl1000000EEEES2_ILl1ELl1000EElLb1ELb0EE6__castIlS2_ILl1ELl1000000000EEEES4_RKNS1_IT_T0_EE(ptr %0), !dbg !931
  store %"struct.std::chrono::duration.0" %4, ptr %2, align 8, !dbg !932
  call void @_ZNSt6chrono8durationIlSt5ratioILl1ELl1000000EEEC1ERKS3_(ptr %3, ptr %2), !dbg !933
  %5 = load %"struct.std::chrono::duration.0", ptr %3, align 8, !dbg !934
  ret %"struct.std::chrono::duration.0" %5, !dbg !935
}

define linkonce_odr %"struct.std::chrono::duration" @_ZNSt6chronomiINS_3_V212steady_clockENS_8durationIlSt5ratioILl1ELl1000000000EEEES6_EENSt11common_typeIJT0_T1_EE4typeERKNS_10time_pointIT_S8_EERKNSC_ISD_S9_EE(ptr %0, ptr %1) !dbg !936 {
  %3 = alloca %"struct.std::chrono::duration", i64 1, align 8, !dbg !937
  %4 = alloca %"struct.std::chrono::duration", i64 1, align 8, !dbg !939
  %5 = alloca %"struct.std::chrono::duration", i64 1, align 8, !dbg !940
  %6 = alloca %"struct.std::chrono::duration", i64 1, align 8, !dbg !941
  %7 = call %"struct.std::chrono::duration" @_ZNKSt6chrono10time_pointINS_3_V212steady_clockENS_8durationIlSt5ratioILl1ELl1000000000EEEEE16time_since_epochEv(ptr %0), !dbg !942
  store %"struct.std::chrono::duration" %7, ptr %5, align 8, !dbg !943
  %8 = call %"struct.std::chrono::duration" @_ZNKSt6chrono10time_pointINS_3_V212steady_clockENS_8durationIlSt5ratioILl1ELl1000000000EEEEE16time_since_epochEv(ptr %1), !dbg !944
  store %"struct.std::chrono::duration" %8, ptr %4, align 8, !dbg !945
  %9 = call %"struct.std::chrono::duration" @_ZNSt6chronomiIlSt5ratioILl1ELl1000000000EElS2_EENSt11common_typeIJNS_8durationIT_T0_EENS4_IT1_T2_EEEE4typeERKS7_RKSA_(ptr %5, ptr %4), !dbg !946
  store %"struct.std::chrono::duration" %9, ptr %3, align 8, !dbg !947
  call void @_ZNSt6chrono8durationIlSt5ratioILl1ELl1000000000EEEC1ERKS3_(ptr %6, ptr %3), !dbg !948
  %10 = load %"struct.std::chrono::duration", ptr %6, align 8, !dbg !949
  ret %"struct.std::chrono::duration" %10, !dbg !950
}

define linkonce_odr void @_ZNSt6chrono8durationIlSt5ratioILl1ELl1000000000EEEC1ERKS3_(ptr %0, ptr %1) !dbg !951 {
  %3 = getelementptr %"struct.std::chrono::duration", ptr %1, i32 0, i32 0, !dbg !952
  %4 = load i64, ptr %3, align 8, !dbg !954
  %5 = getelementptr %"struct.std::chrono::duration", ptr %0, i32 0, i32 0, !dbg !955
  store i64 %4, ptr %5, align 8, !dbg !956
  ret void, !dbg !957
}

define linkonce_odr %"struct.std::chrono::duration" @_ZNSt6chrono8durationIlSt5ratioILl1ELl1000000000EEE4zeroEv() !dbg !958 {
  %1 = alloca %"struct.std::chrono::duration", i64 1, align 8, !dbg !959
  %2 = alloca i64, i64 1, align 8, !dbg !961
  store i64 undef, ptr %2, align 8, !dbg !962
  %3 = alloca %"struct.std::chrono::duration", i64 1, align 8, !dbg !963
  %4 = alloca %"struct.std::chrono::duration", i64 1, align 8, !dbg !964
  store i64 0, ptr %2, align 8, !dbg !965
  call void @_ZNSt6chrono8durationIlSt5ratioILl1ELl1000000000EEEC1IlvEERKT_(ptr %3, ptr %2), !dbg !966
  %5 = load %"struct.std::chrono::duration", ptr %3, align 8, !dbg !967
  store %"struct.std::chrono::duration" %5, ptr %1, align 8, !dbg !968
  call void @_ZNSt6chrono8durationIlSt5ratioILl1ELl1000000000EEEC1ERKS3_(ptr %4, ptr %1), !dbg !969
  %6 = load %"struct.std::chrono::duration", ptr %4, align 8, !dbg !970
  ret %"struct.std::chrono::duration" %6, !dbg !971
}

define linkonce_odr ptr @_ZNSt6chrono8durationIlSt5ratioILl1ELl1000000000EEEaSERKS3_(ptr %0, ptr %1) !dbg !972 {
  %3 = getelementptr %"struct.std::chrono::duration", ptr %0, i32 0, i32 0, !dbg !973
  %4 = getelementptr %"struct.std::chrono::duration", ptr %1, i32 0, i32 0, !dbg !975
  %5 = load i64, ptr %4, align 8, !dbg !976
  store i64 %5, ptr %3, align 8, !dbg !977
  ret ptr %0, !dbg !978
}

define linkonce_odr i64 @_ZNKSt6vectorIiSaIiEE4sizeEv(ptr %0) !dbg !979 {
  %2 = getelementptr %"class.std::vector", ptr %0, i32 0, i32 0, !dbg !980
  %3 = getelementptr %"struct.std::_Vector_base", ptr %2, i32 0, i32 0, !dbg !982
  %4 = getelementptr %"struct.std::_Vector_base<int, std::allocator<int>>::_Vector_impl", ptr %3, i32 0, i32 0, !dbg !983
  %5 = getelementptr %"struct.std::_Vector_base<int, std::allocator<int>>::_Vector_impl_data", ptr %4, i32 0, i32 1, !dbg !984
  %6 = load ptr, ptr %5, align 8, !dbg !985
  %7 = getelementptr %"struct.std::_Vector_base<int, std::allocator<int>>::_Vector_impl_data", ptr %4, i32 0, i32 0, !dbg !986
  %8 = load ptr, ptr %7, align 8, !dbg !987
  %9 = ptrtoint ptr %6 to i64, !dbg !988
  %10 = ptrtoint ptr %8 to i64, !dbg !989
  %11 = sub i64 %9, %10, !dbg !990
  %12 = sdiv i64 %11, 4, !dbg !991
  ret i64 %12, !dbg !992
}

define linkonce_odr i64 @_ZNKSt6vectorIiSaIiEE4sizeEv__0(ptr %0) !dbg !993 {
  %2 = getelementptr { { { { ptr, ptr, ptr } } } }, ptr %0, i32 0, i32 0, !dbg !994
  %3 = getelementptr { { { ptr, ptr, ptr } } }, ptr %2, i32 0, i32 0, !dbg !996
  %4 = getelementptr { { ptr, ptr, ptr } }, ptr %3, i32 0, i32 0, !dbg !997
  %5 = getelementptr { ptr, ptr, ptr }, ptr %4, i32 0, i32 1, !dbg !998
  %6 = load ptr, ptr %5, align 8, !dbg !999
  %7 = getelementptr { ptr, ptr, ptr }, ptr %4, i32 0, i32 0, !dbg !1000
  %8 = load ptr, ptr %7, align 8, !dbg !1001
  %9 = ptrtoint ptr %6 to i64, !dbg !1002
  %10 = ptrtoint ptr %8 to i64, !dbg !1003
  %11 = sub i64 %9, %10, !dbg !1004
  %12 = sdiv i64 %11, 4, !dbg !1005
  ret i64 %12, !dbg !1006
}

define i64 @_Z21get_vid_unique_valuesv() !dbg !1007 {
  %1 = alloca i32, i64 1, align 4, !dbg !1008
  store i32 undef, ptr %1, align 4, !dbg !1010
  %2 = alloca %"class.std::vector", i64 1, align 8, !dbg !1011
  %3 = load ptr, ptr @vendor_id_col, align 8, !dbg !1012
  %4 = call i64 @_ZNKSt6vectorIiSaIiEE4sizeEv__0(ptr %3), !dbg !1013
  call void @_ZNSt6vectorIiSaIiEEC1Ev(ptr %2), !dbg !1014
  call void @_ZNSt6vectorIiSaIiEE7reserveEm(ptr %2, i64 %4), !dbg !1015
  %5 = add i64 %4, 1023, !dbg !1016
  %6 = sdiv i64 %5, 1024, !dbg !1017
  %7 = alloca i32, i32 2, align 4, !dbg !1018
  %8 = call ptr @_ZNSt6vectorIiSaIiEEixEm__0(ptr %3, i64 0), !dbg !1019
  %9 = ptrtoint ptr %8 to i64, !dbg !1020
  %10 = and i64 %9, -4096, !dbg !1021
  %11 = udiv i64 %10, 4096, !dbg !1022
  %12 = srem i64 %11, 36864, !dbg !1023
  %13 = trunc i64 %12 to i32, !dbg !1024
  %14 = call i32 @cache_request_impl_12(i32 0, i64 %10, i32 %13, i8 1), !dbg !1025
  store i32 %13, ptr %7, align 4, !dbg !1026
  br label %15, !dbg !1027

15:                                               ; preds = %74, %0
  %16 = phi i64 [ %75, %74 ], [ 0, %0 ]
  %17 = icmp slt i64 %16, %6, !dbg !1028
  br i1 %17, label %18, label %76, !dbg !1029

18:                                               ; preds = %15
  %19 = add i64 %16, 1, !dbg !1030
  %20 = icmp slt i64 %19, %6, !dbg !1031
  br i1 %20, label %21, label %34, !dbg !1032

21:                                               ; preds = %18
  %22 = srem i64 %19, 2, !dbg !1033
  %23 = trunc i64 %22 to i32, !dbg !1034
  %24 = mul i64 %19, 1024, !dbg !1035
  %25 = call ptr @_ZNSt6vectorIiSaIiEEixEm__0(ptr %3, i64 %24), !dbg !1036
  %26 = ptrtoint ptr %25 to i64, !dbg !1037
  %27 = and i64 %26, -4096, !dbg !1038
  %28 = udiv i64 %27, 4096, !dbg !1039
  %29 = srem i64 %28, 36864, !dbg !1040
  %30 = trunc i64 %29 to i32, !dbg !1041
  %31 = call i32 @cache_request_impl_12(i32 0, i64 %27, i32 %30, i8 1), !dbg !1042
  %32 = sext i32 %23 to i64, !dbg !1043
  %33 = getelementptr i32, ptr %7, i64 %32, !dbg !1044
  store i32 %30, ptr %33, align 4, !dbg !1045
  br label %34, !dbg !1046

34:                                               ; preds = %21, %18
  %35 = mul i64 %16, 1024, !dbg !1047
  %36 = call ptr @_ZNSt6vectorIiSaIiEEixEm__0(ptr %3, i64 %35), !dbg !1048
  %37 = srem i64 %16, 2, !dbg !1049
  %38 = getelementptr i32, ptr %7, i64 %37, !dbg !1050
  %39 = load i32, ptr %38, align 4, !dbg !1051
  %40 = ptrtoint ptr %36 to i64, !dbg !1052
  %41 = sext i32 %39 to i64, !dbg !1053
  %42 = mul i64 %41, 4096, !dbg !1054
  %43 = srem i64 %40, 4096, !dbg !1055
  %44 = add i64 %42, %43, !dbg !1056
  %45 = add i64 %44, 0, !dbg !1057
  %46 = load ptr, ptr @_rbuf, align 8, !dbg !1058
  %47 = getelementptr i8, ptr %46, i64 %45, !dbg !1059
  %48 = getelementptr { i64, i8, i8, i16, i32 }, ptr @tokens, i64 %41, !dbg !1060
  %49 = getelementptr { i64, i8, i8, i16, i32 }, ptr %48, i32 0, i32 3, !dbg !1061
  %50 = load i16, ptr %49, align 2, !dbg !1062
  call void @poll_qid12(i32 0, i16 %50), !dbg !1063
  %51 = mul i64 %19, 1024, !dbg !1064
  %52 = icmp sgt i64 %4, %51, !dbg !1065
  br i1 %52, label %53, label %54, !dbg !1066

53:                                               ; preds = %34
  br label %57, !dbg !1067

54:                                               ; preds = %34
  %55 = mul i64 %16, 1024, !dbg !1068
  %56 = sub i64 %4, %55, !dbg !1069
  br label %57, !dbg !1070

57:                                               ; preds = %53, %54
  %58 = phi i64 [ %56, %54 ], [ 1024, %53 ]
  br label %59, !dbg !1071

59:                                               ; preds = %57
  %60 = mul i64 %16, 1024, !dbg !1072
  br label %61, !dbg !1073

61:                                               ; preds = %72, %59
  %62 = phi i64 [ %73, %72 ], [ 0, %59 ]
  %63 = icmp slt i64 %62, %58, !dbg !1074
  br i1 %63, label %64, label %74, !dbg !1075

64:                                               ; preds = %61
  %65 = add i64 %62, %60, !dbg !1076
  %66 = getelementptr i32, ptr %47, i64 %62, !dbg !1077
  %67 = call ptr @_ZNSt6vectorIiSaIiEEixEm__0(ptr %3, i64 %65), !dbg !1078
  %68 = load i32, ptr %66, align 4, !dbg !1079
  store i32 %68, ptr %1, align 4, !dbg !1080
  %69 = call i8 @_Z15step1_firstTimei(i32 %68), !dbg !1081
  %70 = icmp ne i8 %69, 0, !dbg !1082
  br i1 %70, label %71, label %72, !dbg !1083

71:                                               ; preds = %64
  call void @_ZNSt6vectorIiSaIiEE9push_backERKi(ptr %2, ptr %1), !dbg !1084
  br label %72, !dbg !1085

72:                                               ; preds = %71, %64
  %73 = add i64 %62, 1, !dbg !1086
  br label %61, !dbg !1087

74:                                               ; preds = %61
  %75 = add i64 %16, 1, !dbg !1088
  br label %15, !dbg !1089

76:                                               ; preds = %15
  %77 = call i64 @_ZNKSt6vectorIiSaIiEE4sizeEv(ptr %2), !dbg !1090
  ret i64 %77, !dbg !1091
}

define internal void @"_ZZ33print_passage_counts_by_vendor_idiEN3$_0C1EOS_"(ptr %0, ptr %1) !dbg !1092 {
  %3 = getelementptr %class.anon, ptr %1, i32 0, i32 0, !dbg !1093
  %4 = load ptr, ptr %3, align 8, !dbg !1095
  %5 = getelementptr %class.anon, ptr %0, i32 0, i32 0, !dbg !1096
  store ptr %4, ptr %5, align 8, !dbg !1097
  ret void, !dbg !1098
}

define linkonce_odr void @_ZNSt6vectorIiSaIiEEC1Ev(ptr %0) !dbg !1099 {
  %2 = getelementptr %"class.std::vector", ptr %0, i32 0, i32 0, !dbg !1100
  call void @_ZNSt12_Vector_baseIiSaIiEEC1Ev(ptr %2), !dbg !1102
  ret void, !dbg !1103
}

define internal void @"_Z14get_psg_by_vidIZ33print_passage_counts_by_vendor_idiE3$_0iEvRT_RSt6vectorIT0_SaIS4_EE"(ptr %0, ptr %1) !dbg !1104 {
  %3 = alloca i32, i64 1, align 4, !dbg !1105
  store i32 undef, ptr %3, align 4, !dbg !1107
  %4 = alloca i32, i64 1, align 4, !dbg !1108
  store i32 undef, ptr %4, align 4, !dbg !1109
  %5 = alloca i64, i64 1, align 8, !dbg !1110
  store i64 undef, ptr %5, align 8, !dbg !1111
  %6 = load ptr, ptr @index_col, align 8, !dbg !1112
  %7 = load ptr, ptr @vendor_id_col, align 8, !dbg !1113
  %8 = load ptr, ptr @psg_cnt_col, align 8, !dbg !1114
  %9 = call i64 @_ZNKSt6vectorIiSaIiEE4sizeEv__0(ptr %7), !dbg !1115
  call void @_ZNSt6vectorIiSaIiEE7reserveEm(ptr %1, i64 %9), !dbg !1116
  %10 = add i64 %9, 1023, !dbg !1117
  %11 = sdiv i64 %10, 1024, !dbg !1118
  %12 = alloca i32, i32 2, align 4, !dbg !1119
  %13 = call ptr @_ZNKSt6vectorImSaImEEixEm__0(ptr %6, i64 0), !dbg !1120
  %14 = ptrtoint ptr %13 to i64, !dbg !1121
  %15 = and i64 %14, -8192, !dbg !1122
  %16 = udiv i64 %15, 8192, !dbg !1123
  %17 = srem i64 %16, 36864, !dbg !1124
  %18 = trunc i64 %17 to i32, !dbg !1125
  %19 = call i32 @cache_request_impl_5(i32 0, i64 %15, i32 %18, i8 1), !dbg !1126
  store i32 %18, ptr %12, align 4, !dbg !1127
  %20 = alloca i32, i32 2, align 4, !dbg !1128
  %21 = call ptr @_ZNKSt6vectorIiSaIiEEixEm__0(ptr %8, i64 0), !dbg !1129
  %22 = ptrtoint ptr %21 to i64, !dbg !1130
  %23 = and i64 %22, -4096, !dbg !1131
  %24 = udiv i64 %23, 4096, !dbg !1132
  %25 = srem i64 %24, 36864, !dbg !1133
  %26 = trunc i64 %25 to i32, !dbg !1134
  %27 = call i32 @cache_request_impl_2(i32 0, i64 %23, i32 %26, i8 1), !dbg !1135
  store i32 %26, ptr %20, align 4, !dbg !1136
  %28 = alloca i32, i32 2, align 4, !dbg !1137
  %29 = call ptr @_ZNKSt6vectorIiSaIiEEixEm__1(ptr %7, i64 0), !dbg !1138
  %30 = ptrtoint ptr %29 to i64, !dbg !1139
  %31 = and i64 %30, -4096, !dbg !1140
  %32 = udiv i64 %31, 4096, !dbg !1141
  %33 = srem i64 %32, 36864, !dbg !1142
  %34 = trunc i64 %33 to i32, !dbg !1143
  %35 = call i32 @cache_request_impl_12(i32 0, i64 %31, i32 %34, i8 1), !dbg !1144
  store i32 %34, ptr %28, align 4, !dbg !1145
  br label %36, !dbg !1146

36:                                               ; preds = %139, %2
  %37 = phi i64 [ %140, %139 ], [ 0, %2 ]
  %38 = icmp slt i64 %37, %11, !dbg !1147
  br i1 %38, label %39, label %141, !dbg !1148

39:                                               ; preds = %36
  %40 = add i64 %37, 1, !dbg !1149
  %41 = icmp slt i64 %40, %11, !dbg !1150
  br i1 %41, label %42, label %71, !dbg !1151

42:                                               ; preds = %39
  %43 = srem i64 %40, 2, !dbg !1152
  %44 = trunc i64 %43 to i32, !dbg !1153
  %45 = mul i64 %40, 1024, !dbg !1154
  %46 = call ptr @_ZNKSt6vectorImSaImEEixEm__0(ptr %6, i64 %45), !dbg !1155
  %47 = ptrtoint ptr %46 to i64, !dbg !1156
  %48 = and i64 %47, -8192, !dbg !1157
  %49 = udiv i64 %48, 8192, !dbg !1158
  %50 = srem i64 %49, 36864, !dbg !1159
  %51 = trunc i64 %50 to i32, !dbg !1160
  %52 = call i32 @cache_request_impl_5(i32 0, i64 %48, i32 %51, i8 1), !dbg !1161
  %53 = sext i32 %44 to i64, !dbg !1162
  %54 = getelementptr i32, ptr %12, i64 %53, !dbg !1163
  store i32 %51, ptr %54, align 4, !dbg !1164
  %55 = call ptr @_ZNKSt6vectorIiSaIiEEixEm__0(ptr %8, i64 %45), !dbg !1165
  %56 = ptrtoint ptr %55 to i64, !dbg !1166
  %57 = and i64 %56, -4096, !dbg !1167
  %58 = udiv i64 %57, 4096, !dbg !1168
  %59 = srem i64 %58, 36864, !dbg !1169
  %60 = trunc i64 %59 to i32, !dbg !1170
  %61 = call i32 @cache_request_impl_2(i32 0, i64 %57, i32 %60, i8 1), !dbg !1171
  %62 = getelementptr i32, ptr %20, i64 %53, !dbg !1172
  store i32 %60, ptr %62, align 4, !dbg !1173
  %63 = call ptr @_ZNKSt6vectorIiSaIiEEixEm__1(ptr %7, i64 %45), !dbg !1174
  %64 = ptrtoint ptr %63 to i64, !dbg !1175
  %65 = and i64 %64, -4096, !dbg !1176
  %66 = udiv i64 %65, 4096, !dbg !1177
  %67 = srem i64 %66, 36864, !dbg !1178
  %68 = trunc i64 %67 to i32, !dbg !1179
  %69 = call i32 @cache_request_impl_12(i32 0, i64 %65, i32 %68, i8 1), !dbg !1180
  %70 = getelementptr i32, ptr %28, i64 %53, !dbg !1181
  store i32 %68, ptr %70, align 4, !dbg !1182
  br label %71, !dbg !1183

71:                                               ; preds = %42, %39
  %72 = mul i64 %37, 1024, !dbg !1184
  %73 = call ptr @_ZNKSt6vectorImSaImEEixEm__0(ptr %6, i64 %72), !dbg !1185
  %74 = srem i64 %37, 2, !dbg !1186
  %75 = getelementptr i32, ptr %12, i64 %74, !dbg !1187
  %76 = load i32, ptr %75, align 4, !dbg !1188
  %77 = ptrtoint ptr %73 to i64, !dbg !1189
  %78 = sext i32 %76 to i64, !dbg !1190
  %79 = mul i64 %78, 8192, !dbg !1191
  %80 = srem i64 %77, 8192, !dbg !1192
  %81 = add i64 %79, %80, !dbg !1193
  %82 = add i64 %81, 9663676416, !dbg !1194
  %83 = load ptr, ptr @_rbuf, align 8, !dbg !1195
  %84 = getelementptr i8, ptr %83, i64 %82, !dbg !1196
  %85 = call ptr @_ZNKSt6vectorIiSaIiEEixEm__0(ptr %8, i64 %72), !dbg !1197
  %86 = getelementptr i32, ptr %20, i64 %74, !dbg !1198
  %87 = load i32, ptr %86, align 4, !dbg !1199
  %88 = ptrtoint ptr %85 to i64, !dbg !1200
  %89 = sext i32 %87 to i64, !dbg !1201
  %90 = mul i64 %89, 4096, !dbg !1202
  %91 = srem i64 %88, 4096, !dbg !1203
  %92 = add i64 %90, %91, !dbg !1204
  %93 = add i64 %92, 3221225472, !dbg !1205
  %94 = load ptr, ptr @_rbuf, align 8, !dbg !1206
  %95 = getelementptr i8, ptr %94, i64 %93, !dbg !1207
  %96 = call ptr @_ZNKSt6vectorIiSaIiEEixEm__1(ptr %7, i64 %72), !dbg !1208
  %97 = getelementptr i32, ptr %28, i64 %74, !dbg !1209
  %98 = load i32, ptr %97, align 4, !dbg !1210
  %99 = ptrtoint ptr %96 to i64, !dbg !1211
  %100 = sext i32 %98 to i64, !dbg !1212
  %101 = mul i64 %100, 4096, !dbg !1213
  %102 = srem i64 %99, 4096, !dbg !1214
  %103 = add i64 %101, %102, !dbg !1215
  %104 = add i64 %103, 0, !dbg !1216
  %105 = load ptr, ptr @_rbuf, align 8, !dbg !1217
  %106 = getelementptr i8, ptr %105, i64 %104, !dbg !1218
  %107 = getelementptr { i64, i8, i8, i16, i32 }, ptr @tokens, i64 %100, !dbg !1219
  %108 = getelementptr { i64, i8, i8, i16, i32 }, ptr %107, i32 0, i32 3, !dbg !1220
  %109 = load i16, ptr %108, align 2, !dbg !1221
  call void @poll_qid12(i32 0, i16 %109), !dbg !1222
  %110 = mul i64 %40, 1024, !dbg !1223
  %111 = icmp sgt i64 %9, %110, !dbg !1224
  br i1 %111, label %112, label %113, !dbg !1225

112:                                              ; preds = %71
  br label %116, !dbg !1226

113:                                              ; preds = %71
  %114 = mul i64 %37, 1024, !dbg !1227
  %115 = sub i64 %9, %114, !dbg !1228
  br label %116, !dbg !1229

116:                                              ; preds = %112, %113
  %117 = phi i64 [ %115, %113 ], [ 1024, %112 ]
  br label %118, !dbg !1230

118:                                              ; preds = %116
  %119 = mul i64 %37, 1024, !dbg !1231
  br label %120, !dbg !1232

120:                                              ; preds = %137, %118
  %121 = phi i64 [ %138, %137 ], [ 0, %118 ]
  %122 = icmp slt i64 %121, %117, !dbg !1233
  br i1 %122, label %123, label %139, !dbg !1234

123:                                              ; preds = %120
  %124 = add i64 %121, %119, !dbg !1235
  %125 = getelementptr i64, ptr %84, i64 %121, !dbg !1236
  %126 = getelementptr i32, ptr %95, i64 %121, !dbg !1237
  %127 = getelementptr i32, ptr %106, i64 %121, !dbg !1238
  %128 = call ptr @_ZNKSt6vectorImSaImEEixEm__0(ptr %6, i64 %124), !dbg !1239
  %129 = load i64, ptr %125, align 8, !dbg !1240
  store i64 %129, ptr %5, align 8, !dbg !1241
  %130 = call ptr @_ZNKSt6vectorIiSaIiEEixEm__1(ptr %7, i64 %124), !dbg !1242
  %131 = load i32, ptr %127, align 4, !dbg !1243
  store i32 %131, ptr %4, align 4, !dbg !1244
  %132 = call ptr @_ZNKSt6vectorIiSaIiEEixEm__0(ptr %8, i64 %124), !dbg !1245
  %133 = load i32, ptr %126, align 4, !dbg !1246
  store i32 %133, ptr %3, align 4, !dbg !1247
  %134 = call i8 @"_ZZ33print_passage_counts_by_vendor_idiENK3$_0clERKmRKi"(ptr %0, ptr %5, ptr %4), !dbg !1248
  %135 = icmp ne i8 %134, 0, !dbg !1249
  br i1 %135, label %136, label %137, !dbg !1250

136:                                              ; preds = %123
  call void @_ZNSt6vectorIiSaIiEE9push_backERKi(ptr %1, ptr %3), !dbg !1251
  br label %137, !dbg !1252

137:                                              ; preds = %136, %123
  %138 = add i64 %121, 1, !dbg !1253
  br label %120, !dbg !1254

139:                                              ; preds = %120
  %140 = add i64 %37, 1, !dbg !1255
  br label %36, !dbg !1256

141:                                              ; preds = %36
  ret void, !dbg !1257
}

declare void @_Z20step21_passage_counti(i32)

define linkonce_odr ptr @_ZNSt6vectorIiSaIiEEixEm(ptr %0, i64 %1) !dbg !1258 {
  %3 = getelementptr %"class.std::vector", ptr %0, i32 0, i32 0, !dbg !1259
  %4 = getelementptr %"struct.std::_Vector_base", ptr %3, i32 0, i32 0, !dbg !1261
  %5 = getelementptr %"struct.std::_Vector_base<int, std::allocator<int>>::_Vector_impl", ptr %4, i32 0, i32 0, !dbg !1262
  %6 = getelementptr %"struct.std::_Vector_base<int, std::allocator<int>>::_Vector_impl_data", ptr %5, i32 0, i32 0, !dbg !1263
  %7 = load ptr, ptr %6, align 8, !dbg !1264
  %8 = getelementptr i32, ptr %7, i64 %1, !dbg !1265
  ret ptr %8, !dbg !1266
}

define linkonce_odr ptr @_ZNSt6vectorIiSaIiEEixEm__0(ptr %0, i64 %1) !dbg !1267 {
  %3 = getelementptr { { { { ptr, ptr, ptr } } } }, ptr %0, i32 0, i32 0, !dbg !1268
  %4 = getelementptr { { { ptr, ptr, ptr } } }, ptr %3, i32 0, i32 0, !dbg !1270
  %5 = getelementptr { { ptr, ptr, ptr } }, ptr %4, i32 0, i32 0, !dbg !1271
  %6 = getelementptr { ptr, ptr, ptr }, ptr %5, i32 0, i32 0, !dbg !1272
  %7 = load ptr, ptr %6, align 8, !dbg !1273
  %8 = getelementptr i32, ptr %7, i64 %1, !dbg !1274
  ret ptr %8, !dbg !1275
}

declare void @_Z19step21_count_resultv()

declare void @_Z20step22_passage_counti(i32)

declare void @_Z19step22_count_resultv()

declare void @_Z16prepare_durationv()

define linkonce_odr void @_ZN10MaxVisitorImmEC1Ev(ptr %0) !dbg !1276 {
  %2 = getelementptr %class.MaxVisitor, ptr %0, i32 0, i32 0, !dbg !1277
  store i64 0, ptr %2, align 8, !dbg !1279
  %3 = load i64, ptr %2, align 8, !dbg !1280
  store i64 %3, ptr %2, align 8, !dbg !1281
  %4 = getelementptr %class.MaxVisitor, ptr %0, i32 0, i32 1, !dbg !1282
  store i64 0, ptr %4, align 8, !dbg !1283
  %5 = load i64, ptr %4, align 8, !dbg !1284
  store i64 %5, ptr %4, align 8, !dbg !1285
  %6 = getelementptr %class.MaxVisitor, ptr %0, i32 0, i32 2, !dbg !1286
  store i8 1, ptr %6, align 1, !dbg !1287
  %7 = load i8, ptr %6, align 1, !dbg !1288
  store i8 %7, ptr %6, align 1, !dbg !1289
  ret void, !dbg !1290
}

define linkonce_odr void @_ZN10MinVisitorImmEC1Ev(ptr %0) !dbg !1291 {
  %2 = getelementptr %class.MinVisitor, ptr %0, i32 0, i32 0, !dbg !1292
  store i64 0, ptr %2, align 8, !dbg !1294
  %3 = load i64, ptr %2, align 8, !dbg !1295
  store i64 %3, ptr %2, align 8, !dbg !1296
  %4 = getelementptr %class.MinVisitor, ptr %0, i32 0, i32 1, !dbg !1297
  store i64 0, ptr %4, align 8, !dbg !1298
  %5 = load i64, ptr %4, align 8, !dbg !1299
  store i64 %5, ptr %4, align 8, !dbg !1300
  %6 = getelementptr %class.MinVisitor, ptr %0, i32 0, i32 2, !dbg !1301
  store i8 1, ptr %6, align 1, !dbg !1302
  %7 = load i8, ptr %6, align 1, !dbg !1303
  store i8 %7, ptr %6, align 1, !dbg !1304
  ret void, !dbg !1305
}

define linkonce_odr void @_ZN11MeanVisitorImmEC1Ev(ptr %0) !dbg !1306 {
  %2 = getelementptr %class.MeanVisitor, ptr %0, i32 0, i32 0, !dbg !1307
  store i64 0, ptr %2, align 8, !dbg !1309
  %3 = load i64, ptr %2, align 8, !dbg !1310
  store i64 %3, ptr %2, align 8, !dbg !1311
  %4 = getelementptr %class.MeanVisitor, ptr %0, i32 0, i32 1, !dbg !1312
  store i64 0, ptr %4, align 8, !dbg !1313
  %5 = load i64, ptr %4, align 8, !dbg !1314
  store i64 %5, ptr %4, align 8, !dbg !1315
  ret void, !dbg !1316
}

define linkonce_odr void @_Z5visitI10MaxVisitorImmE10MinVisitorImmE11MeanVisitorImmEEvRT_RT0_RT1_(ptr %0, ptr %1, ptr %2) !dbg !1317 {
  %4 = alloca i64, i64 1, align 8, !dbg !1318
  store i64 undef, ptr %4, align 8, !dbg !1320
  %5 = alloca i64, i64 1, align 8, !dbg !1321
  store i64 undef, ptr %5, align 8, !dbg !1322
  %6 = load ptr, ptr @duration_col, align 8, !dbg !1323
  %7 = load ptr, ptr @index_col, align 8, !dbg !1324
  %8 = call i64 @_ZNKSt6vectorImSaImEE4sizeEv__0(ptr %7), !dbg !1325
  store i64 %8, ptr %5, align 8, !dbg !1326
  %9 = call i64 @_ZNKSt6vectorImSaImEE4sizeEv__1(ptr %6), !dbg !1327
  store i64 %9, ptr %4, align 8, !dbg !1328
  %10 = call ptr @_ZSt3minImERKT_S2_S2_(ptr %4, ptr %5), !dbg !1329
  %11 = load i64, ptr %10, align 8, !dbg !1330
  call void @_ZN11MeanVisitorImmE3preEv(ptr %2), !dbg !1331
  %12 = add i64 %11, 1023, !dbg !1332
  %13 = sdiv i64 %12, 1024, !dbg !1333
  %14 = alloca i32, i32 2, align 4, !dbg !1334
  %15 = call ptr @_ZNSt6vectorImSaImEEixEm__0(ptr %7, i64 0), !dbg !1335
  %16 = ptrtoint ptr %15 to i64, !dbg !1336
  %17 = and i64 %16, -8192, !dbg !1337
  %18 = udiv i64 %17, 8192, !dbg !1338
  %19 = srem i64 %18, 36864, !dbg !1339
  %20 = trunc i64 %19 to i32, !dbg !1340
  %21 = call i32 @cache_request_impl_5(i32 0, i64 %17, i32 %20, i8 1), !dbg !1341
  store i32 %20, ptr %14, align 4, !dbg !1342
  %22 = alloca i32, i32 2, align 4, !dbg !1343
  %23 = call ptr @_ZNSt6vectorImSaImEEixEm__1(ptr %6, i64 0), !dbg !1344
  %24 = ptrtoint ptr %23 to i64, !dbg !1345
  %25 = and i64 %24, -8192, !dbg !1346
  %26 = udiv i64 %25, 8192, !dbg !1347
  %27 = srem i64 %26, 36864, !dbg !1348
  %28 = trunc i64 %27 to i32, !dbg !1349
  %29 = call i32 @cache_request_impl_11(i32 0, i64 %25, i32 %28, i8 1), !dbg !1350
  store i32 %28, ptr %22, align 4, !dbg !1351
  br label %30, !dbg !1352

30:                                               ; preds = %109, %3
  %31 = phi i64 [ %110, %109 ], [ 0, %3 ]
  %32 = icmp slt i64 %31, %13, !dbg !1353
  br i1 %32, label %33, label %111, !dbg !1354

33:                                               ; preds = %30
  %34 = add i64 %31, 1, !dbg !1355
  %35 = icmp slt i64 %34, %13, !dbg !1356
  br i1 %35, label %36, label %57, !dbg !1357

36:                                               ; preds = %33
  %37 = srem i64 %34, 2, !dbg !1358
  %38 = trunc i64 %37 to i32, !dbg !1359
  %39 = mul i64 %34, 1024, !dbg !1360
  %40 = call ptr @_ZNSt6vectorImSaImEEixEm__0(ptr %7, i64 %39), !dbg !1361
  %41 = ptrtoint ptr %40 to i64, !dbg !1362
  %42 = and i64 %41, -8192, !dbg !1363
  %43 = udiv i64 %42, 8192, !dbg !1364
  %44 = srem i64 %43, 36864, !dbg !1365
  %45 = trunc i64 %44 to i32, !dbg !1366
  %46 = call i32 @cache_request_impl_5(i32 0, i64 %42, i32 %45, i8 1), !dbg !1367
  %47 = sext i32 %38 to i64, !dbg !1368
  %48 = getelementptr i32, ptr %14, i64 %47, !dbg !1369
  store i32 %45, ptr %48, align 4, !dbg !1370
  %49 = call ptr @_ZNSt6vectorImSaImEEixEm__1(ptr %6, i64 %39), !dbg !1371
  %50 = ptrtoint ptr %49 to i64, !dbg !1372
  %51 = and i64 %50, -8192, !dbg !1373
  %52 = udiv i64 %51, 8192, !dbg !1374
  %53 = srem i64 %52, 36864, !dbg !1375
  %54 = trunc i64 %53 to i32, !dbg !1376
  %55 = call i32 @cache_request_impl_11(i32 0, i64 %51, i32 %54, i8 1), !dbg !1377
  %56 = getelementptr i32, ptr %22, i64 %47, !dbg !1378
  store i32 %54, ptr %56, align 4, !dbg !1379
  br label %57, !dbg !1380

57:                                               ; preds = %36, %33
  %58 = mul i64 %31, 1024, !dbg !1381
  %59 = call ptr @_ZNSt6vectorImSaImEEixEm__0(ptr %7, i64 %58), !dbg !1382
  %60 = srem i64 %31, 2, !dbg !1383
  %61 = getelementptr i32, ptr %14, i64 %60, !dbg !1384
  %62 = load i32, ptr %61, align 4, !dbg !1385
  %63 = ptrtoint ptr %59 to i64, !dbg !1386
  %64 = sext i32 %62 to i64, !dbg !1387
  %65 = mul i64 %64, 8192, !dbg !1388
  %66 = srem i64 %63, 8192, !dbg !1389
  %67 = add i64 %65, %66, !dbg !1390
  %68 = add i64 %67, 9663676416, !dbg !1391
  %69 = load ptr, ptr @_rbuf, align 8, !dbg !1392
  %70 = getelementptr i8, ptr %69, i64 %68, !dbg !1393
  %71 = call ptr @_ZNSt6vectorImSaImEEixEm__1(ptr %6, i64 %58), !dbg !1394
  %72 = getelementptr i32, ptr %22, i64 %60, !dbg !1395
  %73 = load i32, ptr %72, align 4, !dbg !1396
  %74 = ptrtoint ptr %71 to i64, !dbg !1397
  %75 = sext i32 %73 to i64, !dbg !1398
  %76 = mul i64 %75, 8192, !dbg !1399
  %77 = srem i64 %74, 8192, !dbg !1400
  %78 = add i64 %76, %77, !dbg !1401
  %79 = add i64 %78, 10737418240, !dbg !1402
  %80 = load ptr, ptr @_rbuf, align 8, !dbg !1403
  %81 = getelementptr i8, ptr %80, i64 %79, !dbg !1404
  %82 = add i32 %73, 368640, !dbg !1405
  %83 = sext i32 %82 to i64, !dbg !1406
  %84 = getelementptr { i64, i8, i8, i16, i32 }, ptr @tokens, i64 %83, !dbg !1407
  %85 = getelementptr { i64, i8, i8, i16, i32 }, ptr %84, i32 0, i32 3, !dbg !1408
  %86 = load i16, ptr %85, align 2, !dbg !1409
  call void @poll_qid11(i32 10, i16 %86), !dbg !1410
  %87 = mul i64 %34, 1024, !dbg !1411
  %88 = icmp sgt i64 %11, %87, !dbg !1412
  br i1 %88, label %89, label %90, !dbg !1413

89:                                               ; preds = %57
  br label %93, !dbg !1414

90:                                               ; preds = %57
  %91 = mul i64 %31, 1024, !dbg !1415
  %92 = sub i64 %11, %91, !dbg !1416
  br label %93, !dbg !1417

93:                                               ; preds = %89, %90
  %94 = phi i64 [ %92, %90 ], [ 1024, %89 ]
  br label %95, !dbg !1418

95:                                               ; preds = %93
  %96 = mul i64 %31, 1024, !dbg !1419
  br label %97, !dbg !1420

97:                                               ; preds = %100, %95
  %98 = phi i64 [ %108, %100 ], [ 0, %95 ]
  %99 = icmp slt i64 %98, %94, !dbg !1421
  br i1 %99, label %100, label %109, !dbg !1422

100:                                              ; preds = %97
  %101 = add i64 %98, %96, !dbg !1423
  %102 = getelementptr i64, ptr %70, i64 %98, !dbg !1424
  %103 = getelementptr i64, ptr %81, i64 %98, !dbg !1425
  %104 = call ptr @_ZNSt6vectorImSaImEEixEm__0(ptr %7, i64 %101), !dbg !1426
  %105 = load i64, ptr %102, align 8, !dbg !1427
  %106 = call ptr @_ZNSt6vectorImSaImEEixEm__1(ptr %6, i64 %101), !dbg !1428
  %107 = load i64, ptr %103, align 8, !dbg !1429
  call void @_ZN10MaxVisitorImmEclEmm(ptr %0, i64 %105, i64 %107), !dbg !1430
  call void @_ZN10MinVisitorImmEclEmm(ptr %1, i64 %105, i64 %107), !dbg !1431
  call void @_ZN11MeanVisitorImmEclEmm(ptr %2, i64 %105, i64 %107), !dbg !1432
  %108 = add i64 %98, 1, !dbg !1433
  br label %97, !dbg !1434

109:                                              ; preds = %97
  %110 = add i64 %31, 1, !dbg !1435
  br label %30, !dbg !1436

111:                                              ; preds = %30
  ret void, !dbg !1437
}

define linkonce_odr i64 @_ZNK11MeanVisitorImmE10get_resultEv(ptr %0) !dbg !1438 {
  %2 = getelementptr %class.MeanVisitor, ptr %0, i32 0, i32 0, !dbg !1439
  %3 = load i64, ptr %2, align 8, !dbg !1441
  %4 = getelementptr %class.MeanVisitor, ptr %0, i32 0, i32 1, !dbg !1442
  %5 = load i64, ptr %4, align 8, !dbg !1443
  %6 = sdiv i64 %3, %5, !dbg !1444
  ret i64 %6, !dbg !1445
}

define linkonce_odr i64 @_ZNK10MinVisitorImmE10get_resultEv(ptr %0) !dbg !1446 {
  %2 = getelementptr %class.MinVisitor, ptr %0, i32 0, i32 1, !dbg !1447
  %3 = load i64, ptr %2, align 8, !dbg !1449
  ret i64 %3, !dbg !1450
}

define linkonce_odr i64 @_ZNK10MaxVisitorImmE10get_resultEv(ptr %0) !dbg !1451 {
  %2 = getelementptr %class.MaxVisitor, ptr %0, i32 0, i32 1, !dbg !1452
  %3 = load i64, ptr %2, align 8, !dbg !1454
  ret i64 %3, !dbg !1455
}

define internal void @"_Z19get_vid_by_storefwdIZ41calculate_distribution_store_and_fwd_flagvE3$_0iEvRT_RSt6vectorIT0_SaIS4_EE"(ptr %0, ptr %1) !dbg !1456 {
  %3 = alloca i32, i64 1, align 4, !dbg !1457
  store i32 undef, ptr %3, align 4, !dbg !1459
  %4 = alloca i8, i64 1, align 1, !dbg !1460
  store i8 undef, ptr %4, align 1, !dbg !1461
  %5 = alloca i64, i64 1, align 8, !dbg !1462
  store i64 undef, ptr %5, align 8, !dbg !1463
  %6 = load ptr, ptr @index_col, align 8, !dbg !1464
  %7 = load ptr, ptr @store_fwd_col, align 8, !dbg !1465
  %8 = load ptr, ptr @vendor_id_col, align 8, !dbg !1466
  %9 = call i64 @_ZNKSt6vectorIcSaIcEE4sizeEv__0(ptr %7), !dbg !1467
  call void @_ZNSt6vectorIiSaIiEE7reserveEm(ptr %1, i64 %9), !dbg !1468
  %10 = add i64 %9, 1023, !dbg !1469
  %11 = sdiv i64 %10, 1024, !dbg !1470
  %12 = alloca i32, i32 2, align 4, !dbg !1471
  %13 = call ptr @_ZNKSt6vectorIcSaIcEEixEm__0(ptr %7, i64 0), !dbg !1472
  %14 = ptrtoint ptr %13 to i64, !dbg !1473
  %15 = and i64 %14, -1024, !dbg !1474
  %16 = udiv i64 %15, 1024, !dbg !1475
  %17 = srem i64 %16, 36864, !dbg !1476
  %18 = trunc i64 %17 to i32, !dbg !1477
  %19 = call i32 @cache_request_impl_1(i32 0, i64 %15, i32 %18, i8 1), !dbg !1478
  store i32 %18, ptr %12, align 4, !dbg !1479
  %20 = alloca i32, i32 2, align 4, !dbg !1480
  %21 = call ptr @_ZNKSt6vectorImSaImEEixEm__0(ptr %6, i64 0), !dbg !1481
  %22 = ptrtoint ptr %21 to i64, !dbg !1482
  %23 = and i64 %22, -8192, !dbg !1483
  %24 = udiv i64 %23, 8192, !dbg !1484
  %25 = srem i64 %24, 36864, !dbg !1485
  %26 = trunc i64 %25 to i32, !dbg !1486
  %27 = call i32 @cache_request_impl_5(i32 0, i64 %23, i32 %26, i8 1), !dbg !1487
  store i32 %26, ptr %20, align 4, !dbg !1488
  %28 = alloca i32, i32 2, align 4, !dbg !1489
  %29 = call ptr @_ZNKSt6vectorIiSaIiEEixEm__1(ptr %8, i64 0), !dbg !1490
  %30 = ptrtoint ptr %29 to i64, !dbg !1491
  %31 = and i64 %30, -4096, !dbg !1492
  %32 = udiv i64 %31, 4096, !dbg !1493
  %33 = srem i64 %32, 36864, !dbg !1494
  %34 = trunc i64 %33 to i32, !dbg !1495
  %35 = call i32 @cache_request_impl_12(i32 0, i64 %31, i32 %34, i8 1), !dbg !1496
  store i32 %34, ptr %28, align 4, !dbg !1497
  br label %36, !dbg !1498

36:                                               ; preds = %139, %2
  %37 = phi i64 [ %140, %139 ], [ 0, %2 ]
  %38 = icmp slt i64 %37, %11, !dbg !1499
  br i1 %38, label %39, label %141, !dbg !1500

39:                                               ; preds = %36
  %40 = add i64 %37, 1, !dbg !1501
  %41 = icmp slt i64 %40, %11, !dbg !1502
  br i1 %41, label %42, label %71, !dbg !1503

42:                                               ; preds = %39
  %43 = srem i64 %40, 2, !dbg !1504
  %44 = trunc i64 %43 to i32, !dbg !1505
  %45 = mul i64 %40, 1024, !dbg !1506
  %46 = call ptr @_ZNKSt6vectorIcSaIcEEixEm__0(ptr %7, i64 %45), !dbg !1507
  %47 = ptrtoint ptr %46 to i64, !dbg !1508
  %48 = and i64 %47, -1024, !dbg !1509
  %49 = udiv i64 %48, 1024, !dbg !1510
  %50 = srem i64 %49, 36864, !dbg !1511
  %51 = trunc i64 %50 to i32, !dbg !1512
  %52 = call i32 @cache_request_impl_1(i32 0, i64 %48, i32 %51, i8 1), !dbg !1513
  %53 = sext i32 %44 to i64, !dbg !1514
  %54 = getelementptr i32, ptr %12, i64 %53, !dbg !1515
  store i32 %51, ptr %54, align 4, !dbg !1516
  %55 = call ptr @_ZNKSt6vectorImSaImEEixEm__0(ptr %6, i64 %45), !dbg !1517
  %56 = ptrtoint ptr %55 to i64, !dbg !1518
  %57 = and i64 %56, -8192, !dbg !1519
  %58 = udiv i64 %57, 8192, !dbg !1520
  %59 = srem i64 %58, 36864, !dbg !1521
  %60 = trunc i64 %59 to i32, !dbg !1522
  %61 = call i32 @cache_request_impl_5(i32 0, i64 %57, i32 %60, i8 1), !dbg !1523
  %62 = getelementptr i32, ptr %20, i64 %53, !dbg !1524
  store i32 %60, ptr %62, align 4, !dbg !1525
  %63 = call ptr @_ZNKSt6vectorIiSaIiEEixEm__1(ptr %8, i64 %45), !dbg !1526
  %64 = ptrtoint ptr %63 to i64, !dbg !1527
  %65 = and i64 %64, -4096, !dbg !1528
  %66 = udiv i64 %65, 4096, !dbg !1529
  %67 = srem i64 %66, 36864, !dbg !1530
  %68 = trunc i64 %67 to i32, !dbg !1531
  %69 = call i32 @cache_request_impl_12(i32 0, i64 %65, i32 %68, i8 1), !dbg !1532
  %70 = getelementptr i32, ptr %28, i64 %53, !dbg !1533
  store i32 %68, ptr %70, align 4, !dbg !1534
  br label %71, !dbg !1535

71:                                               ; preds = %42, %39
  %72 = mul i64 %37, 1024, !dbg !1536
  %73 = call ptr @_ZNKSt6vectorIcSaIcEEixEm__0(ptr %7, i64 %72), !dbg !1537
  %74 = srem i64 %37, 2, !dbg !1538
  %75 = getelementptr i32, ptr %12, i64 %74, !dbg !1539
  %76 = load i32, ptr %75, align 4, !dbg !1540
  %77 = ptrtoint ptr %73 to i64, !dbg !1541
  %78 = sext i32 %76 to i64, !dbg !1542
  %79 = mul i64 %78, 1024, !dbg !1543
  %80 = srem i64 %77, 1024, !dbg !1544
  %81 = add i64 %79, %80, !dbg !1545
  %82 = add i64 %81, 6442450944, !dbg !1546
  %83 = load ptr, ptr @_rbuf, align 8, !dbg !1547
  %84 = getelementptr i8, ptr %83, i64 %82, !dbg !1548
  %85 = call ptr @_ZNKSt6vectorImSaImEEixEm__0(ptr %6, i64 %72), !dbg !1549
  %86 = getelementptr i32, ptr %20, i64 %74, !dbg !1550
  %87 = load i32, ptr %86, align 4, !dbg !1551
  %88 = ptrtoint ptr %85 to i64, !dbg !1552
  %89 = sext i32 %87 to i64, !dbg !1553
  %90 = mul i64 %89, 8192, !dbg !1554
  %91 = srem i64 %88, 8192, !dbg !1555
  %92 = add i64 %90, %91, !dbg !1556
  %93 = add i64 %92, 9663676416, !dbg !1557
  %94 = load ptr, ptr @_rbuf, align 8, !dbg !1558
  %95 = getelementptr i8, ptr %94, i64 %93, !dbg !1559
  %96 = call ptr @_ZNKSt6vectorIiSaIiEEixEm__1(ptr %8, i64 %72), !dbg !1560
  %97 = getelementptr i32, ptr %28, i64 %74, !dbg !1561
  %98 = load i32, ptr %97, align 4, !dbg !1562
  %99 = ptrtoint ptr %96 to i64, !dbg !1563
  %100 = sext i32 %98 to i64, !dbg !1564
  %101 = mul i64 %100, 4096, !dbg !1565
  %102 = srem i64 %99, 4096, !dbg !1566
  %103 = add i64 %101, %102, !dbg !1567
  %104 = add i64 %103, 0, !dbg !1568
  %105 = load ptr, ptr @_rbuf, align 8, !dbg !1569
  %106 = getelementptr i8, ptr %105, i64 %104, !dbg !1570
  %107 = getelementptr { i64, i8, i8, i16, i32 }, ptr @tokens, i64 %100, !dbg !1571
  %108 = getelementptr { i64, i8, i8, i16, i32 }, ptr %107, i32 0, i32 3, !dbg !1572
  %109 = load i16, ptr %108, align 2, !dbg !1573
  call void @poll_qid12(i32 0, i16 %109), !dbg !1574
  %110 = mul i64 %40, 1024, !dbg !1575
  %111 = icmp sgt i64 %9, %110, !dbg !1576
  br i1 %111, label %112, label %113, !dbg !1577

112:                                              ; preds = %71
  br label %116, !dbg !1578

113:                                              ; preds = %71
  %114 = mul i64 %37, 1024, !dbg !1579
  %115 = sub i64 %9, %114, !dbg !1580
  br label %116, !dbg !1581

116:                                              ; preds = %112, %113
  %117 = phi i64 [ %115, %113 ], [ 1024, %112 ]
  br label %118, !dbg !1582

118:                                              ; preds = %116
  %119 = mul i64 %37, 1024, !dbg !1583
  br label %120, !dbg !1584

120:                                              ; preds = %137, %118
  %121 = phi i64 [ %138, %137 ], [ 0, %118 ]
  %122 = icmp slt i64 %121, %117, !dbg !1585
  br i1 %122, label %123, label %139, !dbg !1586

123:                                              ; preds = %120
  %124 = add i64 %121, %119, !dbg !1587
  %125 = getelementptr i8, ptr %84, i64 %121, !dbg !1588
  %126 = getelementptr i64, ptr %95, i64 %121, !dbg !1589
  %127 = getelementptr i32, ptr %106, i64 %121, !dbg !1590
  %128 = call ptr @_ZNKSt6vectorImSaImEEixEm__0(ptr %6, i64 %124), !dbg !1591
  %129 = load i64, ptr %126, align 8, !dbg !1592
  store i64 %129, ptr %5, align 8, !dbg !1593
  %130 = call ptr @_ZNKSt6vectorIcSaIcEEixEm__0(ptr %7, i64 %124), !dbg !1594
  %131 = load i8, ptr %125, align 1, !dbg !1595
  store i8 %131, ptr %4, align 1, !dbg !1596
  %132 = call ptr @_ZNKSt6vectorIiSaIiEEixEm__1(ptr %8, i64 %124), !dbg !1597
  %133 = load i32, ptr %127, align 4, !dbg !1598
  store i32 %133, ptr %3, align 4, !dbg !1599
  %134 = call i8 @"_ZZ41calculate_distribution_store_and_fwd_flagvENK3$_0clERKmRKc"(ptr %0, ptr %5, ptr %4), !dbg !1600
  %135 = icmp ne i8 %134, 0, !dbg !1601
  br i1 %135, label %136, label %137, !dbg !1602

136:                                              ; preds = %123
  call void @_ZNSt6vectorIiSaIiEE9push_backERKi(ptr %1, ptr %3), !dbg !1603
  br label %137, !dbg !1604

137:                                              ; preds = %136, %123
  %138 = add i64 %121, 1, !dbg !1605
  br label %120, !dbg !1606

139:                                              ; preds = %120
  %140 = add i64 %37, 1, !dbg !1607
  br label %36, !dbg !1608

141:                                              ; preds = %36
  ret void, !dbg !1609
}

define linkonce_odr i64 @_ZNKSt6vectorImSaImEE4sizeEv(ptr %0) !dbg !1610 {
  %2 = getelementptr %"class.std::vector.1", ptr %0, i32 0, i32 0, !dbg !1611
  %3 = getelementptr %"struct.std::_Vector_base.2", ptr %2, i32 0, i32 0, !dbg !1613
  %4 = getelementptr %"struct.std::_Vector_base<unsigned long, std::allocator<unsigned long>>::_Vector_impl", ptr %3, i32 0, i32 0, !dbg !1614
  %5 = getelementptr %"struct.std::_Vector_base<unsigned long, std::allocator<unsigned long>>::_Vector_impl_data", ptr %4, i32 0, i32 1, !dbg !1615
  %6 = load ptr, ptr %5, align 8, !dbg !1616
  %7 = getelementptr %"struct.std::_Vector_base<unsigned long, std::allocator<unsigned long>>::_Vector_impl_data", ptr %4, i32 0, i32 0, !dbg !1617
  %8 = load ptr, ptr %7, align 8, !dbg !1618
  %9 = ptrtoint ptr %6 to i64, !dbg !1619
  %10 = ptrtoint ptr %8 to i64, !dbg !1620
  %11 = sub i64 %9, %10, !dbg !1621
  %12 = sdiv i64 %11, 8, !dbg !1622
  ret i64 %12, !dbg !1623
}

define linkonce_odr i64 @_ZNKSt6vectorImSaImEE4sizeEv__1(ptr %0) !dbg !1624 {
  %2 = getelementptr { { { { ptr, ptr, ptr } } } }, ptr %0, i32 0, i32 0, !dbg !1625
  %3 = getelementptr { { { ptr, ptr, ptr } } }, ptr %2, i32 0, i32 0, !dbg !1627
  %4 = getelementptr { { ptr, ptr, ptr } }, ptr %3, i32 0, i32 0, !dbg !1628
  %5 = getelementptr { ptr, ptr, ptr }, ptr %4, i32 0, i32 1, !dbg !1629
  %6 = load ptr, ptr %5, align 8, !dbg !1630
  %7 = getelementptr { ptr, ptr, ptr }, ptr %4, i32 0, i32 0, !dbg !1631
  %8 = load ptr, ptr %7, align 8, !dbg !1632
  %9 = ptrtoint ptr %6 to i64, !dbg !1633
  %10 = ptrtoint ptr %8 to i64, !dbg !1634
  %11 = sub i64 %9, %10, !dbg !1635
  %12 = sdiv i64 %11, 8, !dbg !1636
  ret i64 %12, !dbg !1637
}

define linkonce_odr i64 @_ZNKSt6vectorImSaImEE4sizeEv__0(ptr %0) !dbg !1638 {
  %2 = getelementptr { { { { ptr, ptr, ptr } } } }, ptr %0, i32 0, i32 0, !dbg !1639
  %3 = getelementptr { { { ptr, ptr, ptr } } }, ptr %2, i32 0, i32 0, !dbg !1641
  %4 = getelementptr { { ptr, ptr, ptr } }, ptr %3, i32 0, i32 0, !dbg !1642
  %5 = getelementptr { ptr, ptr, ptr }, ptr %4, i32 0, i32 1, !dbg !1643
  %6 = load ptr, ptr %5, align 8, !dbg !1644
  %7 = getelementptr { ptr, ptr, ptr }, ptr %4, i32 0, i32 0, !dbg !1645
  %8 = load ptr, ptr %7, align 8, !dbg !1646
  %9 = ptrtoint ptr %6 to i64, !dbg !1647
  %10 = ptrtoint ptr %8 to i64, !dbg !1648
  %11 = sub i64 %9, %10, !dbg !1649
  %12 = sdiv i64 %11, 8, !dbg !1650
  ret i64 %12, !dbg !1651
}

declare ptr @_Z9get_indexv()

define internal void @"_Z19get_vid_by_storefwdIZ41calculate_distribution_store_and_fwd_flagvE3$_1iEvRT_RSt6vectorIT0_SaIS4_EE"(ptr %0, ptr %1) !dbg !1652 {
  %3 = alloca i32, i64 1, align 4, !dbg !1653
  store i32 undef, ptr %3, align 4, !dbg !1655
  %4 = alloca i8, i64 1, align 1, !dbg !1656
  store i8 undef, ptr %4, align 1, !dbg !1657
  %5 = alloca i64, i64 1, align 8, !dbg !1658
  store i64 undef, ptr %5, align 8, !dbg !1659
  %6 = load ptr, ptr @index_col, align 8, !dbg !1660
  %7 = load ptr, ptr @store_fwd_col, align 8, !dbg !1661
  %8 = load ptr, ptr @vendor_id_col, align 8, !dbg !1662
  %9 = call i64 @_ZNKSt6vectorIcSaIcEE4sizeEv__0(ptr %7), !dbg !1663
  call void @_ZNSt6vectorIiSaIiEE7reserveEm(ptr %1, i64 %9), !dbg !1664
  %10 = add i64 %9, 1023, !dbg !1665
  %11 = sdiv i64 %10, 1024, !dbg !1666
  %12 = alloca i32, i32 2, align 4, !dbg !1667
  %13 = call ptr @_ZNKSt6vectorIcSaIcEEixEm__0(ptr %7, i64 0), !dbg !1668
  %14 = ptrtoint ptr %13 to i64, !dbg !1669
  %15 = and i64 %14, -1024, !dbg !1670
  %16 = udiv i64 %15, 1024, !dbg !1671
  %17 = srem i64 %16, 36864, !dbg !1672
  %18 = trunc i64 %17 to i32, !dbg !1673
  %19 = call i32 @cache_request_impl_1(i32 0, i64 %15, i32 %18, i8 1), !dbg !1674
  store i32 %18, ptr %12, align 4, !dbg !1675
  %20 = alloca i32, i32 2, align 4, !dbg !1676
  %21 = call ptr @_ZNKSt6vectorIiSaIiEEixEm__1(ptr %8, i64 0), !dbg !1677
  %22 = ptrtoint ptr %21 to i64, !dbg !1678
  %23 = and i64 %22, -4096, !dbg !1679
  %24 = udiv i64 %23, 4096, !dbg !1680
  %25 = srem i64 %24, 36864, !dbg !1681
  %26 = trunc i64 %25 to i32, !dbg !1682
  %27 = call i32 @cache_request_impl_12(i32 0, i64 %23, i32 %26, i8 1), !dbg !1683
  store i32 %26, ptr %20, align 4, !dbg !1684
  %28 = alloca i32, i32 2, align 4, !dbg !1685
  %29 = call ptr @_ZNKSt6vectorImSaImEEixEm__0(ptr %6, i64 0), !dbg !1686
  %30 = ptrtoint ptr %29 to i64, !dbg !1687
  %31 = and i64 %30, -8192, !dbg !1688
  %32 = udiv i64 %31, 8192, !dbg !1689
  %33 = srem i64 %32, 36864, !dbg !1690
  %34 = trunc i64 %33 to i32, !dbg !1691
  %35 = call i32 @cache_request_impl_5(i32 0, i64 %31, i32 %34, i8 1), !dbg !1692
  store i32 %34, ptr %28, align 4, !dbg !1693
  br label %36, !dbg !1694

36:                                               ; preds = %141, %2
  %37 = phi i64 [ %142, %141 ], [ 0, %2 ]
  %38 = icmp slt i64 %37, %11, !dbg !1695
  br i1 %38, label %39, label %143, !dbg !1696

39:                                               ; preds = %36
  %40 = add i64 %37, 1, !dbg !1697
  %41 = icmp slt i64 %40, %11, !dbg !1698
  br i1 %41, label %42, label %71, !dbg !1699

42:                                               ; preds = %39
  %43 = srem i64 %40, 2, !dbg !1700
  %44 = trunc i64 %43 to i32, !dbg !1701
  %45 = mul i64 %40, 1024, !dbg !1702
  %46 = call ptr @_ZNKSt6vectorIcSaIcEEixEm__0(ptr %7, i64 %45), !dbg !1703
  %47 = ptrtoint ptr %46 to i64, !dbg !1704
  %48 = and i64 %47, -1024, !dbg !1705
  %49 = udiv i64 %48, 1024, !dbg !1706
  %50 = srem i64 %49, 36864, !dbg !1707
  %51 = trunc i64 %50 to i32, !dbg !1708
  %52 = call i32 @cache_request_impl_1(i32 0, i64 %48, i32 %51, i8 1), !dbg !1709
  %53 = sext i32 %44 to i64, !dbg !1710
  %54 = getelementptr i32, ptr %12, i64 %53, !dbg !1711
  store i32 %51, ptr %54, align 4, !dbg !1712
  %55 = call ptr @_ZNKSt6vectorIiSaIiEEixEm__1(ptr %8, i64 %45), !dbg !1713
  %56 = ptrtoint ptr %55 to i64, !dbg !1714
  %57 = and i64 %56, -4096, !dbg !1715
  %58 = udiv i64 %57, 4096, !dbg !1716
  %59 = srem i64 %58, 36864, !dbg !1717
  %60 = trunc i64 %59 to i32, !dbg !1718
  %61 = call i32 @cache_request_impl_12(i32 0, i64 %57, i32 %60, i8 1), !dbg !1719
  %62 = getelementptr i32, ptr %20, i64 %53, !dbg !1720
  store i32 %60, ptr %62, align 4, !dbg !1721
  %63 = call ptr @_ZNKSt6vectorImSaImEEixEm__0(ptr %6, i64 %45), !dbg !1722
  %64 = ptrtoint ptr %63 to i64, !dbg !1723
  %65 = and i64 %64, -8192, !dbg !1724
  %66 = udiv i64 %65, 8192, !dbg !1725
  %67 = srem i64 %66, 36864, !dbg !1726
  %68 = trunc i64 %67 to i32, !dbg !1727
  %69 = call i32 @cache_request_impl_5(i32 0, i64 %65, i32 %68, i8 1), !dbg !1728
  %70 = getelementptr i32, ptr %28, i64 %53, !dbg !1729
  store i32 %68, ptr %70, align 4, !dbg !1730
  br label %71, !dbg !1731

71:                                               ; preds = %42, %39
  %72 = mul i64 %37, 1024, !dbg !1732
  %73 = call ptr @_ZNKSt6vectorIcSaIcEEixEm__0(ptr %7, i64 %72), !dbg !1733
  %74 = srem i64 %37, 2, !dbg !1734
  %75 = getelementptr i32, ptr %12, i64 %74, !dbg !1735
  %76 = load i32, ptr %75, align 4, !dbg !1736
  %77 = ptrtoint ptr %73 to i64, !dbg !1737
  %78 = sext i32 %76 to i64, !dbg !1738
  %79 = mul i64 %78, 1024, !dbg !1739
  %80 = srem i64 %77, 1024, !dbg !1740
  %81 = add i64 %79, %80, !dbg !1741
  %82 = add i64 %81, 6442450944, !dbg !1742
  %83 = load ptr, ptr @_rbuf, align 8, !dbg !1743
  %84 = getelementptr i8, ptr %83, i64 %82, !dbg !1744
  %85 = call ptr @_ZNKSt6vectorIiSaIiEEixEm__1(ptr %8, i64 %72), !dbg !1745
  %86 = getelementptr i32, ptr %20, i64 %74, !dbg !1746
  %87 = load i32, ptr %86, align 4, !dbg !1747
  %88 = ptrtoint ptr %85 to i64, !dbg !1748
  %89 = sext i32 %87 to i64, !dbg !1749
  %90 = mul i64 %89, 4096, !dbg !1750
  %91 = srem i64 %88, 4096, !dbg !1751
  %92 = add i64 %90, %91, !dbg !1752
  %93 = add i64 %92, 0, !dbg !1753
  %94 = load ptr, ptr @_rbuf, align 8, !dbg !1754
  %95 = getelementptr i8, ptr %94, i64 %93, !dbg !1755
  %96 = call ptr @_ZNKSt6vectorImSaImEEixEm__0(ptr %6, i64 %72), !dbg !1756
  %97 = getelementptr i32, ptr %28, i64 %74, !dbg !1757
  %98 = load i32, ptr %97, align 4, !dbg !1758
  %99 = ptrtoint ptr %96 to i64, !dbg !1759
  %100 = sext i32 %98 to i64, !dbg !1760
  %101 = mul i64 %100, 8192, !dbg !1761
  %102 = srem i64 %99, 8192, !dbg !1762
  %103 = add i64 %101, %102, !dbg !1763
  %104 = add i64 %103, 9663676416, !dbg !1764
  %105 = load ptr, ptr @_rbuf, align 8, !dbg !1765
  %106 = getelementptr i8, ptr %105, i64 %104, !dbg !1766
  %107 = add i32 %98, 331776, !dbg !1767
  %108 = sext i32 %107 to i64, !dbg !1768
  %109 = getelementptr { i64, i8, i8, i16, i32 }, ptr @tokens, i64 %108, !dbg !1769
  %110 = getelementptr { i64, i8, i8, i16, i32 }, ptr %109, i32 0, i32 3, !dbg !1770
  %111 = load i16, ptr %110, align 2, !dbg !1771
  call void @poll_qid5(i32 9, i16 %111), !dbg !1772
  %112 = mul i64 %40, 1024, !dbg !1773
  %113 = icmp sgt i64 %9, %112, !dbg !1774
  br i1 %113, label %114, label %115, !dbg !1775

114:                                              ; preds = %71
  br label %118, !dbg !1776

115:                                              ; preds = %71
  %116 = mul i64 %37, 1024, !dbg !1777
  %117 = sub i64 %9, %116, !dbg !1778
  br label %118, !dbg !1779

118:                                              ; preds = %114, %115
  %119 = phi i64 [ %117, %115 ], [ 1024, %114 ]
  br label %120, !dbg !1780

120:                                              ; preds = %118
  %121 = mul i64 %37, 1024, !dbg !1781
  br label %122, !dbg !1782

122:                                              ; preds = %139, %120
  %123 = phi i64 [ %140, %139 ], [ 0, %120 ]
  %124 = icmp slt i64 %123, %119, !dbg !1783
  br i1 %124, label %125, label %141, !dbg !1784

125:                                              ; preds = %122
  %126 = add i64 %123, %121, !dbg !1785
  %127 = getelementptr i8, ptr %84, i64 %123, !dbg !1786
  %128 = getelementptr i32, ptr %95, i64 %123, !dbg !1787
  %129 = getelementptr i64, ptr %106, i64 %123, !dbg !1788
  %130 = call ptr @_ZNKSt6vectorImSaImEEixEm__0(ptr %6, i64 %126), !dbg !1789
  %131 = load i64, ptr %129, align 8, !dbg !1790
  store i64 %131, ptr %5, align 8, !dbg !1791
  %132 = call ptr @_ZNKSt6vectorIcSaIcEEixEm__0(ptr %7, i64 %126), !dbg !1792
  %133 = load i8, ptr %127, align 1, !dbg !1793
  store i8 %133, ptr %4, align 1, !dbg !1794
  %134 = call ptr @_ZNKSt6vectorIiSaIiEEixEm__1(ptr %8, i64 %126), !dbg !1795
  %135 = load i32, ptr %128, align 4, !dbg !1796
  store i32 %135, ptr %3, align 4, !dbg !1797
  %136 = call i8 @"_ZZ41calculate_distribution_store_and_fwd_flagvENK3$_1clERKmRKc"(ptr %0, ptr %5, ptr %4), !dbg !1798
  %137 = icmp ne i8 %136, 0, !dbg !1799
  br i1 %137, label %138, label %139, !dbg !1800

138:                                              ; preds = %125
  call void @_ZNSt6vectorIiSaIiEE9push_backERKi(ptr %1, ptr %3), !dbg !1801
  br label %139, !dbg !1802

139:                                              ; preds = %138, %125
  %140 = add i64 %123, 1, !dbg !1803
  br label %122, !dbg !1804

141:                                              ; preds = %122
  %142 = add i64 %37, 1, !dbg !1805
  br label %36, !dbg !1806

143:                                              ; preds = %36
  ret void, !dbg !1807
}

declare i8 @_Z15step4_firstTimei(i32)

define linkonce_odr void @_ZNSt6vectorIiSaIiEE9push_backERKi(ptr %0, ptr %1) !dbg !1808 {
  %3 = alloca %"class.__gnu_cxx::__normal_iterator", i64 1, align 8, !dbg !1809
  %4 = alloca %"class.__gnu_cxx::__normal_iterator", i64 1, align 8, !dbg !1811
  %5 = getelementptr %"class.std::vector", ptr %0, i32 0, i32 0, !dbg !1812
  %6 = getelementptr %"struct.std::_Vector_base", ptr %5, i32 0, i32 0, !dbg !1813
  %7 = getelementptr %"struct.std::_Vector_base<int, std::allocator<int>>::_Vector_impl", ptr %6, i32 0, i32 0, !dbg !1814
  %8 = getelementptr %"struct.std::_Vector_base<int, std::allocator<int>>::_Vector_impl_data", ptr %7, i32 0, i32 1, !dbg !1815
  %9 = load ptr, ptr %8, align 8, !dbg !1816
  %10 = getelementptr %"struct.std::_Vector_base<int, std::allocator<int>>::_Vector_impl_data", ptr %7, i32 0, i32 2, !dbg !1817
  %11 = load ptr, ptr %10, align 8, !dbg !1818
  %12 = icmp ne ptr %9, %11, !dbg !1819
  br i1 %12, label %13, label %19, !dbg !1820

13:                                               ; preds = %2
  %14 = icmp ne ptr %6, null, !dbg !1821
  %15 = select i1 %14, ptr %6, ptr null, !dbg !1822
  %16 = load ptr, ptr %8, align 8, !dbg !1823
  call void @_ZNSt16allocator_traitsISaIiEE9constructIiJRKiEEEvRS0_PT_DpOT0_(ptr %15, ptr %16, ptr %1), !dbg !1824
  %17 = load ptr, ptr %8, align 8, !dbg !1825
  %18 = getelementptr i32, ptr %17, i32 1, !dbg !1826
  store ptr %18, ptr %8, align 8, !dbg !1827
  br label %22, !dbg !1828

19:                                               ; preds = %2
  %20 = call %"class.__gnu_cxx::__normal_iterator" @_ZNSt6vectorIiSaIiEE3endEv(ptr %0), !dbg !1829
  store %"class.__gnu_cxx::__normal_iterator" %20, ptr %3, align 8, !dbg !1830
  call void @_ZN9__gnu_cxx17__normal_iteratorIPiSt6vectorIiSaIiEEEC1EOS5_(ptr %4, ptr %3), !dbg !1831
  %21 = load %"class.__gnu_cxx::__normal_iterator", ptr %4, align 8, !dbg !1832
  call void @_ZNSt6vectorIiSaIiEE17_M_realloc_insertIJRKiEEEvN9__gnu_cxx17__normal_iteratorIPiS1_EEDpOT_(ptr %0, %"class.__gnu_cxx::__normal_iterator" %21, ptr %1), !dbg !1833
  br label %22, !dbg !1834

22:                                               ; preds = %13, %19
  ret void, !dbg !1835
}

define linkonce_odr void @_ZN9__gnu_cxx17__normal_iteratorIPiSt6vectorIiSaIiEEEC1EOS5_(ptr %0, ptr %1) !dbg !1836 {
  %3 = getelementptr %"class.__gnu_cxx::__normal_iterator", ptr %1, i32 0, i32 0, !dbg !1837
  %4 = load ptr, ptr %3, align 8, !dbg !1839
  %5 = getelementptr %"class.__gnu_cxx::__normal_iterator", ptr %0, i32 0, i32 0, !dbg !1840
  store ptr %4, ptr %5, align 8, !dbg !1841
  ret void, !dbg !1842
}

define linkonce_odr %"class.__gnu_cxx::__normal_iterator" @_ZNSt6vectorIiSaIiEE5beginEv(ptr %0) !dbg !1843 {
  %2 = alloca %"class.__gnu_cxx::__normal_iterator", i64 1, align 8, !dbg !1844
  %3 = alloca %"class.__gnu_cxx::__normal_iterator", i64 1, align 8, !dbg !1846
  %4 = alloca %"class.__gnu_cxx::__normal_iterator", i64 1, align 8, !dbg !1847
  %5 = getelementptr %"class.std::vector", ptr %0, i32 0, i32 0, !dbg !1848
  %6 = getelementptr %"struct.std::_Vector_base", ptr %5, i32 0, i32 0, !dbg !1849
  %7 = getelementptr %"struct.std::_Vector_base<int, std::allocator<int>>::_Vector_impl", ptr %6, i32 0, i32 0, !dbg !1850
  %8 = getelementptr %"struct.std::_Vector_base<int, std::allocator<int>>::_Vector_impl_data", ptr %7, i32 0, i32 0, !dbg !1851
  call void @_ZN9__gnu_cxx17__normal_iteratorIPiSt6vectorIiSaIiEEEC1ERKS1_(ptr %3, ptr %8), !dbg !1852
  %9 = load %"class.__gnu_cxx::__normal_iterator", ptr %3, align 8, !dbg !1853
  store %"class.__gnu_cxx::__normal_iterator" %9, ptr %2, align 8, !dbg !1854
  call void @_ZN9__gnu_cxx17__normal_iteratorIPiSt6vectorIiSaIiEEEC1EOS5_(ptr %4, ptr %2), !dbg !1855
  %10 = load %"class.__gnu_cxx::__normal_iterator", ptr %4, align 8, !dbg !1856
  ret %"class.__gnu_cxx::__normal_iterator" %10, !dbg !1857
}

define linkonce_odr %"class.__gnu_cxx::__normal_iterator" @_ZNSt6vectorIiSaIiEE3endEv(ptr %0) !dbg !1858 {
  %2 = alloca %"class.__gnu_cxx::__normal_iterator", i64 1, align 8, !dbg !1859
  %3 = alloca %"class.__gnu_cxx::__normal_iterator", i64 1, align 8, !dbg !1861
  %4 = alloca %"class.__gnu_cxx::__normal_iterator", i64 1, align 8, !dbg !1862
  %5 = getelementptr %"class.std::vector", ptr %0, i32 0, i32 0, !dbg !1863
  %6 = getelementptr %"struct.std::_Vector_base", ptr %5, i32 0, i32 0, !dbg !1864
  %7 = getelementptr %"struct.std::_Vector_base<int, std::allocator<int>>::_Vector_impl", ptr %6, i32 0, i32 0, !dbg !1865
  %8 = getelementptr %"struct.std::_Vector_base<int, std::allocator<int>>::_Vector_impl_data", ptr %7, i32 0, i32 1, !dbg !1866
  call void @_ZN9__gnu_cxx17__normal_iteratorIPiSt6vectorIiSaIiEEEC1ERKS1_(ptr %3, ptr %8), !dbg !1867
  %9 = load %"class.__gnu_cxx::__normal_iterator", ptr %3, align 8, !dbg !1868
  store %"class.__gnu_cxx::__normal_iterator" %9, ptr %2, align 8, !dbg !1869
  call void @_ZN9__gnu_cxx17__normal_iteratorIPiSt6vectorIiSaIiEEEC1EOS5_(ptr %4, ptr %2), !dbg !1870
  %10 = load %"class.__gnu_cxx::__normal_iterator", ptr %4, align 8, !dbg !1871
  ret %"class.__gnu_cxx::__normal_iterator" %10, !dbg !1872
}

define linkonce_odr i8 @_ZN9__gnu_cxxneIPiSt6vectorIiSaIiEEEEbRKNS_17__normal_iteratorIT_T0_EESA_(ptr %0, ptr %1) !dbg !1873 {
  %3 = call ptr @_ZNK9__gnu_cxx17__normal_iteratorIPiSt6vectorIiSaIiEEE4baseEv(ptr %0), !dbg !1874
  %4 = load ptr, ptr %3, align 8, !dbg !1876
  %5 = call ptr @_ZNK9__gnu_cxx17__normal_iteratorIPiSt6vectorIiSaIiEEE4baseEv(ptr %1), !dbg !1877
  %6 = load ptr, ptr %5, align 8, !dbg !1878
  %7 = icmp ne ptr %4, %6, !dbg !1879
  %8 = zext i1 %7 to i8, !dbg !1880
  ret i8 %8, !dbg !1881
}

define linkonce_odr ptr @_ZNK9__gnu_cxx17__normal_iteratorIPiSt6vectorIiSaIiEEEdeEv(ptr %0) !dbg !1882 {
  %2 = getelementptr %"class.__gnu_cxx::__normal_iterator", ptr %0, i32 0, i32 0, !dbg !1883
  %3 = load ptr, ptr %2, align 8, !dbg !1885
  ret ptr %3, !dbg !1886
}

define linkonce_odr ptr @_ZN9__gnu_cxx17__normal_iteratorIPiSt6vectorIiSaIiEEEppEv(ptr %0) !dbg !1887 {
  %2 = getelementptr %"class.__gnu_cxx::__normal_iterator", ptr %0, i32 0, i32 0, !dbg !1888
  %3 = load ptr, ptr %2, align 8, !dbg !1890
  %4 = getelementptr i32, ptr %3, i32 1, !dbg !1891
  store ptr %4, ptr %2, align 8, !dbg !1892
  ret ptr %0, !dbg !1893
}

define linkonce_odr i64 @_ZNKSt6vectorIdSaIdEE4sizeEv(ptr %0) !dbg !1894 {
  %2 = getelementptr %"class.std::vector.9", ptr %0, i32 0, i32 0, !dbg !1895
  %3 = getelementptr %"struct.std::_Vector_base.10", ptr %2, i32 0, i32 0, !dbg !1897
  %4 = getelementptr %"struct.std::_Vector_base<double, std::allocator<double>>::_Vector_impl", ptr %3, i32 0, i32 0, !dbg !1898
  %5 = getelementptr %"struct.std::_Vector_base<double, std::allocator<double>>::_Vector_impl_data", ptr %4, i32 0, i32 1, !dbg !1899
  %6 = load ptr, ptr %5, align 8, !dbg !1900
  %7 = getelementptr %"struct.std::_Vector_base<double, std::allocator<double>>::_Vector_impl_data", ptr %4, i32 0, i32 0, !dbg !1901
  %8 = load ptr, ptr %7, align 8, !dbg !1902
  %9 = ptrtoint ptr %6 to i64, !dbg !1903
  %10 = ptrtoint ptr %8 to i64, !dbg !1904
  %11 = sub i64 %9, %10, !dbg !1905
  %12 = sdiv i64 %11, 8, !dbg !1906
  ret i64 %12, !dbg !1907
}

define linkonce_odr i64 @_ZNKSt6vectorIdSaIdEE4sizeEv__4(ptr %0) !dbg !1908 {
  %2 = getelementptr { { { { ptr, ptr, ptr } } } }, ptr %0, i32 0, i32 0, !dbg !1909
  %3 = getelementptr { { { ptr, ptr, ptr } } }, ptr %2, i32 0, i32 0, !dbg !1911
  %4 = getelementptr { { ptr, ptr, ptr } }, ptr %3, i32 0, i32 0, !dbg !1912
  %5 = getelementptr { ptr, ptr, ptr }, ptr %4, i32 0, i32 1, !dbg !1913
  %6 = load ptr, ptr %5, align 8, !dbg !1914
  %7 = getelementptr { ptr, ptr, ptr }, ptr %4, i32 0, i32 0, !dbg !1915
  %8 = load ptr, ptr %7, align 8, !dbg !1916
  %9 = ptrtoint ptr %6 to i64, !dbg !1917
  %10 = ptrtoint ptr %8 to i64, !dbg !1918
  %11 = sub i64 %9, %10, !dbg !1919
  %12 = sdiv i64 %11, 8, !dbg !1920
  ret i64 %12, !dbg !1921
}

define linkonce_odr i64 @_ZNKSt6vectorIdSaIdEE4sizeEv__3(ptr %0) !dbg !1922 {
  %2 = getelementptr { { { { ptr, ptr, ptr } } } }, ptr %0, i32 0, i32 0, !dbg !1923
  %3 = getelementptr { { { ptr, ptr, ptr } } }, ptr %2, i32 0, i32 0, !dbg !1925
  %4 = getelementptr { { ptr, ptr, ptr } }, ptr %3, i32 0, i32 0, !dbg !1926
  %5 = getelementptr { ptr, ptr, ptr }, ptr %4, i32 0, i32 1, !dbg !1927
  %6 = load ptr, ptr %5, align 8, !dbg !1928
  %7 = getelementptr { ptr, ptr, ptr }, ptr %4, i32 0, i32 0, !dbg !1929
  %8 = load ptr, ptr %7, align 8, !dbg !1930
  %9 = ptrtoint ptr %6 to i64, !dbg !1931
  %10 = ptrtoint ptr %8 to i64, !dbg !1932
  %11 = sub i64 %9, %10, !dbg !1933
  %12 = sdiv i64 %11, 8, !dbg !1934
  ret i64 %12, !dbg !1935
}

define linkonce_odr i64 @_ZNKSt6vectorIdSaIdEE4sizeEv__2(ptr %0) !dbg !1936 {
  %2 = getelementptr { { { { ptr, ptr, ptr } } } }, ptr %0, i32 0, i32 0, !dbg !1937
  %3 = getelementptr { { { ptr, ptr, ptr } } }, ptr %2, i32 0, i32 0, !dbg !1939
  %4 = getelementptr { { ptr, ptr, ptr } }, ptr %3, i32 0, i32 0, !dbg !1940
  %5 = getelementptr { ptr, ptr, ptr }, ptr %4, i32 0, i32 1, !dbg !1941
  %6 = load ptr, ptr %5, align 8, !dbg !1942
  %7 = getelementptr { ptr, ptr, ptr }, ptr %4, i32 0, i32 0, !dbg !1943
  %8 = load ptr, ptr %7, align 8, !dbg !1944
  %9 = ptrtoint ptr %6 to i64, !dbg !1945
  %10 = ptrtoint ptr %8 to i64, !dbg !1946
  %11 = sub i64 %9, %10, !dbg !1947
  %12 = sdiv i64 %11, 8, !dbg !1948
  ret i64 %12, !dbg !1949
}

define linkonce_odr i64 @_ZNKSt6vectorIdSaIdEE4sizeEv__1(ptr %0) !dbg !1950 {
  %2 = getelementptr { { { { ptr, ptr, ptr } } } }, ptr %0, i32 0, i32 0, !dbg !1951
  %3 = getelementptr { { { ptr, ptr, ptr } } }, ptr %2, i32 0, i32 0, !dbg !1953
  %4 = getelementptr { { ptr, ptr, ptr } }, ptr %3, i32 0, i32 0, !dbg !1954
  %5 = getelementptr { ptr, ptr, ptr }, ptr %4, i32 0, i32 1, !dbg !1955
  %6 = load ptr, ptr %5, align 8, !dbg !1956
  %7 = getelementptr { ptr, ptr, ptr }, ptr %4, i32 0, i32 0, !dbg !1957
  %8 = load ptr, ptr %7, align 8, !dbg !1958
  %9 = ptrtoint ptr %6 to i64, !dbg !1959
  %10 = ptrtoint ptr %8 to i64, !dbg !1960
  %11 = sub i64 %9, %10, !dbg !1961
  %12 = sdiv i64 %11, 8, !dbg !1962
  ret i64 %12, !dbg !1963
}

define linkonce_odr i64 @_ZNKSt6vectorIdSaIdEE4sizeEv__0(ptr %0) !dbg !1964 {
  %2 = getelementptr { { { { ptr, ptr, ptr } } } }, ptr %0, i32 0, i32 0, !dbg !1965
  %3 = getelementptr { { { ptr, ptr, ptr } } }, ptr %2, i32 0, i32 0, !dbg !1967
  %4 = getelementptr { { ptr, ptr, ptr } }, ptr %3, i32 0, i32 0, !dbg !1968
  %5 = getelementptr { ptr, ptr, ptr }, ptr %4, i32 0, i32 1, !dbg !1969
  %6 = load ptr, ptr %5, align 8, !dbg !1970
  %7 = getelementptr { ptr, ptr, ptr }, ptr %4, i32 0, i32 0, !dbg !1971
  %8 = load ptr, ptr %7, align 8, !dbg !1972
  %9 = ptrtoint ptr %6 to i64, !dbg !1973
  %10 = ptrtoint ptr %8 to i64, !dbg !1974
  %11 = sub i64 %9, %10, !dbg !1975
  %12 = sdiv i64 %11, 8, !dbg !1976
  ret i64 %12, !dbg !1977
}

define linkonce_odr ptr @_ZNSt6vectorIdSaIdEEixEm(ptr %0, i64 %1) !dbg !1978 {
  %3 = getelementptr %"class.std::vector.9", ptr %0, i32 0, i32 0, !dbg !1979
  %4 = getelementptr %"struct.std::_Vector_base.10", ptr %3, i32 0, i32 0, !dbg !1981
  %5 = getelementptr %"struct.std::_Vector_base<double, std::allocator<double>>::_Vector_impl", ptr %4, i32 0, i32 0, !dbg !1982
  %6 = getelementptr %"struct.std::_Vector_base<double, std::allocator<double>>::_Vector_impl_data", ptr %5, i32 0, i32 0, !dbg !1983
  %7 = load ptr, ptr %6, align 8, !dbg !1984
  %8 = getelementptr double, ptr %7, i64 %1, !dbg !1985
  ret ptr %8, !dbg !1986
}

define linkonce_odr ptr @_ZNSt6vectorIdSaIdEEixEm__4(ptr %0, i64 %1) !dbg !1987 {
  %3 = getelementptr { { { { ptr, ptr, ptr } } } }, ptr %0, i32 0, i32 0, !dbg !1988
  %4 = getelementptr { { { ptr, ptr, ptr } } }, ptr %3, i32 0, i32 0, !dbg !1990
  %5 = getelementptr { { ptr, ptr, ptr } }, ptr %4, i32 0, i32 0, !dbg !1991
  %6 = getelementptr { ptr, ptr, ptr }, ptr %5, i32 0, i32 0, !dbg !1992
  %7 = load ptr, ptr %6, align 8, !dbg !1993
  %8 = getelementptr double, ptr %7, i64 %1, !dbg !1994
  ret ptr %8, !dbg !1995
}

define linkonce_odr ptr @_ZNSt6vectorIdSaIdEEixEm__3(ptr %0, i64 %1) !dbg !1996 {
  %3 = getelementptr { { { { ptr, ptr, ptr } } } }, ptr %0, i32 0, i32 0, !dbg !1997
  %4 = getelementptr { { { ptr, ptr, ptr } } }, ptr %3, i32 0, i32 0, !dbg !1999
  %5 = getelementptr { { ptr, ptr, ptr } }, ptr %4, i32 0, i32 0, !dbg !2000
  %6 = getelementptr { ptr, ptr, ptr }, ptr %5, i32 0, i32 0, !dbg !2001
  %7 = load ptr, ptr %6, align 8, !dbg !2002
  %8 = getelementptr double, ptr %7, i64 %1, !dbg !2003
  ret ptr %8, !dbg !2004
}

define linkonce_odr ptr @_ZNSt6vectorIdSaIdEEixEm__2(ptr %0, i64 %1) !dbg !2005 {
  %3 = getelementptr { { { { ptr, ptr, ptr } } } }, ptr %0, i32 0, i32 0, !dbg !2006
  %4 = getelementptr { { { ptr, ptr, ptr } } }, ptr %3, i32 0, i32 0, !dbg !2008
  %5 = getelementptr { { ptr, ptr, ptr } }, ptr %4, i32 0, i32 0, !dbg !2009
  %6 = getelementptr { ptr, ptr, ptr }, ptr %5, i32 0, i32 0, !dbg !2010
  %7 = load ptr, ptr %6, align 8, !dbg !2011
  %8 = getelementptr double, ptr %7, i64 %1, !dbg !2012
  ret ptr %8, !dbg !2013
}

define linkonce_odr ptr @_ZNSt6vectorIdSaIdEEixEm__1(ptr %0, i64 %1) !dbg !2014 {
  %3 = getelementptr { { { { ptr, ptr, ptr } } } }, ptr %0, i32 0, i32 0, !dbg !2015
  %4 = getelementptr { { { ptr, ptr, ptr } } }, ptr %3, i32 0, i32 0, !dbg !2017
  %5 = getelementptr { { ptr, ptr, ptr } }, ptr %4, i32 0, i32 0, !dbg !2018
  %6 = getelementptr { ptr, ptr, ptr }, ptr %5, i32 0, i32 0, !dbg !2019
  %7 = load ptr, ptr %6, align 8, !dbg !2020
  %8 = getelementptr double, ptr %7, i64 %1, !dbg !2021
  ret ptr %8, !dbg !2022
}

define linkonce_odr ptr @_ZNSt6vectorIdSaIdEEixEm__0(ptr %0, i64 %1) !dbg !2023 {
  %3 = getelementptr { { { { ptr, ptr, ptr } } } }, ptr %0, i32 0, i32 0, !dbg !2024
  %4 = getelementptr { { { ptr, ptr, ptr } } }, ptr %3, i32 0, i32 0, !dbg !2026
  %5 = getelementptr { { ptr, ptr, ptr } }, ptr %4, i32 0, i32 0, !dbg !2027
  %6 = getelementptr { ptr, ptr, ptr }, ptr %5, i32 0, i32 0, !dbg !2028
  %7 = load ptr, ptr %6, align 8, !dbg !2029
  %8 = getelementptr double, ptr %7, i64 %1, !dbg !2030
  ret ptr %8, !dbg !2031
}

define void @_Z12hvs_set_sizem(i64 %0) !dbg !2032 {
  %2 = load ptr, ptr @haversine_col, align 8, !dbg !2033
  %3 = call i64 @_ZNKSt6vectorIdSaIdEE8capacityEv__0(ptr %2), !dbg !2035
  %4 = icmp sgt i64 %0, %3, !dbg !2036
  br i1 %4, label %5, label %7, !dbg !2037

5:                                                ; preds = %1
  %6 = call i32 (ptr, ...) @printf(ptr @str33), !dbg !2038
  call void @exit(i32 1), !dbg !2039
  br label %7, !dbg !2040

7:                                                ; preds = %5, %1
  %8 = getelementptr %struct.rvector, ptr %2, i32 0, i32 1, !dbg !2041
  %9 = getelementptr %struct.rvector, ptr %2, i32 0, i32 0, !dbg !2042
  %10 = load ptr, ptr %9, align 8, !dbg !2043
  %11 = getelementptr double, ptr %10, i64 %0, !dbg !2044
  store ptr %11, ptr %8, align 8, !dbg !2045
  ret void, !dbg !2046
}

define internal void @"_Z20get_vid_by_haversineIZ35calculate_haversine_distance_columnvE3$_0iEvRT_RSt6vectorIT0_SaIS4_EE"(ptr %0, ptr %1) !dbg !2047 {
  %3 = alloca i32, i64 1, align 4, !dbg !2048
  store i32 undef, ptr %3, align 4, !dbg !2050
  %4 = alloca double, i64 1, align 8, !dbg !2051
  store double undef, ptr %4, align 8, !dbg !2052
  %5 = alloca i64, i64 1, align 8, !dbg !2053
  store i64 undef, ptr %5, align 8, !dbg !2054
  %6 = load ptr, ptr @index_col, align 8, !dbg !2055
  %7 = load ptr, ptr @haversine_col, align 8, !dbg !2056
  %8 = load ptr, ptr @vendor_id_col, align 8, !dbg !2057
  %9 = call i64 @_ZNKSt6vectorIdSaIdEE4sizeEv__0(ptr %7), !dbg !2058
  call void @_ZNSt6vectorIiSaIiEE7reserveEm(ptr %1, i64 %9), !dbg !2059
  %10 = add i64 %9, 1023, !dbg !2060
  %11 = sdiv i64 %10, 1024, !dbg !2061
  %12 = alloca i32, i32 2, align 4, !dbg !2062
  %13 = call ptr @_ZNSt6vectorIdSaIdEEixEm__0(ptr %7, i64 0), !dbg !2063
  %14 = ptrtoint ptr %13 to i64, !dbg !2064
  %15 = and i64 %14, -8192, !dbg !2065
  %16 = udiv i64 %15, 8192, !dbg !2066
  %17 = srem i64 %16, 36864, !dbg !2067
  %18 = trunc i64 %17 to i32, !dbg !2068
  %19 = call i32 @cache_request_impl_6(i32 0, i64 %15, i32 %18, i8 1), !dbg !2069
  store i32 %18, ptr %12, align 4, !dbg !2070
  %20 = alloca i32, i32 2, align 4, !dbg !2071
  %21 = call ptr @_ZNSt6vectorImSaImEEixEm__0(ptr %6, i64 0), !dbg !2072
  %22 = ptrtoint ptr %21 to i64, !dbg !2073
  %23 = and i64 %22, -8192, !dbg !2074
  %24 = udiv i64 %23, 8192, !dbg !2075
  %25 = srem i64 %24, 36864, !dbg !2076
  %26 = trunc i64 %25 to i32, !dbg !2077
  %27 = call i32 @cache_request_impl_5(i32 0, i64 %23, i32 %26, i8 1), !dbg !2078
  store i32 %26, ptr %20, align 4, !dbg !2079
  %28 = alloca i32, i32 2, align 4, !dbg !2080
  %29 = call ptr @_ZNSt6vectorIiSaIiEEixEm__0(ptr %8, i64 0), !dbg !2081
  %30 = ptrtoint ptr %29 to i64, !dbg !2082
  %31 = and i64 %30, -4096, !dbg !2083
  %32 = udiv i64 %31, 4096, !dbg !2084
  %33 = srem i64 %32, 36864, !dbg !2085
  %34 = trunc i64 %33 to i32, !dbg !2086
  %35 = call i32 @cache_request_impl_12(i32 0, i64 %31, i32 %34, i8 1), !dbg !2087
  store i32 %34, ptr %28, align 4, !dbg !2088
  br label %36, !dbg !2089

36:                                               ; preds = %139, %2
  %37 = phi i64 [ %140, %139 ], [ 0, %2 ]
  %38 = icmp slt i64 %37, %11, !dbg !2090
  br i1 %38, label %39, label %141, !dbg !2091

39:                                               ; preds = %36
  %40 = add i64 %37, 1, !dbg !2092
  %41 = icmp slt i64 %40, %11, !dbg !2093
  br i1 %41, label %42, label %71, !dbg !2094

42:                                               ; preds = %39
  %43 = srem i64 %40, 2, !dbg !2095
  %44 = trunc i64 %43 to i32, !dbg !2096
  %45 = mul i64 %40, 1024, !dbg !2097
  %46 = call ptr @_ZNSt6vectorIdSaIdEEixEm__0(ptr %7, i64 %45), !dbg !2098
  %47 = ptrtoint ptr %46 to i64, !dbg !2099
  %48 = and i64 %47, -8192, !dbg !2100
  %49 = udiv i64 %48, 8192, !dbg !2101
  %50 = srem i64 %49, 36864, !dbg !2102
  %51 = trunc i64 %50 to i32, !dbg !2103
  %52 = call i32 @cache_request_impl_6(i32 0, i64 %48, i32 %51, i8 1), !dbg !2104
  %53 = sext i32 %44 to i64, !dbg !2105
  %54 = getelementptr i32, ptr %12, i64 %53, !dbg !2106
  store i32 %51, ptr %54, align 4, !dbg !2107
  %55 = call ptr @_ZNSt6vectorImSaImEEixEm__0(ptr %6, i64 %45), !dbg !2108
  %56 = ptrtoint ptr %55 to i64, !dbg !2109
  %57 = and i64 %56, -8192, !dbg !2110
  %58 = udiv i64 %57, 8192, !dbg !2111
  %59 = srem i64 %58, 36864, !dbg !2112
  %60 = trunc i64 %59 to i32, !dbg !2113
  %61 = call i32 @cache_request_impl_5(i32 0, i64 %57, i32 %60, i8 1), !dbg !2114
  %62 = getelementptr i32, ptr %20, i64 %53, !dbg !2115
  store i32 %60, ptr %62, align 4, !dbg !2116
  %63 = call ptr @_ZNSt6vectorIiSaIiEEixEm__0(ptr %8, i64 %45), !dbg !2117
  %64 = ptrtoint ptr %63 to i64, !dbg !2118
  %65 = and i64 %64, -4096, !dbg !2119
  %66 = udiv i64 %65, 4096, !dbg !2120
  %67 = srem i64 %66, 36864, !dbg !2121
  %68 = trunc i64 %67 to i32, !dbg !2122
  %69 = call i32 @cache_request_impl_12(i32 0, i64 %65, i32 %68, i8 1), !dbg !2123
  %70 = getelementptr i32, ptr %28, i64 %53, !dbg !2124
  store i32 %68, ptr %70, align 4, !dbg !2125
  br label %71, !dbg !2126

71:                                               ; preds = %42, %39
  %72 = mul i64 %37, 1024, !dbg !2127
  %73 = call ptr @_ZNSt6vectorIdSaIdEEixEm__0(ptr %7, i64 %72), !dbg !2128
  %74 = srem i64 %37, 2, !dbg !2129
  %75 = getelementptr i32, ptr %12, i64 %74, !dbg !2130
  %76 = load i32, ptr %75, align 4, !dbg !2131
  %77 = ptrtoint ptr %73 to i64, !dbg !2132
  %78 = sext i32 %76 to i64, !dbg !2133
  %79 = mul i64 %78, 8192, !dbg !2134
  %80 = srem i64 %77, 8192, !dbg !2135
  %81 = add i64 %79, %80, !dbg !2136
  %82 = add i64 %81, 11811160064, !dbg !2137
  %83 = load ptr, ptr @_rbuf, align 8, !dbg !2138
  %84 = getelementptr i8, ptr %83, i64 %82, !dbg !2139
  %85 = call ptr @_ZNSt6vectorImSaImEEixEm__0(ptr %6, i64 %72), !dbg !2140
  %86 = getelementptr i32, ptr %20, i64 %74, !dbg !2141
  %87 = load i32, ptr %86, align 4, !dbg !2142
  %88 = ptrtoint ptr %85 to i64, !dbg !2143
  %89 = sext i32 %87 to i64, !dbg !2144
  %90 = mul i64 %89, 8192, !dbg !2145
  %91 = srem i64 %88, 8192, !dbg !2146
  %92 = add i64 %90, %91, !dbg !2147
  %93 = add i64 %92, 9663676416, !dbg !2148
  %94 = load ptr, ptr @_rbuf, align 8, !dbg !2149
  %95 = getelementptr i8, ptr %94, i64 %93, !dbg !2150
  %96 = call ptr @_ZNSt6vectorIiSaIiEEixEm__0(ptr %8, i64 %72), !dbg !2151
  %97 = getelementptr i32, ptr %28, i64 %74, !dbg !2152
  %98 = load i32, ptr %97, align 4, !dbg !2153
  %99 = ptrtoint ptr %96 to i64, !dbg !2154
  %100 = sext i32 %98 to i64, !dbg !2155
  %101 = mul i64 %100, 4096, !dbg !2156
  %102 = srem i64 %99, 4096, !dbg !2157
  %103 = add i64 %101, %102, !dbg !2158
  %104 = add i64 %103, 0, !dbg !2159
  %105 = load ptr, ptr @_rbuf, align 8, !dbg !2160
  %106 = getelementptr i8, ptr %105, i64 %104, !dbg !2161
  %107 = getelementptr { i64, i8, i8, i16, i32 }, ptr @tokens, i64 %100, !dbg !2162
  %108 = getelementptr { i64, i8, i8, i16, i32 }, ptr %107, i32 0, i32 3, !dbg !2163
  %109 = load i16, ptr %108, align 2, !dbg !2164
  call void @poll_qid12(i32 0, i16 %109), !dbg !2165
  %110 = mul i64 %40, 1024, !dbg !2166
  %111 = icmp sgt i64 %9, %110, !dbg !2167
  br i1 %111, label %112, label %113, !dbg !2168

112:                                              ; preds = %71
  br label %116, !dbg !2169

113:                                              ; preds = %71
  %114 = mul i64 %37, 1024, !dbg !2170
  %115 = sub i64 %9, %114, !dbg !2171
  br label %116, !dbg !2172

116:                                              ; preds = %112, %113
  %117 = phi i64 [ %115, %113 ], [ 1024, %112 ]
  br label %118, !dbg !2173

118:                                              ; preds = %116
  %119 = mul i64 %37, 1024, !dbg !2174
  br label %120, !dbg !2175

120:                                              ; preds = %137, %118
  %121 = phi i64 [ %138, %137 ], [ 0, %118 ]
  %122 = icmp slt i64 %121, %117, !dbg !2176
  br i1 %122, label %123, label %139, !dbg !2177

123:                                              ; preds = %120
  %124 = add i64 %121, %119, !dbg !2178
  %125 = getelementptr double, ptr %84, i64 %121, !dbg !2179
  %126 = getelementptr i64, ptr %95, i64 %121, !dbg !2180
  %127 = getelementptr i32, ptr %106, i64 %121, !dbg !2181
  %128 = call ptr @_ZNSt6vectorImSaImEEixEm__0(ptr %6, i64 %124), !dbg !2182
  %129 = load i64, ptr %126, align 8, !dbg !2183
  store i64 %129, ptr %5, align 8, !dbg !2184
  %130 = call ptr @_ZNSt6vectorIdSaIdEEixEm__0(ptr %7, i64 %124), !dbg !2185
  %131 = load double, ptr %125, align 8, !dbg !2186
  store double %131, ptr %4, align 8, !dbg !2187
  %132 = call ptr @_ZNSt6vectorIiSaIiEEixEm__0(ptr %8, i64 %124), !dbg !2188
  %133 = load i32, ptr %127, align 4, !dbg !2189
  store i32 %133, ptr %3, align 4, !dbg !2190
  %134 = call i8 @"_ZZ35calculate_haversine_distance_columnvENK3$_0clERKmRKd"(ptr %0, ptr %5, ptr %4), !dbg !2191
  %135 = icmp ne i8 %134, 0, !dbg !2192
  br i1 %135, label %136, label %137, !dbg !2193

136:                                              ; preds = %123
  call void @_ZNSt6vectorIiSaIiEE9push_backERKi(ptr %1, ptr %3), !dbg !2194
  br label %137, !dbg !2195

137:                                              ; preds = %136, %123
  %138 = add i64 %121, 1, !dbg !2196
  br label %120, !dbg !2197

139:                                              ; preds = %120
  %140 = add i64 %37, 1, !dbg !2198
  br label %36, !dbg !2199

141:                                              ; preds = %36
  ret void, !dbg !2200
}

define linkonce_odr void @_ZNSt6vectorImSaImEEC1Ev(ptr %0) !dbg !2201 {
  %2 = getelementptr %"class.std::vector.1", ptr %0, i32 0, i32 0, !dbg !2202
  call void @_ZNSt12_Vector_baseImSaImEEC1Ev(ptr %2), !dbg !2204
  ret void, !dbg !2205
}

define linkonce_odr void @_ZNSt6vectorImSaImEE7reserveEm(ptr %0, i64 %1) !dbg !2206 {
  %3 = alloca %"class.std::move_iterator", i64 1, align 8, !dbg !2207
  %4 = alloca %"class.std::move_iterator", i64 1, align 8, !dbg !2209
  %5 = alloca %"class.std::move_iterator", i64 1, align 8, !dbg !2210
  %6 = alloca %"class.std::move_iterator", i64 1, align 8, !dbg !2211
  %7 = call i64 @_ZNKSt6vectorImSaImEE8max_sizeEv(ptr %0), !dbg !2212
  %8 = icmp sgt i64 %1, %7, !dbg !2213
  br i1 %8, label %9, label %10, !dbg !2214

9:                                                ; preds = %2
  call void @_ZSt20__throw_length_errorPKc(ptr @str34), !dbg !2215
  br label %10, !dbg !2216

10:                                               ; preds = %9, %2
  %11 = call i64 @_ZNKSt6vectorImSaImEE8capacityEv(ptr %0), !dbg !2217
  %12 = icmp slt i64 %11, %1, !dbg !2218
  br i1 %12, label %13, label %60, !dbg !2219

13:                                               ; preds = %10
  %14 = call i64 @_ZNKSt6vectorImSaImEE4sizeEv(ptr %0), !dbg !2220
  %15 = call i8 @_ZNSt6vectorImSaImEE15_S_use_relocateEv(), !dbg !2221
  %16 = icmp ne i8 %15, 0, !dbg !2222
  br i1 %16, label %17, label %28, !dbg !2223

17:                                               ; preds = %13
  %18 = getelementptr %"class.std::vector.1", ptr %0, i32 0, i32 0, !dbg !2224
  %19 = call ptr @_ZNSt12_Vector_baseImSaImEE11_M_allocateEm(ptr %18, i64 %1), !dbg !2225
  %20 = getelementptr %"struct.std::_Vector_base.2", ptr %18, i32 0, i32 0, !dbg !2226
  %21 = getelementptr %"struct.std::_Vector_base<unsigned long, std::allocator<unsigned long>>::_Vector_impl", ptr %20, i32 0, i32 0, !dbg !2227
  %22 = getelementptr %"struct.std::_Vector_base<unsigned long, std::allocator<unsigned long>>::_Vector_impl_data", ptr %21, i32 0, i32 0, !dbg !2228
  %23 = load ptr, ptr %22, align 8, !dbg !2229
  %24 = getelementptr %"struct.std::_Vector_base<unsigned long, std::allocator<unsigned long>>::_Vector_impl_data", ptr %21, i32 0, i32 1, !dbg !2230
  %25 = load ptr, ptr %24, align 8, !dbg !2231
  %26 = call ptr @_ZNSt12_Vector_baseImSaImEE19_M_get_Tp_allocatorEv(ptr %18), !dbg !2232
  %27 = call ptr @_ZSt14__relocate_a_1ImmENSt9enable_ifIXsr3std24__is_bitwise_relocatableIT_EE5valueEPS1_E4typeES2_S2_S2_RSaIT0_E(ptr %23, ptr %25, ptr %19, ptr %26), !dbg !2233
  br label %42, !dbg !2234

28:                                               ; preds = %13
  %29 = getelementptr %"class.std::vector.1", ptr %0, i32 0, i32 0, !dbg !2235
  %30 = getelementptr %"struct.std::_Vector_base.2", ptr %29, i32 0, i32 0, !dbg !2236
  %31 = getelementptr %"struct.std::_Vector_base<unsigned long, std::allocator<unsigned long>>::_Vector_impl", ptr %30, i32 0, i32 0, !dbg !2237
  %32 = getelementptr %"struct.std::_Vector_base<unsigned long, std::allocator<unsigned long>>::_Vector_impl_data", ptr %31, i32 0, i32 0, !dbg !2238
  %33 = load ptr, ptr %32, align 8, !dbg !2239
  %34 = call %"class.std::move_iterator" @_ZSt32__make_move_if_noexcept_iteratorImSt13move_iteratorIPmEET0_PT_(ptr %33), !dbg !2240
  store %"class.std::move_iterator" %34, ptr %5, align 8, !dbg !2241
  call void @_ZNSt13move_iteratorIPmEC1EOS1_(ptr %6, ptr %5), !dbg !2242
  %35 = getelementptr %"struct.std::_Vector_base<unsigned long, std::allocator<unsigned long>>::_Vector_impl_data", ptr %31, i32 0, i32 1, !dbg !2243
  %36 = load ptr, ptr %35, align 8, !dbg !2244
  %37 = call %"class.std::move_iterator" @_ZSt32__make_move_if_noexcept_iteratorImSt13move_iteratorIPmEET0_PT_(ptr %36), !dbg !2245
  store %"class.std::move_iterator" %37, ptr %3, align 8, !dbg !2246
  call void @_ZNSt13move_iteratorIPmEC1EOS1_(ptr %4, ptr %3), !dbg !2247
  %38 = load %"class.std::move_iterator", ptr %6, align 8, !dbg !2248
  %39 = load %"class.std::move_iterator", ptr %4, align 8, !dbg !2249
  %40 = call ptr @_ZNSt6vectorImSaImEE20_M_allocate_and_copyISt13move_iteratorIPmEEES4_mT_S6_(ptr %0, i64 %1, %"class.std::move_iterator" %38, %"class.std::move_iterator" %39), !dbg !2250
  %41 = call ptr @_ZNSt12_Vector_baseImSaImEE19_M_get_Tp_allocatorEv(ptr %29), !dbg !2251
  br label %42, !dbg !2252

42:                                               ; preds = %17, %28
  %43 = phi ptr [ %40, %28 ], [ %19, %17 ]
  br label %44, !dbg !2253

44:                                               ; preds = %42
  %45 = getelementptr %"class.std::vector.1", ptr %0, i32 0, i32 0, !dbg !2254
  %46 = getelementptr %"struct.std::_Vector_base.2", ptr %45, i32 0, i32 0, !dbg !2255
  %47 = getelementptr %"struct.std::_Vector_base<unsigned long, std::allocator<unsigned long>>::_Vector_impl", ptr %46, i32 0, i32 0, !dbg !2256
  %48 = getelementptr %"struct.std::_Vector_base<unsigned long, std::allocator<unsigned long>>::_Vector_impl_data", ptr %47, i32 0, i32 0, !dbg !2257
  %49 = load ptr, ptr %48, align 8, !dbg !2258
  %50 = getelementptr %"struct.std::_Vector_base<unsigned long, std::allocator<unsigned long>>::_Vector_impl_data", ptr %47, i32 0, i32 2, !dbg !2259
  %51 = load ptr, ptr %50, align 8, !dbg !2260
  %52 = ptrtoint ptr %51 to i64, !dbg !2261
  %53 = ptrtoint ptr %49 to i64, !dbg !2262
  %54 = sub i64 %52, %53, !dbg !2263
  %55 = sdiv i64 %54, 8, !dbg !2264
  call void @_ZNSt12_Vector_baseImSaImEE13_M_deallocateEPmm(ptr %45, ptr %49, i64 %55), !dbg !2265
  store ptr %43, ptr %48, align 8, !dbg !2266
  %56 = getelementptr %"struct.std::_Vector_base<unsigned long, std::allocator<unsigned long>>::_Vector_impl_data", ptr %47, i32 0, i32 1, !dbg !2267
  %57 = getelementptr i64, ptr %43, i64 %14, !dbg !2268
  store ptr %57, ptr %56, align 8, !dbg !2269
  %58 = load ptr, ptr %48, align 8, !dbg !2270
  %59 = getelementptr i64, ptr %58, i64 %1, !dbg !2271
  store ptr %59, ptr %50, align 8, !dbg !2272
  br label %60, !dbg !2273

60:                                               ; preds = %44, %10
  ret void, !dbg !2274
}

define linkonce_odr void @_ZNSt6vectorIsSaIsEEC1Ev(ptr %0) !dbg !2275 {
  %2 = getelementptr %"class.std::vector.16", ptr %0, i32 0, i32 0, !dbg !2276
  call void @_ZNSt12_Vector_baseIsSaIsEEC1Ev(ptr %2), !dbg !2278
  ret void, !dbg !2279
}

define linkonce_odr void @_ZNSt6vectorIsSaIsEE7reserveEm(ptr %0, i64 %1) !dbg !2280 {
  %3 = alloca %"class.std::move_iterator.26", i64 1, align 8, !dbg !2281
  %4 = alloca %"class.std::move_iterator.26", i64 1, align 8, !dbg !2283
  %5 = alloca %"class.std::move_iterator.26", i64 1, align 8, !dbg !2284
  %6 = alloca %"class.std::move_iterator.26", i64 1, align 8, !dbg !2285
  %7 = call i64 @_ZNKSt6vectorIsSaIsEE8max_sizeEv(ptr %0), !dbg !2286
  %8 = icmp sgt i64 %1, %7, !dbg !2287
  br i1 %8, label %9, label %10, !dbg !2288

9:                                                ; preds = %2
  call void @_ZSt20__throw_length_errorPKc(ptr @str34), !dbg !2289
  br label %10, !dbg !2290

10:                                               ; preds = %9, %2
  %11 = call i64 @_ZNKSt6vectorIsSaIsEE8capacityEv(ptr %0), !dbg !2291
  %12 = icmp slt i64 %11, %1, !dbg !2292
  br i1 %12, label %13, label %60, !dbg !2293

13:                                               ; preds = %10
  %14 = call i64 @_ZNKSt6vectorIsSaIsEE4sizeEv(ptr %0), !dbg !2294
  %15 = call i8 @_ZNSt6vectorIsSaIsEE15_S_use_relocateEv(), !dbg !2295
  %16 = icmp ne i8 %15, 0, !dbg !2296
  br i1 %16, label %17, label %28, !dbg !2297

17:                                               ; preds = %13
  %18 = getelementptr %"class.std::vector.16", ptr %0, i32 0, i32 0, !dbg !2298
  %19 = call ptr @_ZNSt12_Vector_baseIsSaIsEE11_M_allocateEm(ptr %18, i64 %1), !dbg !2299
  %20 = getelementptr %"struct.std::_Vector_base.17", ptr %18, i32 0, i32 0, !dbg !2300
  %21 = getelementptr %"struct.std::_Vector_base<short, std::allocator<short>>::_Vector_impl", ptr %20, i32 0, i32 0, !dbg !2301
  %22 = getelementptr %"struct.std::_Vector_base<short, std::allocator<short>>::_Vector_impl_data", ptr %21, i32 0, i32 0, !dbg !2302
  %23 = load ptr, ptr %22, align 8, !dbg !2303
  %24 = getelementptr %"struct.std::_Vector_base<short, std::allocator<short>>::_Vector_impl_data", ptr %21, i32 0, i32 1, !dbg !2304
  %25 = load ptr, ptr %24, align 8, !dbg !2305
  %26 = call ptr @_ZNSt12_Vector_baseIsSaIsEE19_M_get_Tp_allocatorEv(ptr %18), !dbg !2306
  %27 = call ptr @_ZSt14__relocate_a_1IssENSt9enable_ifIXsr3std24__is_bitwise_relocatableIT_EE5valueEPS1_E4typeES2_S2_S2_RSaIT0_E(ptr %23, ptr %25, ptr %19, ptr %26), !dbg !2307
  br label %42, !dbg !2308

28:                                               ; preds = %13
  %29 = getelementptr %"class.std::vector.16", ptr %0, i32 0, i32 0, !dbg !2309
  %30 = getelementptr %"struct.std::_Vector_base.17", ptr %29, i32 0, i32 0, !dbg !2310
  %31 = getelementptr %"struct.std::_Vector_base<short, std::allocator<short>>::_Vector_impl", ptr %30, i32 0, i32 0, !dbg !2311
  %32 = getelementptr %"struct.std::_Vector_base<short, std::allocator<short>>::_Vector_impl_data", ptr %31, i32 0, i32 0, !dbg !2312
  %33 = load ptr, ptr %32, align 8, !dbg !2313
  %34 = call %"class.std::move_iterator.26" @_ZSt32__make_move_if_noexcept_iteratorIsSt13move_iteratorIPsEET0_PT_(ptr %33), !dbg !2314
  store %"class.std::move_iterator.26" %34, ptr %5, align 8, !dbg !2315
  call void @_ZNSt13move_iteratorIPsEC1EOS1_(ptr %6, ptr %5), !dbg !2316
  %35 = getelementptr %"struct.std::_Vector_base<short, std::allocator<short>>::_Vector_impl_data", ptr %31, i32 0, i32 1, !dbg !2317
  %36 = load ptr, ptr %35, align 8, !dbg !2318
  %37 = call %"class.std::move_iterator.26" @_ZSt32__make_move_if_noexcept_iteratorIsSt13move_iteratorIPsEET0_PT_(ptr %36), !dbg !2319
  store %"class.std::move_iterator.26" %37, ptr %3, align 8, !dbg !2320
  call void @_ZNSt13move_iteratorIPsEC1EOS1_(ptr %4, ptr %3), !dbg !2321
  %38 = load %"class.std::move_iterator.26", ptr %6, align 8, !dbg !2322
  %39 = load %"class.std::move_iterator.26", ptr %4, align 8, !dbg !2323
  %40 = call ptr @_ZNSt6vectorIsSaIsEE20_M_allocate_and_copyISt13move_iteratorIPsEEES4_mT_S6_(ptr %0, i64 %1, %"class.std::move_iterator.26" %38, %"class.std::move_iterator.26" %39), !dbg !2324
  %41 = call ptr @_ZNSt12_Vector_baseIsSaIsEE19_M_get_Tp_allocatorEv(ptr %29), !dbg !2325
  br label %42, !dbg !2326

42:                                               ; preds = %17, %28
  %43 = phi ptr [ %40, %28 ], [ %19, %17 ]
  br label %44, !dbg !2327

44:                                               ; preds = %42
  %45 = getelementptr %"class.std::vector.16", ptr %0, i32 0, i32 0, !dbg !2328
  %46 = getelementptr %"struct.std::_Vector_base.17", ptr %45, i32 0, i32 0, !dbg !2329
  %47 = getelementptr %"struct.std::_Vector_base<short, std::allocator<short>>::_Vector_impl", ptr %46, i32 0, i32 0, !dbg !2330
  %48 = getelementptr %"struct.std::_Vector_base<short, std::allocator<short>>::_Vector_impl_data", ptr %47, i32 0, i32 0, !dbg !2331
  %49 = load ptr, ptr %48, align 8, !dbg !2332
  %50 = getelementptr %"struct.std::_Vector_base<short, std::allocator<short>>::_Vector_impl_data", ptr %47, i32 0, i32 2, !dbg !2333
  %51 = load ptr, ptr %50, align 8, !dbg !2334
  %52 = ptrtoint ptr %51 to i64, !dbg !2335
  %53 = ptrtoint ptr %49 to i64, !dbg !2336
  %54 = sub i64 %52, %53, !dbg !2337
  %55 = sdiv i64 %54, 2, !dbg !2338
  call void @_ZNSt12_Vector_baseIsSaIsEE13_M_deallocateEPsm(ptr %45, ptr %49, i64 %55), !dbg !2339
  store ptr %43, ptr %48, align 8, !dbg !2340
  %56 = getelementptr %"struct.std::_Vector_base<short, std::allocator<short>>::_Vector_impl_data", ptr %47, i32 0, i32 1, !dbg !2341
  %57 = getelementptr i16, ptr %43, i64 %14, !dbg !2342
  store ptr %57, ptr %56, align 8, !dbg !2343
  %58 = load ptr, ptr %48, align 8, !dbg !2344
  %59 = getelementptr i16, ptr %58, i64 %1, !dbg !2345
  store ptr %59, ptr %50, align 8, !dbg !2346
  br label %60, !dbg !2347

60:                                               ; preds = %44, %10
  ret void, !dbg !2348
}

define linkonce_odr ptr @_ZNSt6vectorImSaImEEixEm(ptr %0, i64 %1) !dbg !2349 {
  %3 = getelementptr %"class.std::vector.1", ptr %0, i32 0, i32 0, !dbg !2350
  %4 = getelementptr %"struct.std::_Vector_base.2", ptr %3, i32 0, i32 0, !dbg !2352
  %5 = getelementptr %"struct.std::_Vector_base<unsigned long, std::allocator<unsigned long>>::_Vector_impl", ptr %4, i32 0, i32 0, !dbg !2353
  %6 = getelementptr %"struct.std::_Vector_base<unsigned long, std::allocator<unsigned long>>::_Vector_impl_data", ptr %5, i32 0, i32 0, !dbg !2354
  %7 = load ptr, ptr %6, align 8, !dbg !2355
  %8 = getelementptr i64, ptr %7, i64 %1, !dbg !2356
  ret ptr %8, !dbg !2357
}

define linkonce_odr ptr @_ZNSt6vectorImSaImEEixEm__1(ptr %0, i64 %1) !dbg !2358 {
  %3 = getelementptr { { { { ptr, ptr, ptr } } } }, ptr %0, i32 0, i32 0, !dbg !2359
  %4 = getelementptr { { { ptr, ptr, ptr } } }, ptr %3, i32 0, i32 0, !dbg !2361
  %5 = getelementptr { { ptr, ptr, ptr } }, ptr %4, i32 0, i32 0, !dbg !2362
  %6 = getelementptr { ptr, ptr, ptr }, ptr %5, i32 0, i32 0, !dbg !2363
  %7 = load ptr, ptr %6, align 8, !dbg !2364
  %8 = getelementptr i64, ptr %7, i64 %1, !dbg !2365
  ret ptr %8, !dbg !2366
}

define linkonce_odr ptr @_ZNSt6vectorImSaImEEixEm__0(ptr %0, i64 %1) !dbg !2367 {
  %3 = getelementptr { { { { ptr, ptr, ptr } } } }, ptr %0, i32 0, i32 0, !dbg !2368
  %4 = getelementptr { { { ptr, ptr, ptr } } }, ptr %3, i32 0, i32 0, !dbg !2370
  %5 = getelementptr { { ptr, ptr, ptr } }, ptr %4, i32 0, i32 0, !dbg !2371
  %6 = getelementptr { ptr, ptr, ptr }, ptr %5, i32 0, i32 0, !dbg !2372
  %7 = load ptr, ptr %6, align 8, !dbg !2373
  %8 = getelementptr i64, ptr %7, i64 %1, !dbg !2374
  ret ptr %8, !dbg !2375
}

define linkonce_odr ptr @_ZNSt6vectorIsSaIsEEixEm(ptr %0, i64 %1) !dbg !2376 {
  %3 = getelementptr %"class.std::vector.16", ptr %0, i32 0, i32 0, !dbg !2377
  %4 = getelementptr %"struct.std::_Vector_base.17", ptr %3, i32 0, i32 0, !dbg !2379
  %5 = getelementptr %"struct.std::_Vector_base<short, std::allocator<short>>::_Vector_impl", ptr %4, i32 0, i32 0, !dbg !2380
  %6 = getelementptr %"struct.std::_Vector_base<short, std::allocator<short>>::_Vector_impl_data", ptr %5, i32 0, i32 0, !dbg !2381
  %7 = load ptr, ptr %6, align 8, !dbg !2382
  %8 = getelementptr i16, ptr %7, i64 %1, !dbg !2383
  ret ptr %8, !dbg !2384
}

define linkonce_odr ptr @_ZNSt6vectorIsSaIsEEixEm__1(ptr %0, i64 %1) !dbg !2385 {
  %3 = getelementptr { { { { ptr, ptr, ptr } } } }, ptr %0, i32 0, i32 0, !dbg !2386
  %4 = getelementptr { { { ptr, ptr, ptr } } }, ptr %3, i32 0, i32 0, !dbg !2388
  %5 = getelementptr { { ptr, ptr, ptr } }, ptr %4, i32 0, i32 0, !dbg !2389
  %6 = getelementptr { ptr, ptr, ptr }, ptr %5, i32 0, i32 0, !dbg !2390
  %7 = load ptr, ptr %6, align 8, !dbg !2391
  %8 = getelementptr i16, ptr %7, i64 %1, !dbg !2392
  ret ptr %8, !dbg !2393
}

define linkonce_odr ptr @_ZNSt6vectorIsSaIsEEixEm__0(ptr %0, i64 %1) !dbg !2394 {
  %3 = getelementptr { { { { ptr, ptr, ptr } } } }, ptr %0, i32 0, i32 0, !dbg !2395
  %4 = getelementptr { { { ptr, ptr, ptr } } }, ptr %3, i32 0, i32 0, !dbg !2397
  %5 = getelementptr { { ptr, ptr, ptr } }, ptr %4, i32 0, i32 0, !dbg !2398
  %6 = getelementptr { ptr, ptr, ptr }, ptr %5, i32 0, i32 0, !dbg !2399
  %7 = load ptr, ptr %6, align 8, !dbg !2400
  %8 = getelementptr i16, ptr %7, i64 %1, !dbg !2401
  ret ptr %8, !dbg !2402
}

define linkonce_odr void @_ZNSt6vectorImSaImEE9push_backERKm(ptr %0, ptr %1) !dbg !2403 {
  %3 = alloca %"class.__gnu_cxx::__normal_iterator.27", i64 1, align 8, !dbg !2404
  %4 = alloca %"class.__gnu_cxx::__normal_iterator.27", i64 1, align 8, !dbg !2406
  %5 = getelementptr %"class.std::vector.1", ptr %0, i32 0, i32 0, !dbg !2407
  %6 = getelementptr %"struct.std::_Vector_base.2", ptr %5, i32 0, i32 0, !dbg !2408
  %7 = getelementptr %"struct.std::_Vector_base<unsigned long, std::allocator<unsigned long>>::_Vector_impl", ptr %6, i32 0, i32 0, !dbg !2409
  %8 = getelementptr %"struct.std::_Vector_base<unsigned long, std::allocator<unsigned long>>::_Vector_impl_data", ptr %7, i32 0, i32 1, !dbg !2410
  %9 = load ptr, ptr %8, align 8, !dbg !2411
  %10 = getelementptr %"struct.std::_Vector_base<unsigned long, std::allocator<unsigned long>>::_Vector_impl_data", ptr %7, i32 0, i32 2, !dbg !2412
  %11 = load ptr, ptr %10, align 8, !dbg !2413
  %12 = icmp ne ptr %9, %11, !dbg !2414
  br i1 %12, label %13, label %19, !dbg !2415

13:                                               ; preds = %2
  %14 = icmp ne ptr %6, null, !dbg !2416
  %15 = select i1 %14, ptr %6, ptr null, !dbg !2417
  %16 = load ptr, ptr %8, align 8, !dbg !2418
  call void @_ZNSt16allocator_traitsISaImEE9constructImJRKmEEEvRS0_PT_DpOT0_(ptr %15, ptr %16, ptr %1), !dbg !2419
  %17 = load ptr, ptr %8, align 8, !dbg !2420
  %18 = getelementptr i64, ptr %17, i32 1, !dbg !2421
  store ptr %18, ptr %8, align 8, !dbg !2422
  br label %22, !dbg !2423

19:                                               ; preds = %2
  %20 = call %"class.__gnu_cxx::__normal_iterator.27" @_ZNSt6vectorImSaImEE3endEv(ptr %0), !dbg !2424
  store %"class.__gnu_cxx::__normal_iterator.27" %20, ptr %3, align 8, !dbg !2425
  call void @_ZN9__gnu_cxx17__normal_iteratorIPmSt6vectorImSaImEEEC1EOS5_(ptr %4, ptr %3), !dbg !2426
  %21 = load %"class.__gnu_cxx::__normal_iterator.27", ptr %4, align 8, !dbg !2427
  call void @_ZNSt6vectorImSaImEE17_M_realloc_insertIJRKmEEEvN9__gnu_cxx17__normal_iteratorIPmS1_EEDpOT_(ptr %0, %"class.__gnu_cxx::__normal_iterator.27" %21, ptr %1), !dbg !2428
  br label %22, !dbg !2429

22:                                               ; preds = %13, %19
  ret void, !dbg !2430
}

define linkonce_odr void @_ZNSt6vectorIsSaIsEE9push_backERKs(ptr %0, ptr %1) !dbg !2431 {
  %3 = alloca %"class.__gnu_cxx::__normal_iterator.28", i64 1, align 8, !dbg !2432
  %4 = alloca %"class.__gnu_cxx::__normal_iterator.28", i64 1, align 8, !dbg !2434
  %5 = getelementptr %"class.std::vector.16", ptr %0, i32 0, i32 0, !dbg !2435
  %6 = getelementptr %"struct.std::_Vector_base.17", ptr %5, i32 0, i32 0, !dbg !2436
  %7 = getelementptr %"struct.std::_Vector_base<short, std::allocator<short>>::_Vector_impl", ptr %6, i32 0, i32 0, !dbg !2437
  %8 = getelementptr %"struct.std::_Vector_base<short, std::allocator<short>>::_Vector_impl_data", ptr %7, i32 0, i32 1, !dbg !2438
  %9 = load ptr, ptr %8, align 8, !dbg !2439
  %10 = getelementptr %"struct.std::_Vector_base<short, std::allocator<short>>::_Vector_impl_data", ptr %7, i32 0, i32 2, !dbg !2440
  %11 = load ptr, ptr %10, align 8, !dbg !2441
  %12 = icmp ne ptr %9, %11, !dbg !2442
  br i1 %12, label %13, label %19, !dbg !2443

13:                                               ; preds = %2
  %14 = icmp ne ptr %6, null, !dbg !2444
  %15 = select i1 %14, ptr %6, ptr null, !dbg !2445
  %16 = load ptr, ptr %8, align 8, !dbg !2446
  call void @_ZNSt16allocator_traitsISaIsEE9constructIsJRKsEEEvRS0_PT_DpOT0_(ptr %15, ptr %16, ptr %1), !dbg !2447
  %17 = load ptr, ptr %8, align 8, !dbg !2448
  %18 = getelementptr i16, ptr %17, i32 1, !dbg !2449
  store ptr %18, ptr %8, align 8, !dbg !2450
  br label %22, !dbg !2451

19:                                               ; preds = %2
  %20 = call %"class.__gnu_cxx::__normal_iterator.28" @_ZNSt6vectorIsSaIsEE3endEv(ptr %0), !dbg !2452
  store %"class.__gnu_cxx::__normal_iterator.28" %20, ptr %3, align 8, !dbg !2453
  call void @_ZN9__gnu_cxx17__normal_iteratorIPsSt6vectorIsSaIsEEEC1EOS5_(ptr %4, ptr %3), !dbg !2454
  %21 = load %"class.__gnu_cxx::__normal_iterator.28", ptr %4, align 8, !dbg !2455
  call void @_ZNSt6vectorIsSaIsEE17_M_realloc_insertIJRKsEEEvN9__gnu_cxx17__normal_iteratorIPsS1_EEDpOT_(ptr %0, %"class.__gnu_cxx::__normal_iterator.28" %21, ptr %1), !dbg !2456
  br label %22, !dbg !2457

22:                                               ; preds = %13, %19
  ret void, !dbg !2458
}

declare void @_Z24step7_process_after_copyPKcRSt6vectorImSaImEERS1_IsSaIsEES4_(ptr, ptr, ptr, ptr)

define linkonce_odr void @_ZNSt6chrono8durationIlSt5ratioILl1ELl1000000EEEC1ERKS3_(ptr %0, ptr %1) !dbg !2459 {
  %3 = getelementptr %"struct.std::chrono::duration.0", ptr %1, i32 0, i32 0, !dbg !2460
  %4 = load i64, ptr %3, align 8, !dbg !2462
  %5 = getelementptr %"struct.std::chrono::duration.0", ptr %0, i32 0, i32 0, !dbg !2463
  store i64 %4, ptr %5, align 8, !dbg !2464
  ret void, !dbg !2465
}

define linkonce_odr %"struct.std::chrono::duration.0" @_ZNSt6chrono20__duration_cast_implINS_8durationIlSt5ratioILl1ELl1000000EEEES2_ILl1ELl1000EElLb1ELb0EE6__castIlS2_ILl1ELl1000000000EEEES4_RKNS1_IT_T0_EE(ptr %0) !dbg !2466 {
  %2 = alloca %"struct.std::chrono::duration.0", i64 1, align 8, !dbg !2467
  %3 = alloca i64, i64 1, align 8, !dbg !2469
  store i64 undef, ptr %3, align 8, !dbg !2470
  %4 = alloca %"struct.std::chrono::duration.0", i64 1, align 8, !dbg !2471
  %5 = alloca %"struct.std::chrono::duration.0", i64 1, align 8, !dbg !2472
  %6 = call i64 @_ZNKSt6chrono8durationIlSt5ratioILl1ELl1000000000EEE5countEv(ptr %0), !dbg !2473
  %7 = sdiv i64 %6, 1000, !dbg !2474
  store i64 %7, ptr %3, align 8, !dbg !2475
  call void @_ZNSt6chrono8durationIlSt5ratioILl1ELl1000000EEEC1IlvEERKT_(ptr %4, ptr %3), !dbg !2476
  %8 = load %"struct.std::chrono::duration.0", ptr %4, align 8, !dbg !2477
  store %"struct.std::chrono::duration.0" %8, ptr %2, align 8, !dbg !2478
  call void @_ZNSt6chrono8durationIlSt5ratioILl1ELl1000000EEEC1ERKS3_(ptr %5, ptr %2), !dbg !2479
  %9 = load %"struct.std::chrono::duration.0", ptr %5, align 8, !dbg !2480
  ret %"struct.std::chrono::duration.0" %9, !dbg !2481
}

define linkonce_odr %"struct.std::chrono::duration" @_ZNSt6chronomiIlSt5ratioILl1ELl1000000000EElS2_EENSt11common_typeIJNS_8durationIT_T0_EENS4_IT1_T2_EEEE4typeERKS7_RKSA_(ptr %0, ptr %1) !dbg !2482 {
  %3 = alloca %"struct.std::chrono::duration", i64 1, align 8, !dbg !2483
  %4 = alloca i64, i64 1, align 8, !dbg !2485
  store i64 undef, ptr %4, align 8, !dbg !2486
  %5 = alloca %"struct.std::chrono::duration", i64 1, align 8, !dbg !2487
  %6 = alloca %"struct.std::chrono::duration", i64 1, align 8, !dbg !2488
  %7 = alloca %"struct.std::chrono::duration", i64 1, align 8, !dbg !2489
  %8 = alloca %"struct.std::chrono::duration", i64 1, align 8, !dbg !2490
  %9 = alloca %"struct.std::chrono::duration", i64 1, align 8, !dbg !2491
  %10 = alloca %"struct.std::chrono::duration", i64 1, align 8, !dbg !2492
  call void @_ZNSt6chrono8durationIlSt5ratioILl1ELl1000000000EEEC1ERKS3_(ptr %8, ptr %0), !dbg !2493
  %11 = load %"struct.std::chrono::duration", ptr %8, align 8, !dbg !2494
  store %"struct.std::chrono::duration" %11, ptr %7, align 8, !dbg !2495
  %12 = call i64 @_ZNKSt6chrono8durationIlSt5ratioILl1ELl1000000000EEE5countEv(ptr %7), !dbg !2496
  call void @_ZNSt6chrono8durationIlSt5ratioILl1ELl1000000000EEEC1ERKS3_(ptr %6, ptr %1), !dbg !2497
  %13 = load %"struct.std::chrono::duration", ptr %6, align 8, !dbg !2498
  store %"struct.std::chrono::duration" %13, ptr %5, align 8, !dbg !2499
  %14 = call i64 @_ZNKSt6chrono8durationIlSt5ratioILl1ELl1000000000EEE5countEv(ptr %5), !dbg !2500
  %15 = sub i64 %12, %14, !dbg !2501
  store i64 %15, ptr %4, align 8, !dbg !2502
  call void @_ZNSt6chrono8durationIlSt5ratioILl1ELl1000000000EEEC1IlvEERKT_(ptr %9, ptr %4), !dbg !2503
  %16 = load %"struct.std::chrono::duration", ptr %9, align 8, !dbg !2504
  store %"struct.std::chrono::duration" %16, ptr %3, align 8, !dbg !2505
  call void @_ZNSt6chrono8durationIlSt5ratioILl1ELl1000000000EEEC1ERKS3_(ptr %10, ptr %3), !dbg !2506
  %17 = load %"struct.std::chrono::duration", ptr %10, align 8, !dbg !2507
  ret %"struct.std::chrono::duration" %17, !dbg !2508
}

define linkonce_odr %"struct.std::chrono::duration" @_ZNKSt6chrono10time_pointINS_3_V212steady_clockENS_8durationIlSt5ratioILl1ELl1000000000EEEEE16time_since_epochEv(ptr %0) !dbg !2509 {
  %2 = alloca %"struct.std::chrono::duration", i64 1, align 8, !dbg !2510
  %3 = getelementptr %"struct.std::chrono::time_point", ptr %0, i32 0, i32 0, !dbg !2512
  call void @_ZNSt6chrono8durationIlSt5ratioILl1ELl1000000000EEEC1ERKS3_(ptr %2, ptr %3), !dbg !2513
  %4 = load %"struct.std::chrono::duration", ptr %2, align 8, !dbg !2514
  ret %"struct.std::chrono::duration" %4, !dbg !2515
}

define linkonce_odr void @_ZNSt6chrono8durationIlSt5ratioILl1ELl1000000000EEEC1IlvEERKT_(ptr %0, ptr %1) !dbg !2516 {
  %3 = load i64, ptr %1, align 8, !dbg !2517
  %4 = getelementptr %"struct.std::chrono::duration", ptr %0, i32 0, i32 0, !dbg !2519
  store i64 %3, ptr %4, align 8, !dbg !2520
  ret void, !dbg !2521
}

define linkonce_odr i64 @_ZNSt6chrono15duration_valuesIlE4zeroEv() !dbg !2522 {
  ret i64 0, !dbg !2523
}

define linkonce_odr void @_ZNSt6vectorIiSaIiEE7reserveEm(ptr %0, i64 %1) !dbg !2525 {
  %3 = alloca %"class.std::move_iterator.29", i64 1, align 8, !dbg !2526
  %4 = alloca %"class.std::move_iterator.29", i64 1, align 8, !dbg !2528
  %5 = alloca %"class.std::move_iterator.29", i64 1, align 8, !dbg !2529
  %6 = alloca %"class.std::move_iterator.29", i64 1, align 8, !dbg !2530
  %7 = call i64 @_ZNKSt6vectorIiSaIiEE8max_sizeEv(ptr %0), !dbg !2531
  %8 = icmp sgt i64 %1, %7, !dbg !2532
  br i1 %8, label %9, label %10, !dbg !2533

9:                                                ; preds = %2
  call void @_ZSt20__throw_length_errorPKc(ptr @str34), !dbg !2534
  br label %10, !dbg !2535

10:                                               ; preds = %9, %2
  %11 = call i64 @_ZNKSt6vectorIiSaIiEE8capacityEv(ptr %0), !dbg !2536
  %12 = icmp slt i64 %11, %1, !dbg !2537
  br i1 %12, label %13, label %60, !dbg !2538

13:                                               ; preds = %10
  %14 = call i64 @_ZNKSt6vectorIiSaIiEE4sizeEv(ptr %0), !dbg !2539
  %15 = call i8 @_ZNSt6vectorIiSaIiEE15_S_use_relocateEv(), !dbg !2540
  %16 = icmp ne i8 %15, 0, !dbg !2541
  br i1 %16, label %17, label %28, !dbg !2542

17:                                               ; preds = %13
  %18 = getelementptr %"class.std::vector", ptr %0, i32 0, i32 0, !dbg !2543
  %19 = call ptr @_ZNSt12_Vector_baseIiSaIiEE11_M_allocateEm(ptr %18, i64 %1), !dbg !2544
  %20 = getelementptr %"struct.std::_Vector_base", ptr %18, i32 0, i32 0, !dbg !2545
  %21 = getelementptr %"struct.std::_Vector_base<int, std::allocator<int>>::_Vector_impl", ptr %20, i32 0, i32 0, !dbg !2546
  %22 = getelementptr %"struct.std::_Vector_base<int, std::allocator<int>>::_Vector_impl_data", ptr %21, i32 0, i32 0, !dbg !2547
  %23 = load ptr, ptr %22, align 8, !dbg !2548
  %24 = getelementptr %"struct.std::_Vector_base<int, std::allocator<int>>::_Vector_impl_data", ptr %21, i32 0, i32 1, !dbg !2549
  %25 = load ptr, ptr %24, align 8, !dbg !2550
  %26 = call ptr @_ZNSt12_Vector_baseIiSaIiEE19_M_get_Tp_allocatorEv(ptr %18), !dbg !2551
  %27 = call ptr @_ZSt14__relocate_a_1IiiENSt9enable_ifIXsr3std24__is_bitwise_relocatableIT_EE5valueEPS1_E4typeES2_S2_S2_RSaIT0_E(ptr %23, ptr %25, ptr %19, ptr %26), !dbg !2552
  br label %42, !dbg !2553

28:                                               ; preds = %13
  %29 = getelementptr %"class.std::vector", ptr %0, i32 0, i32 0, !dbg !2554
  %30 = getelementptr %"struct.std::_Vector_base", ptr %29, i32 0, i32 0, !dbg !2555
  %31 = getelementptr %"struct.std::_Vector_base<int, std::allocator<int>>::_Vector_impl", ptr %30, i32 0, i32 0, !dbg !2556
  %32 = getelementptr %"struct.std::_Vector_base<int, std::allocator<int>>::_Vector_impl_data", ptr %31, i32 0, i32 0, !dbg !2557
  %33 = load ptr, ptr %32, align 8, !dbg !2558
  %34 = call %"class.std::move_iterator.29" @_ZSt32__make_move_if_noexcept_iteratorIiSt13move_iteratorIPiEET0_PT_(ptr %33), !dbg !2559
  store %"class.std::move_iterator.29" %34, ptr %5, align 8, !dbg !2560
  call void @_ZNSt13move_iteratorIPiEC1EOS1_(ptr %6, ptr %5), !dbg !2561
  %35 = getelementptr %"struct.std::_Vector_base<int, std::allocator<int>>::_Vector_impl_data", ptr %31, i32 0, i32 1, !dbg !2562
  %36 = load ptr, ptr %35, align 8, !dbg !2563
  %37 = call %"class.std::move_iterator.29" @_ZSt32__make_move_if_noexcept_iteratorIiSt13move_iteratorIPiEET0_PT_(ptr %36), !dbg !2564
  store %"class.std::move_iterator.29" %37, ptr %3, align 8, !dbg !2565
  call void @_ZNSt13move_iteratorIPiEC1EOS1_(ptr %4, ptr %3), !dbg !2566
  %38 = load %"class.std::move_iterator.29", ptr %6, align 8, !dbg !2567
  %39 = load %"class.std::move_iterator.29", ptr %4, align 8, !dbg !2568
  %40 = call ptr @_ZNSt6vectorIiSaIiEE20_M_allocate_and_copyISt13move_iteratorIPiEEES4_mT_S6_(ptr %0, i64 %1, %"class.std::move_iterator.29" %38, %"class.std::move_iterator.29" %39), !dbg !2569
  %41 = call ptr @_ZNSt12_Vector_baseIiSaIiEE19_M_get_Tp_allocatorEv(ptr %29), !dbg !2570
  br label %42, !dbg !2571

42:                                               ; preds = %17, %28
  %43 = phi ptr [ %40, %28 ], [ %19, %17 ]
  br label %44, !dbg !2572

44:                                               ; preds = %42
  %45 = getelementptr %"class.std::vector", ptr %0, i32 0, i32 0, !dbg !2573
  %46 = getelementptr %"struct.std::_Vector_base", ptr %45, i32 0, i32 0, !dbg !2574
  %47 = getelementptr %"struct.std::_Vector_base<int, std::allocator<int>>::_Vector_impl", ptr %46, i32 0, i32 0, !dbg !2575
  %48 = getelementptr %"struct.std::_Vector_base<int, std::allocator<int>>::_Vector_impl_data", ptr %47, i32 0, i32 0, !dbg !2576
  %49 = load ptr, ptr %48, align 8, !dbg !2577
  %50 = getelementptr %"struct.std::_Vector_base<int, std::allocator<int>>::_Vector_impl_data", ptr %47, i32 0, i32 2, !dbg !2578
  %51 = load ptr, ptr %50, align 8, !dbg !2579
  %52 = ptrtoint ptr %51 to i64, !dbg !2580
  %53 = ptrtoint ptr %49 to i64, !dbg !2581
  %54 = sub i64 %52, %53, !dbg !2582
  %55 = sdiv i64 %54, 4, !dbg !2583
  call void @_ZNSt12_Vector_baseIiSaIiEE13_M_deallocateEPim(ptr %45, ptr %49, i64 %55), !dbg !2584
  store ptr %43, ptr %48, align 8, !dbg !2585
  %56 = getelementptr %"struct.std::_Vector_base<int, std::allocator<int>>::_Vector_impl_data", ptr %47, i32 0, i32 1, !dbg !2586
  %57 = getelementptr i32, ptr %43, i64 %14, !dbg !2587
  store ptr %57, ptr %56, align 8, !dbg !2588
  %58 = load ptr, ptr %48, align 8, !dbg !2589
  %59 = getelementptr i32, ptr %58, i64 %1, !dbg !2590
  store ptr %59, ptr %50, align 8, !dbg !2591
  br label %60, !dbg !2592

60:                                               ; preds = %44, %10
  ret void, !dbg !2593
}

declare i8 @_Z15step1_firstTimei(i32)

define linkonce_odr void @_ZNSt12_Vector_baseIiSaIiEEC1Ev(ptr %0) !dbg !2594 {
  %2 = getelementptr %"struct.std::_Vector_base", ptr %0, i32 0, i32 0, !dbg !2595
  call void @_ZNSt12_Vector_baseIiSaIiEE12_Vector_implC1Ev(ptr %2), !dbg !2597
  ret void, !dbg !2598
}

define linkonce_odr ptr @_ZNKSt6vectorImSaImEEixEm(ptr %0, i64 %1) !dbg !2599 {
  %3 = getelementptr %"class.std::vector.1", ptr %0, i32 0, i32 0, !dbg !2600
  %4 = getelementptr %"struct.std::_Vector_base.2", ptr %3, i32 0, i32 0, !dbg !2602
  %5 = getelementptr %"struct.std::_Vector_base<unsigned long, std::allocator<unsigned long>>::_Vector_impl", ptr %4, i32 0, i32 0, !dbg !2603
  %6 = getelementptr %"struct.std::_Vector_base<unsigned long, std::allocator<unsigned long>>::_Vector_impl_data", ptr %5, i32 0, i32 0, !dbg !2604
  %7 = load ptr, ptr %6, align 8, !dbg !2605
  %8 = getelementptr i64, ptr %7, i64 %1, !dbg !2606
  ret ptr %8, !dbg !2607
}

define linkonce_odr ptr @_ZNKSt6vectorImSaImEEixEm__0(ptr %0, i64 %1) !dbg !2608 {
  %3 = getelementptr { { { { ptr, ptr, ptr } } } }, ptr %0, i32 0, i32 0, !dbg !2609
  %4 = getelementptr { { { ptr, ptr, ptr } } }, ptr %3, i32 0, i32 0, !dbg !2611
  %5 = getelementptr { { ptr, ptr, ptr } }, ptr %4, i32 0, i32 0, !dbg !2612
  %6 = getelementptr { ptr, ptr, ptr }, ptr %5, i32 0, i32 0, !dbg !2613
  %7 = load ptr, ptr %6, align 8, !dbg !2614
  %8 = getelementptr i64, ptr %7, i64 %1, !dbg !2615
  ret ptr %8, !dbg !2616
}

define linkonce_odr ptr @_ZNKSt6vectorIiSaIiEEixEm(ptr %0, i64 %1) !dbg !2617 {
  %3 = getelementptr %"class.std::vector", ptr %0, i32 0, i32 0, !dbg !2618
  %4 = getelementptr %"struct.std::_Vector_base", ptr %3, i32 0, i32 0, !dbg !2620
  %5 = getelementptr %"struct.std::_Vector_base<int, std::allocator<int>>::_Vector_impl", ptr %4, i32 0, i32 0, !dbg !2621
  %6 = getelementptr %"struct.std::_Vector_base<int, std::allocator<int>>::_Vector_impl_data", ptr %5, i32 0, i32 0, !dbg !2622
  %7 = load ptr, ptr %6, align 8, !dbg !2623
  %8 = getelementptr i32, ptr %7, i64 %1, !dbg !2624
  ret ptr %8, !dbg !2625
}

define linkonce_odr ptr @_ZNKSt6vectorIiSaIiEEixEm__1(ptr %0, i64 %1) !dbg !2626 {
  %3 = getelementptr { { { { ptr, ptr, ptr } } } }, ptr %0, i32 0, i32 0, !dbg !2627
  %4 = getelementptr { { { ptr, ptr, ptr } } }, ptr %3, i32 0, i32 0, !dbg !2629
  %5 = getelementptr { { ptr, ptr, ptr } }, ptr %4, i32 0, i32 0, !dbg !2630
  %6 = getelementptr { ptr, ptr, ptr }, ptr %5, i32 0, i32 0, !dbg !2631
  %7 = load ptr, ptr %6, align 8, !dbg !2632
  %8 = getelementptr i32, ptr %7, i64 %1, !dbg !2633
  ret ptr %8, !dbg !2634
}

define linkonce_odr ptr @_ZNKSt6vectorIiSaIiEEixEm__0(ptr %0, i64 %1) !dbg !2635 {
  %3 = getelementptr { { { { ptr, ptr, ptr } } } }, ptr %0, i32 0, i32 0, !dbg !2636
  %4 = getelementptr { { { ptr, ptr, ptr } } }, ptr %3, i32 0, i32 0, !dbg !2638
  %5 = getelementptr { { ptr, ptr, ptr } }, ptr %4, i32 0, i32 0, !dbg !2639
  %6 = getelementptr { ptr, ptr, ptr }, ptr %5, i32 0, i32 0, !dbg !2640
  %7 = load ptr, ptr %6, align 8, !dbg !2641
  %8 = getelementptr i32, ptr %7, i64 %1, !dbg !2642
  ret ptr %8, !dbg !2643
}

define internal i8 @"_ZZ33print_passage_counts_by_vendor_idiENK3$_0clERKmRKi"(ptr %0, ptr %1, ptr %2) !dbg !2644 {
  %4 = load i32, ptr %2, align 4, !dbg !2645
  %5 = getelementptr %class.anon, ptr %0, i32 0, i32 0, !dbg !2647
  %6 = load ptr, ptr %5, align 8, !dbg !2648
  %7 = load i32, ptr %6, align 4, !dbg !2649
  %8 = icmp eq i32 %4, %7, !dbg !2650
  %9 = zext i1 %8 to i8, !dbg !2651
  ret i8 %9, !dbg !2652
}

define linkonce_odr ptr @_ZSt3minImERKT_S2_S2_(ptr %0, ptr %1) !dbg !2653 {
  %3 = load i64, ptr %1, align 8, !dbg !2654
  %4 = load i64, ptr %0, align 8, !dbg !2656
  %5 = icmp slt i64 %3, %4, !dbg !2657
  %6 = select i1 %5, ptr %1, ptr %0, !dbg !2658
  ret ptr %6, !dbg !2659
}

define linkonce_odr void @_ZN10MaxVisitorImmE3preEv(ptr %0) !dbg !2660 {
  ret void, !dbg !2661
}

define linkonce_odr void @_ZN10MinVisitorImmE3preEv(ptr %0) !dbg !2663 {
  ret void, !dbg !2664
}

define linkonce_odr void @_ZN11MeanVisitorImmE3preEv(ptr %0) !dbg !2666 {
  %2 = getelementptr %class.MeanVisitor, ptr %0, i32 0, i32 0, !dbg !2667
  store i64 0, ptr %2, align 8, !dbg !2669
  %3 = getelementptr %class.MeanVisitor, ptr %0, i32 0, i32 1, !dbg !2670
  store i64 0, ptr %3, align 8, !dbg !2671
  ret void, !dbg !2672
}

define linkonce_odr void @_ZN10MaxVisitorImmEclEmm(ptr %0, i64 %1, i64 %2) !dbg !2673 {
  %4 = getelementptr %class.MaxVisitor, ptr %0, i32 0, i32 2, !dbg !2674
  %5 = load i8, ptr %4, align 1, !dbg !2676
  %6 = icmp ne i8 %5, 0, !dbg !2677
  br i1 %6, label %7, label %8, !dbg !2678

7:                                                ; preds = %3
  br label %12, !dbg !2679

8:                                                ; preds = %3
  %9 = getelementptr %class.MaxVisitor, ptr %0, i32 0, i32 1, !dbg !2680
  %10 = load i64, ptr %9, align 8, !dbg !2681
  %11 = icmp sgt i64 %2, %10, !dbg !2682
  br label %12, !dbg !2683

12:                                               ; preds = %7, %8
  %13 = phi i1 [ %11, %8 ], [ true, %7 ]
  br label %14, !dbg !2684

14:                                               ; preds = %12
  br i1 %13, label %15, label %18, !dbg !2685

15:                                               ; preds = %14
  %16 = getelementptr %class.MaxVisitor, ptr %0, i32 0, i32 1, !dbg !2686
  store i64 %2, ptr %16, align 8, !dbg !2687
  %17 = getelementptr %class.MaxVisitor, ptr %0, i32 0, i32 0, !dbg !2688
  store i64 %1, ptr %17, align 8, !dbg !2689
  store i8 0, ptr %4, align 1, !dbg !2690
  br label %18, !dbg !2691

18:                                               ; preds = %15, %14
  ret void, !dbg !2692
}

define linkonce_odr void @_ZN10MinVisitorImmEclEmm(ptr %0, i64 %1, i64 %2) !dbg !2693 {
  %4 = getelementptr %class.MinVisitor, ptr %0, i32 0, i32 2, !dbg !2694
  %5 = load i8, ptr %4, align 1, !dbg !2696
  %6 = icmp ne i8 %5, 0, !dbg !2697
  br i1 %6, label %7, label %8, !dbg !2698

7:                                                ; preds = %3
  br label %12, !dbg !2699

8:                                                ; preds = %3
  %9 = getelementptr %class.MinVisitor, ptr %0, i32 0, i32 1, !dbg !2700
  %10 = load i64, ptr %9, align 8, !dbg !2701
  %11 = icmp slt i64 %2, %10, !dbg !2702
  br label %12, !dbg !2703

12:                                               ; preds = %7, %8
  %13 = phi i1 [ %11, %8 ], [ true, %7 ]
  br label %14, !dbg !2704

14:                                               ; preds = %12
  br i1 %13, label %15, label %18, !dbg !2705

15:                                               ; preds = %14
  %16 = getelementptr %class.MinVisitor, ptr %0, i32 0, i32 1, !dbg !2706
  store i64 %2, ptr %16, align 8, !dbg !2707
  %17 = getelementptr %class.MinVisitor, ptr %0, i32 0, i32 0, !dbg !2708
  store i64 %1, ptr %17, align 8, !dbg !2709
  store i8 0, ptr %4, align 1, !dbg !2710
  br label %18, !dbg !2711

18:                                               ; preds = %15, %14
  ret void, !dbg !2712
}

define linkonce_odr void @_ZN11MeanVisitorImmEclEmm(ptr %0, i64 %1, i64 %2) !dbg !2713 {
  %4 = getelementptr %class.MeanVisitor, ptr %0, i32 0, i32 0, !dbg !2714
  %5 = load i64, ptr %4, align 8, !dbg !2716
  %6 = add i64 %5, %2, !dbg !2717
  store i64 %6, ptr %4, align 8, !dbg !2718
  %7 = getelementptr %class.MeanVisitor, ptr %0, i32 0, i32 1, !dbg !2719
  %8 = load i64, ptr %7, align 8, !dbg !2720
  %9 = add i64 %8, 1, !dbg !2721
  store i64 %9, ptr %7, align 8, !dbg !2722
  ret void, !dbg !2723
}

define linkonce_odr void @_ZN10MaxVisitorImmE4postEv(ptr %0) !dbg !2724 {
  ret void, !dbg !2725
}

define linkonce_odr void @_ZN10MinVisitorImmE4postEv(ptr %0) !dbg !2727 {
  ret void, !dbg !2728
}

define linkonce_odr void @_ZN11MeanVisitorImmE4postEv(ptr %0) !dbg !2730 {
  ret void, !dbg !2731
}

define linkonce_odr i64 @_ZNKSt6vectorIcSaIcEE4sizeEv(ptr %0) !dbg !2733 {
  %2 = getelementptr %"class.std::vector.21", ptr %0, i32 0, i32 0, !dbg !2734
  %3 = getelementptr %"struct.std::_Vector_base.22", ptr %2, i32 0, i32 0, !dbg !2736
  %4 = getelementptr %"struct.std::_Vector_base<char, std::allocator<char>>::_Vector_impl", ptr %3, i32 0, i32 0, !dbg !2737
  %5 = getelementptr %"struct.std::_Vector_base<char, std::allocator<char>>::_Vector_impl_data", ptr %4, i32 0, i32 1, !dbg !2738
  %6 = load ptr, ptr %5, align 8, !dbg !2739
  %7 = getelementptr %"struct.std::_Vector_base<char, std::allocator<char>>::_Vector_impl_data", ptr %4, i32 0, i32 0, !dbg !2740
  %8 = load ptr, ptr %7, align 8, !dbg !2741
  %9 = ptrtoint ptr %6 to i64, !dbg !2742
  %10 = ptrtoint ptr %8 to i64, !dbg !2743
  %11 = sub i64 %9, %10, !dbg !2744
  ret i64 %11, !dbg !2745
}

define linkonce_odr i64 @_ZNKSt6vectorIcSaIcEE4sizeEv__0(ptr %0) !dbg !2746 {
  %2 = getelementptr { { { { ptr, ptr, ptr } } } }, ptr %0, i32 0, i32 0, !dbg !2747
  %3 = getelementptr { { { ptr, ptr, ptr } } }, ptr %2, i32 0, i32 0, !dbg !2749
  %4 = getelementptr { { ptr, ptr, ptr } }, ptr %3, i32 0, i32 0, !dbg !2750
  %5 = getelementptr { ptr, ptr, ptr }, ptr %4, i32 0, i32 1, !dbg !2751
  %6 = load ptr, ptr %5, align 8, !dbg !2752
  %7 = getelementptr { ptr, ptr, ptr }, ptr %4, i32 0, i32 0, !dbg !2753
  %8 = load ptr, ptr %7, align 8, !dbg !2754
  %9 = ptrtoint ptr %6 to i64, !dbg !2755
  %10 = ptrtoint ptr %8 to i64, !dbg !2756
  %11 = sub i64 %9, %10, !dbg !2757
  ret i64 %11, !dbg !2758
}

define linkonce_odr ptr @_ZNKSt6vectorIcSaIcEEixEm(ptr %0, i64 %1) !dbg !2759 {
  %3 = getelementptr %"class.std::vector.21", ptr %0, i32 0, i32 0, !dbg !2760
  %4 = getelementptr %"struct.std::_Vector_base.22", ptr %3, i32 0, i32 0, !dbg !2762
  %5 = getelementptr %"struct.std::_Vector_base<char, std::allocator<char>>::_Vector_impl", ptr %4, i32 0, i32 0, !dbg !2763
  %6 = getelementptr %"struct.std::_Vector_base<char, std::allocator<char>>::_Vector_impl_data", ptr %5, i32 0, i32 0, !dbg !2764
  %7 = load ptr, ptr %6, align 8, !dbg !2765
  %8 = getelementptr i8, ptr %7, i64 %1, !dbg !2766
  ret ptr %8, !dbg !2767
}

define linkonce_odr ptr @_ZNKSt6vectorIcSaIcEEixEm__0(ptr %0, i64 %1) !dbg !2768 {
  %3 = getelementptr { { { { ptr, ptr, ptr } } } }, ptr %0, i32 0, i32 0, !dbg !2769
  %4 = getelementptr { { { ptr, ptr, ptr } } }, ptr %3, i32 0, i32 0, !dbg !2771
  %5 = getelementptr { { ptr, ptr, ptr } }, ptr %4, i32 0, i32 0, !dbg !2772
  %6 = getelementptr { ptr, ptr, ptr }, ptr %5, i32 0, i32 0, !dbg !2773
  %7 = load ptr, ptr %6, align 8, !dbg !2774
  %8 = getelementptr i8, ptr %7, i64 %1, !dbg !2775
  ret ptr %8, !dbg !2776
}

define internal i8 @"_ZZ41calculate_distribution_store_and_fwd_flagvENK3$_0clERKmRKc"(ptr %0, ptr %1, ptr %2) !dbg !2777 {
  %4 = load i8, ptr %2, align 1, !dbg !2778
  %5 = sext i8 %4 to i32, !dbg !2780
  %6 = icmp eq i32 %5, 78, !dbg !2781
  %7 = zext i1 %6 to i8, !dbg !2782
  ret i8 %7, !dbg !2783
}

define internal i8 @"_ZZ41calculate_distribution_store_and_fwd_flagvENK3$_1clERKmRKc"(ptr %0, ptr %1, ptr %2) !dbg !2784 {
  %4 = load i8, ptr %2, align 1, !dbg !2785
  %5 = sext i8 %4 to i32, !dbg !2787
  %6 = icmp eq i32 %5, 89, !dbg !2788
  %7 = zext i1 %6 to i8, !dbg !2789
  ret i8 %7, !dbg !2790
}

define linkonce_odr void @_ZNSt16allocator_traitsISaIiEE9constructIiJRKiEEEvRS0_PT_DpOT0_(ptr %0, ptr %1, ptr %2) !dbg !2791 {
  call void @_ZN9__gnu_cxx13new_allocatorIiE9constructIiJRKiEEEvPT_DpOT0_(ptr %0, ptr %1, ptr %2), !dbg !2792
  ret void, !dbg !2794
}

define linkonce_odr void @_ZNSt6vectorIiSaIiEE17_M_realloc_insertIJRKiEEEvN9__gnu_cxx17__normal_iteratorIPiS1_EEDpOT_(ptr %0, %"class.__gnu_cxx::__normal_iterator" %1, ptr %2) !dbg !2795 {
  %4 = alloca %"class.__gnu_cxx::__normal_iterator", i64 1, align 8, !dbg !2796
  %5 = alloca %"class.__gnu_cxx::__normal_iterator", i64 1, align 8, !dbg !2798
  store %"class.__gnu_cxx::__normal_iterator" %1, ptr %5, align 8, !dbg !2799
  %6 = call i64 @_ZNKSt6vectorIiSaIiEE12_M_check_lenEmPKc(ptr %0, i64 1, ptr @str35), !dbg !2800
  %7 = getelementptr %"class.std::vector", ptr %0, i32 0, i32 0, !dbg !2801
  %8 = getelementptr %"struct.std::_Vector_base", ptr %7, i32 0, i32 0, !dbg !2802
  %9 = getelementptr %"struct.std::_Vector_base<int, std::allocator<int>>::_Vector_impl", ptr %8, i32 0, i32 0, !dbg !2803
  %10 = getelementptr %"struct.std::_Vector_base<int, std::allocator<int>>::_Vector_impl_data", ptr %9, i32 0, i32 0, !dbg !2804
  %11 = load ptr, ptr %10, align 8, !dbg !2805
  %12 = getelementptr %"struct.std::_Vector_base<int, std::allocator<int>>::_Vector_impl_data", ptr %9, i32 0, i32 1, !dbg !2806
  %13 = load ptr, ptr %12, align 8, !dbg !2807
  %14 = call %"class.__gnu_cxx::__normal_iterator" @_ZNSt6vectorIiSaIiEE5beginEv(ptr %0), !dbg !2808
  store %"class.__gnu_cxx::__normal_iterator" %14, ptr %4, align 8, !dbg !2809
  %15 = call i64 @_ZN9__gnu_cxxmiIPiSt6vectorIiSaIiEEEENS_17__normal_iteratorIT_T0_E15difference_typeERKS8_SB_(ptr %5, ptr %4), !dbg !2810
  %16 = call ptr @_ZNSt12_Vector_baseIiSaIiEE11_M_allocateEm(ptr %7, i64 %6), !dbg !2811
  %17 = icmp ne ptr %8, null, !dbg !2812
  %18 = select i1 %17, ptr %8, ptr null, !dbg !2813
  %19 = getelementptr i32, ptr %16, i64 %15, !dbg !2814
  call void @_ZNSt16allocator_traitsISaIiEE9constructIiJRKiEEEvRS0_PT_DpOT0_(ptr %18, ptr %19, ptr %2), !dbg !2815
  %20 = call i8 @_ZNSt6vectorIiSaIiEE15_S_use_relocateEv(), !dbg !2816
  %21 = icmp ne i8 %20, 0, !dbg !2817
  br i1 %21, label %22, label %32, !dbg !2818

22:                                               ; preds = %3
  %23 = call ptr @_ZNK9__gnu_cxx17__normal_iteratorIPiSt6vectorIiSaIiEEE4baseEv(ptr %5), !dbg !2819
  %24 = load ptr, ptr %23, align 8, !dbg !2820
  %25 = call ptr @_ZNSt12_Vector_baseIiSaIiEE19_M_get_Tp_allocatorEv(ptr %7), !dbg !2821
  %26 = call ptr @_ZSt14__relocate_a_1IiiENSt9enable_ifIXsr3std24__is_bitwise_relocatableIT_EE5valueEPS1_E4typeES2_S2_S2_RSaIT0_E(ptr %11, ptr %24, ptr %16, ptr %25), !dbg !2822
  %27 = getelementptr i32, ptr %26, i32 1, !dbg !2823
  %28 = call ptr @_ZNK9__gnu_cxx17__normal_iteratorIPiSt6vectorIiSaIiEEE4baseEv(ptr %5), !dbg !2824
  %29 = load ptr, ptr %28, align 8, !dbg !2825
  %30 = call ptr @_ZNSt12_Vector_baseIiSaIiEE19_M_get_Tp_allocatorEv(ptr %7), !dbg !2826
  %31 = call ptr @_ZSt14__relocate_a_1IiiENSt9enable_ifIXsr3std24__is_bitwise_relocatableIT_EE5valueEPS1_E4typeES2_S2_S2_RSaIT0_E(ptr %29, ptr %13, ptr %27, ptr %30), !dbg !2827
  br label %42, !dbg !2828

32:                                               ; preds = %3
  %33 = call ptr @_ZNK9__gnu_cxx17__normal_iteratorIPiSt6vectorIiSaIiEEE4baseEv(ptr %5), !dbg !2829
  %34 = load ptr, ptr %33, align 8, !dbg !2830
  %35 = call ptr @_ZNSt12_Vector_baseIiSaIiEE19_M_get_Tp_allocatorEv(ptr %7), !dbg !2831
  %36 = call ptr @_ZSt34__uninitialized_move_if_noexcept_aIPiS0_SaIiEET0_T_S3_S2_RT1_(ptr %11, ptr %34, ptr %16, ptr %35), !dbg !2832
  %37 = getelementptr i32, ptr %36, i32 1, !dbg !2833
  %38 = call ptr @_ZNK9__gnu_cxx17__normal_iteratorIPiSt6vectorIiSaIiEEE4baseEv(ptr %5), !dbg !2834
  %39 = load ptr, ptr %38, align 8, !dbg !2835
  %40 = call ptr @_ZNSt12_Vector_baseIiSaIiEE19_M_get_Tp_allocatorEv(ptr %7), !dbg !2836
  %41 = call ptr @_ZSt34__uninitialized_move_if_noexcept_aIPiS0_SaIiEET0_T_S3_S2_RT1_(ptr %39, ptr %13, ptr %37, ptr %40), !dbg !2837
  br label %42, !dbg !2838

42:                                               ; preds = %22, %32
  %43 = phi ptr [ %41, %32 ], [ %31, %22 ]
  br label %44, !dbg !2839

44:                                               ; preds = %42
  %45 = call i8 @_ZNSt6vectorIiSaIiEE15_S_use_relocateEv(), !dbg !2840
  %46 = icmp eq i8 %45, 0, !dbg !2841
  br i1 %46, label %47, label %49, !dbg !2842

47:                                               ; preds = %44
  %48 = call ptr @_ZNSt12_Vector_baseIiSaIiEE19_M_get_Tp_allocatorEv(ptr %7), !dbg !2843
  br label %49, !dbg !2844

49:                                               ; preds = %47, %44
  %50 = getelementptr %"struct.std::_Vector_base<int, std::allocator<int>>::_Vector_impl_data", ptr %9, i32 0, i32 2, !dbg !2845
  %51 = load ptr, ptr %50, align 8, !dbg !2846
  %52 = ptrtoint ptr %51 to i64, !dbg !2847
  %53 = ptrtoint ptr %11 to i64, !dbg !2848
  %54 = sub i64 %52, %53, !dbg !2849
  %55 = sdiv i64 %54, 4, !dbg !2850
  call void @_ZNSt12_Vector_baseIiSaIiEE13_M_deallocateEPim(ptr %7, ptr %11, i64 %55), !dbg !2851
  store ptr %16, ptr %10, align 8, !dbg !2852
  store ptr %43, ptr %12, align 8, !dbg !2853
  %56 = getelementptr i32, ptr %16, i64 %6, !dbg !2854
  store ptr %56, ptr %50, align 8, !dbg !2855
  ret void, !dbg !2856
}

define linkonce_odr void @_ZN9__gnu_cxx17__normal_iteratorIPiSt6vectorIiSaIiEEEC1ERKS1_(ptr %0, ptr %1) !dbg !2857 {
  %3 = load ptr, ptr %1, align 8, !dbg !2858
  %4 = getelementptr %"class.__gnu_cxx::__normal_iterator", ptr %0, i32 0, i32 0, !dbg !2860
  store ptr %3, ptr %4, align 8, !dbg !2861
  ret void, !dbg !2862
}

define linkonce_odr ptr @_ZNK9__gnu_cxx17__normal_iteratorIPiSt6vectorIiSaIiEEE4baseEv(ptr %0) !dbg !2863 {
  %2 = getelementptr %"class.__gnu_cxx::__normal_iterator", ptr %0, i32 0, i32 0, !dbg !2864
  ret ptr %2, !dbg !2866
}

declare double @asin(double)

define linkonce_odr i64 @_ZNKSt6vectorIdSaIdEE8capacityEv(ptr %0) !dbg !2867 {
  %2 = getelementptr %"class.std::vector.9", ptr %0, i32 0, i32 0, !dbg !2868
  %3 = getelementptr %"struct.std::_Vector_base.10", ptr %2, i32 0, i32 0, !dbg !2870
  %4 = getelementptr %"struct.std::_Vector_base<double, std::allocator<double>>::_Vector_impl", ptr %3, i32 0, i32 0, !dbg !2871
  %5 = getelementptr %"struct.std::_Vector_base<double, std::allocator<double>>::_Vector_impl_data", ptr %4, i32 0, i32 2, !dbg !2872
  %6 = load ptr, ptr %5, align 8, !dbg !2873
  %7 = getelementptr %"struct.std::_Vector_base<double, std::allocator<double>>::_Vector_impl_data", ptr %4, i32 0, i32 0, !dbg !2874
  %8 = load ptr, ptr %7, align 8, !dbg !2875
  %9 = ptrtoint ptr %6 to i64, !dbg !2876
  %10 = ptrtoint ptr %8 to i64, !dbg !2877
  %11 = sub i64 %9, %10, !dbg !2878
  %12 = sdiv i64 %11, 8, !dbg !2879
  ret i64 %12, !dbg !2880
}

define linkonce_odr i64 @_ZNKSt6vectorIdSaIdEE8capacityEv__0(ptr %0) !dbg !2881 {
  %2 = getelementptr { { { { ptr, ptr, ptr } } } }, ptr %0, i32 0, i32 0, !dbg !2882
  %3 = getelementptr { { { ptr, ptr, ptr } } }, ptr %2, i32 0, i32 0, !dbg !2884
  %4 = getelementptr { { ptr, ptr, ptr } }, ptr %3, i32 0, i32 0, !dbg !2885
  %5 = getelementptr { ptr, ptr, ptr }, ptr %4, i32 0, i32 2, !dbg !2886
  %6 = load ptr, ptr %5, align 8, !dbg !2887
  %7 = getelementptr { ptr, ptr, ptr }, ptr %4, i32 0, i32 0, !dbg !2888
  %8 = load ptr, ptr %7, align 8, !dbg !2889
  %9 = ptrtoint ptr %6 to i64, !dbg !2890
  %10 = ptrtoint ptr %8 to i64, !dbg !2891
  %11 = sub i64 %9, %10, !dbg !2892
  %12 = sdiv i64 %11, 8, !dbg !2893
  ret i64 %12, !dbg !2894
}

declare void @exit(i32)

define internal i8 @"_ZZ35calculate_haversine_distance_columnvENK3$_0clERKmRKd"(ptr %0, ptr %1, ptr %2) !dbg !2895 {
  %4 = load double, ptr %2, align 8, !dbg !2896
  %5 = fcmp ogt double %4, 1.000000e+02, !dbg !2898
  %6 = zext i1 %5 to i8, !dbg !2899
  ret i8 %6, !dbg !2900
}

define linkonce_odr void @_ZNSt12_Vector_baseImSaImEEC1Ev(ptr %0) !dbg !2901 {
  %2 = getelementptr %"struct.std::_Vector_base.2", ptr %0, i32 0, i32 0, !dbg !2902
  call void @_ZNSt12_Vector_baseImSaImEE12_Vector_implC1Ev(ptr %2), !dbg !2904
  ret void, !dbg !2905
}

define linkonce_odr i64 @_ZNKSt6vectorImSaImEE8max_sizeEv(ptr %0) !dbg !2906 {
  %2 = getelementptr %"class.std::vector.1", ptr %0, i32 0, i32 0, !dbg !2907
  %3 = call ptr @_ZNKSt12_Vector_baseImSaImEE19_M_get_Tp_allocatorEv(ptr %2), !dbg !2909
  %4 = call i64 @_ZNSt6vectorImSaImEE11_S_max_sizeERKS0_(ptr %3), !dbg !2910
  ret i64 %4, !dbg !2911
}

declare void @_ZSt20__throw_length_errorPKc(ptr)

define linkonce_odr i64 @_ZNKSt6vectorImSaImEE8capacityEv(ptr %0) !dbg !2912 {
  %2 = getelementptr %"class.std::vector.1", ptr %0, i32 0, i32 0, !dbg !2913
  %3 = getelementptr %"struct.std::_Vector_base.2", ptr %2, i32 0, i32 0, !dbg !2915
  %4 = getelementptr %"struct.std::_Vector_base<unsigned long, std::allocator<unsigned long>>::_Vector_impl", ptr %3, i32 0, i32 0, !dbg !2916
  %5 = getelementptr %"struct.std::_Vector_base<unsigned long, std::allocator<unsigned long>>::_Vector_impl_data", ptr %4, i32 0, i32 2, !dbg !2917
  %6 = load ptr, ptr %5, align 8, !dbg !2918
  %7 = getelementptr %"struct.std::_Vector_base<unsigned long, std::allocator<unsigned long>>::_Vector_impl_data", ptr %4, i32 0, i32 0, !dbg !2919
  %8 = load ptr, ptr %7, align 8, !dbg !2920
  %9 = ptrtoint ptr %6 to i64, !dbg !2921
  %10 = ptrtoint ptr %8 to i64, !dbg !2922
  %11 = sub i64 %9, %10, !dbg !2923
  %12 = sdiv i64 %11, 8, !dbg !2924
  ret i64 %12, !dbg !2925
}

define linkonce_odr i8 @_ZNSt6vectorImSaImEE15_S_use_relocateEv() !dbg !2926 {
  %1 = alloca %"struct.std::__is_move_insertable", i64 1, align 8, !dbg !2927
  call void @llvm.memset.p0.i64(ptr %1, i8 0, i64 1, i1 false), !dbg !2929
  ret i8 1, !dbg !2930
}

define linkonce_odr ptr @_ZNSt12_Vector_baseImSaImEE11_M_allocateEm(ptr %0, i64 %1) !dbg !2931 {
  %3 = icmp ne i64 %1, 0, !dbg !2932
  br i1 %3, label %4, label %9, !dbg !2934

4:                                                ; preds = %2
  %5 = getelementptr %"struct.std::_Vector_base.2", ptr %0, i32 0, i32 0, !dbg !2935
  %6 = icmp ne ptr %5, null, !dbg !2936
  %7 = select i1 %6, ptr %5, ptr null, !dbg !2937
  %8 = call ptr @_ZNSt16allocator_traitsISaImEE8allocateERS0_m(ptr %7, i64 %1), !dbg !2938
  br label %10, !dbg !2939

9:                                                ; preds = %2
  br label %10, !dbg !2940

10:                                               ; preds = %4, %9
  %11 = phi ptr [ null, %9 ], [ %8, %4 ]
  br label %12, !dbg !2941

12:                                               ; preds = %10
  ret ptr %11, !dbg !2942
}

define linkonce_odr ptr @_ZNSt6vectorImSaImEE11_S_relocateEPmS2_S2_RS0_(ptr %0, ptr %1, ptr %2, ptr %3) !dbg !2943 {
  %5 = call ptr @_ZSt14__relocate_a_1ImmENSt9enable_ifIXsr3std24__is_bitwise_relocatableIT_EE5valueEPS1_E4typeES2_S2_S2_RSaIT0_E(ptr %0, ptr %1, ptr %2, ptr %3), !dbg !2944
  ret ptr %5, !dbg !2946
}

define linkonce_odr ptr @_ZNSt12_Vector_baseImSaImEE19_M_get_Tp_allocatorEv(ptr %0) !dbg !2947 {
  %2 = getelementptr %"struct.std::_Vector_base.2", ptr %0, i32 0, i32 0, !dbg !2948
  %3 = icmp ne ptr %2, null, !dbg !2950
  %4 = select i1 %3, ptr %2, ptr null, !dbg !2951
  ret ptr %4, !dbg !2952
}

define linkonce_odr ptr @_ZNSt6vectorImSaImEE20_M_allocate_and_copyISt13move_iteratorIPmEEES4_mT_S6_(ptr %0, i64 %1, %"class.std::move_iterator" %2, %"class.std::move_iterator" %3) !dbg !2953 {
  %5 = alloca %"class.std::move_iterator", i64 1, align 8, !dbg !2954
  %6 = alloca %"class.std::move_iterator", i64 1, align 8, !dbg !2956
  %7 = alloca %"class.std::move_iterator", i64 1, align 8, !dbg !2957
  %8 = alloca %"class.std::move_iterator", i64 1, align 8, !dbg !2958
  store %"class.std::move_iterator" %2, ptr %8, align 8, !dbg !2959
  store %"class.std::move_iterator" %3, ptr %7, align 8, !dbg !2960
  %9 = getelementptr %"class.std::vector.1", ptr %0, i32 0, i32 0, !dbg !2961
  %10 = call ptr @_ZNSt12_Vector_baseImSaImEE11_M_allocateEm(ptr %9, i64 %1), !dbg !2962
  call void @_ZNSt13move_iteratorIPmEC1ERKS1_(ptr %6, ptr %8), !dbg !2963
  call void @_ZNSt13move_iteratorIPmEC1ERKS1_(ptr %5, ptr %7), !dbg !2964
  %11 = call ptr @_ZNSt12_Vector_baseImSaImEE19_M_get_Tp_allocatorEv(ptr %9), !dbg !2965
  %12 = load %"class.std::move_iterator", ptr %6, align 8, !dbg !2966
  %13 = load %"class.std::move_iterator", ptr %5, align 8, !dbg !2967
  %14 = call ptr @_ZSt22__uninitialized_copy_aISt13move_iteratorIPmES1_mET0_T_S4_S3_RSaIT1_E(%"class.std::move_iterator" %12, %"class.std::move_iterator" %13, ptr %10, ptr %11), !dbg !2968
  ret ptr %10, !dbg !2969
}

define linkonce_odr void @_ZNSt13move_iteratorIPmEC1EOS1_(ptr %0, ptr %1) !dbg !2970 {
  %3 = getelementptr %"class.std::move_iterator", ptr %1, i32 0, i32 0, !dbg !2971
  %4 = load ptr, ptr %3, align 8, !dbg !2973
  %5 = getelementptr %"class.std::move_iterator", ptr %0, i32 0, i32 0, !dbg !2974
  store ptr %4, ptr %5, align 8, !dbg !2975
  ret void, !dbg !2976
}

define linkonce_odr %"class.std::move_iterator" @_ZSt32__make_move_if_noexcept_iteratorImSt13move_iteratorIPmEET0_PT_(ptr %0) !dbg !2977 {
  %2 = alloca %"class.std::move_iterator", i64 1, align 8, !dbg !2978
  %3 = alloca %"class.std::move_iterator", i64 1, align 8, !dbg !2980
  %4 = alloca %"class.std::move_iterator", i64 1, align 8, !dbg !2981
  call void @_ZNSt13move_iteratorIPmEC1ES0_(ptr %3, ptr %0), !dbg !2982
  %5 = load %"class.std::move_iterator", ptr %3, align 8, !dbg !2983
  store %"class.std::move_iterator" %5, ptr %2, align 8, !dbg !2984
  call void @_ZNSt13move_iteratorIPmEC1EOS1_(ptr %4, ptr %2), !dbg !2985
  %6 = load %"class.std::move_iterator", ptr %4, align 8, !dbg !2986
  ret %"class.std::move_iterator" %6, !dbg !2987
}

define linkonce_odr void @_ZSt8_DestroyIPmmEvT_S1_RSaIT0_E(ptr %0, ptr %1, ptr %2) !dbg !2988 {
  ret void, !dbg !2989
}

define linkonce_odr void @_ZNSt12_Vector_baseImSaImEE13_M_deallocateEPmm(ptr %0, ptr %1, i64 %2) !dbg !2991 {
  %4 = icmp ne ptr %1, null, !dbg !2992
  br i1 %4, label %5, label %9, !dbg !2994

5:                                                ; preds = %3
  %6 = getelementptr %"struct.std::_Vector_base.2", ptr %0, i32 0, i32 0, !dbg !2995
  %7 = icmp ne ptr %6, null, !dbg !2996
  %8 = select i1 %7, ptr %6, ptr null, !dbg !2997
  call void @_ZNSt16allocator_traitsISaImEE10deallocateERS0_Pmm(ptr %8, ptr %1, i64 %2), !dbg !2998
  br label %9, !dbg !2999

9:                                                ; preds = %5, %3
  ret void, !dbg !3000
}

define linkonce_odr void @_ZNSt12_Vector_baseIsSaIsEEC1Ev(ptr %0) !dbg !3001 {
  %2 = getelementptr %"struct.std::_Vector_base.17", ptr %0, i32 0, i32 0, !dbg !3002
  call void @_ZNSt12_Vector_baseIsSaIsEE12_Vector_implC1Ev(ptr %2), !dbg !3004
  ret void, !dbg !3005
}

define linkonce_odr i64 @_ZNKSt6vectorIsSaIsEE8max_sizeEv(ptr %0) !dbg !3006 {
  %2 = getelementptr %"class.std::vector.16", ptr %0, i32 0, i32 0, !dbg !3007
  %3 = call ptr @_ZNKSt12_Vector_baseIsSaIsEE19_M_get_Tp_allocatorEv(ptr %2), !dbg !3009
  %4 = call i64 @_ZNSt6vectorIsSaIsEE11_S_max_sizeERKS0_(ptr %3), !dbg !3010
  ret i64 %4, !dbg !3011
}

define linkonce_odr i64 @_ZNKSt6vectorIsSaIsEE8capacityEv(ptr %0) !dbg !3012 {
  %2 = getelementptr %"class.std::vector.16", ptr %0, i32 0, i32 0, !dbg !3013
  %3 = getelementptr %"struct.std::_Vector_base.17", ptr %2, i32 0, i32 0, !dbg !3015
  %4 = getelementptr %"struct.std::_Vector_base<short, std::allocator<short>>::_Vector_impl", ptr %3, i32 0, i32 0, !dbg !3016
  %5 = getelementptr %"struct.std::_Vector_base<short, std::allocator<short>>::_Vector_impl_data", ptr %4, i32 0, i32 2, !dbg !3017
  %6 = load ptr, ptr %5, align 8, !dbg !3018
  %7 = getelementptr %"struct.std::_Vector_base<short, std::allocator<short>>::_Vector_impl_data", ptr %4, i32 0, i32 0, !dbg !3019
  %8 = load ptr, ptr %7, align 8, !dbg !3020
  %9 = ptrtoint ptr %6 to i64, !dbg !3021
  %10 = ptrtoint ptr %8 to i64, !dbg !3022
  %11 = sub i64 %9, %10, !dbg !3023
  %12 = sdiv i64 %11, 2, !dbg !3024
  ret i64 %12, !dbg !3025
}

define linkonce_odr i64 @_ZNKSt6vectorIsSaIsEE4sizeEv(ptr %0) !dbg !3026 {
  %2 = getelementptr %"class.std::vector.16", ptr %0, i32 0, i32 0, !dbg !3027
  %3 = getelementptr %"struct.std::_Vector_base.17", ptr %2, i32 0, i32 0, !dbg !3029
  %4 = getelementptr %"struct.std::_Vector_base<short, std::allocator<short>>::_Vector_impl", ptr %3, i32 0, i32 0, !dbg !3030
  %5 = getelementptr %"struct.std::_Vector_base<short, std::allocator<short>>::_Vector_impl_data", ptr %4, i32 0, i32 1, !dbg !3031
  %6 = load ptr, ptr %5, align 8, !dbg !3032
  %7 = getelementptr %"struct.std::_Vector_base<short, std::allocator<short>>::_Vector_impl_data", ptr %4, i32 0, i32 0, !dbg !3033
  %8 = load ptr, ptr %7, align 8, !dbg !3034
  %9 = ptrtoint ptr %6 to i64, !dbg !3035
  %10 = ptrtoint ptr %8 to i64, !dbg !3036
  %11 = sub i64 %9, %10, !dbg !3037
  %12 = sdiv i64 %11, 2, !dbg !3038
  ret i64 %12, !dbg !3039
}

define linkonce_odr i8 @_ZNSt6vectorIsSaIsEE15_S_use_relocateEv() !dbg !3040 {
  %1 = alloca %"struct.std::__is_move_insertable.30", i64 1, align 8, !dbg !3041
  call void @llvm.memset.p0.i64(ptr %1, i8 0, i64 1, i1 false), !dbg !3043
  ret i8 1, !dbg !3044
}

define linkonce_odr ptr @_ZNSt12_Vector_baseIsSaIsEE11_M_allocateEm(ptr %0, i64 %1) !dbg !3045 {
  %3 = icmp ne i64 %1, 0, !dbg !3046
  br i1 %3, label %4, label %9, !dbg !3048

4:                                                ; preds = %2
  %5 = getelementptr %"struct.std::_Vector_base.17", ptr %0, i32 0, i32 0, !dbg !3049
  %6 = icmp ne ptr %5, null, !dbg !3050
  %7 = select i1 %6, ptr %5, ptr null, !dbg !3051
  %8 = call ptr @_ZNSt16allocator_traitsISaIsEE8allocateERS0_m(ptr %7, i64 %1), !dbg !3052
  br label %10, !dbg !3053

9:                                                ; preds = %2
  br label %10, !dbg !3054

10:                                               ; preds = %4, %9
  %11 = phi ptr [ null, %9 ], [ %8, %4 ]
  br label %12, !dbg !3055

12:                                               ; preds = %10
  ret ptr %11, !dbg !3056
}

define linkonce_odr ptr @_ZNSt6vectorIsSaIsEE11_S_relocateEPsS2_S2_RS0_(ptr %0, ptr %1, ptr %2, ptr %3) !dbg !3057 {
  %5 = call ptr @_ZSt14__relocate_a_1IssENSt9enable_ifIXsr3std24__is_bitwise_relocatableIT_EE5valueEPS1_E4typeES2_S2_S2_RSaIT0_E(ptr %0, ptr %1, ptr %2, ptr %3), !dbg !3058
  ret ptr %5, !dbg !3060
}

define linkonce_odr ptr @_ZNSt12_Vector_baseIsSaIsEE19_M_get_Tp_allocatorEv(ptr %0) !dbg !3061 {
  %2 = getelementptr %"struct.std::_Vector_base.17", ptr %0, i32 0, i32 0, !dbg !3062
  %3 = icmp ne ptr %2, null, !dbg !3064
  %4 = select i1 %3, ptr %2, ptr null, !dbg !3065
  ret ptr %4, !dbg !3066
}

define linkonce_odr ptr @_ZNSt6vectorIsSaIsEE20_M_allocate_and_copyISt13move_iteratorIPsEEES4_mT_S6_(ptr %0, i64 %1, %"class.std::move_iterator.26" %2, %"class.std::move_iterator.26" %3) !dbg !3067 {
  %5 = alloca %"class.std::move_iterator.26", i64 1, align 8, !dbg !3068
  %6 = alloca %"class.std::move_iterator.26", i64 1, align 8, !dbg !3070
  %7 = alloca %"class.std::move_iterator.26", i64 1, align 8, !dbg !3071
  %8 = alloca %"class.std::move_iterator.26", i64 1, align 8, !dbg !3072
  store %"class.std::move_iterator.26" %2, ptr %8, align 8, !dbg !3073
  store %"class.std::move_iterator.26" %3, ptr %7, align 8, !dbg !3074
  %9 = getelementptr %"class.std::vector.16", ptr %0, i32 0, i32 0, !dbg !3075
  %10 = call ptr @_ZNSt12_Vector_baseIsSaIsEE11_M_allocateEm(ptr %9, i64 %1), !dbg !3076
  call void @_ZNSt13move_iteratorIPsEC1ERKS1_(ptr %6, ptr %8), !dbg !3077
  call void @_ZNSt13move_iteratorIPsEC1ERKS1_(ptr %5, ptr %7), !dbg !3078
  %11 = call ptr @_ZNSt12_Vector_baseIsSaIsEE19_M_get_Tp_allocatorEv(ptr %9), !dbg !3079
  %12 = load %"class.std::move_iterator.26", ptr %6, align 8, !dbg !3080
  %13 = load %"class.std::move_iterator.26", ptr %5, align 8, !dbg !3081
  %14 = call ptr @_ZSt22__uninitialized_copy_aISt13move_iteratorIPsES1_sET0_T_S4_S3_RSaIT1_E(%"class.std::move_iterator.26" %12, %"class.std::move_iterator.26" %13, ptr %10, ptr %11), !dbg !3082
  ret ptr %10, !dbg !3083
}

define linkonce_odr void @_ZNSt13move_iteratorIPsEC1EOS1_(ptr %0, ptr %1) !dbg !3084 {
  %3 = getelementptr %"class.std::move_iterator.26", ptr %1, i32 0, i32 0, !dbg !3085
  %4 = load ptr, ptr %3, align 8, !dbg !3087
  %5 = getelementptr %"class.std::move_iterator.26", ptr %0, i32 0, i32 0, !dbg !3088
  store ptr %4, ptr %5, align 8, !dbg !3089
  ret void, !dbg !3090
}

define linkonce_odr %"class.std::move_iterator.26" @_ZSt32__make_move_if_noexcept_iteratorIsSt13move_iteratorIPsEET0_PT_(ptr %0) !dbg !3091 {
  %2 = alloca %"class.std::move_iterator.26", i64 1, align 8, !dbg !3092
  %3 = alloca %"class.std::move_iterator.26", i64 1, align 8, !dbg !3094
  %4 = alloca %"class.std::move_iterator.26", i64 1, align 8, !dbg !3095
  call void @_ZNSt13move_iteratorIPsEC1ES0_(ptr %3, ptr %0), !dbg !3096
  %5 = load %"class.std::move_iterator.26", ptr %3, align 8, !dbg !3097
  store %"class.std::move_iterator.26" %5, ptr %2, align 8, !dbg !3098
  call void @_ZNSt13move_iteratorIPsEC1EOS1_(ptr %4, ptr %2), !dbg !3099
  %6 = load %"class.std::move_iterator.26", ptr %4, align 8, !dbg !3100
  ret %"class.std::move_iterator.26" %6, !dbg !3101
}

define linkonce_odr void @_ZSt8_DestroyIPssEvT_S1_RSaIT0_E(ptr %0, ptr %1, ptr %2) !dbg !3102 {
  ret void, !dbg !3103
}

define linkonce_odr void @_ZNSt12_Vector_baseIsSaIsEE13_M_deallocateEPsm(ptr %0, ptr %1, i64 %2) !dbg !3105 {
  %4 = icmp ne ptr %1, null, !dbg !3106
  br i1 %4, label %5, label %9, !dbg !3108

5:                                                ; preds = %3
  %6 = getelementptr %"struct.std::_Vector_base.17", ptr %0, i32 0, i32 0, !dbg !3109
  %7 = icmp ne ptr %6, null, !dbg !3110
  %8 = select i1 %7, ptr %6, ptr null, !dbg !3111
  call void @_ZNSt16allocator_traitsISaIsEE10deallocateERS0_Psm(ptr %8, ptr %1, i64 %2), !dbg !3112
  br label %9, !dbg !3113

9:                                                ; preds = %5, %3
  ret void, !dbg !3114
}

define linkonce_odr void @_ZNSt16allocator_traitsISaImEE9constructImJRKmEEEvRS0_PT_DpOT0_(ptr %0, ptr %1, ptr %2) !dbg !3115 {
  call void @_ZN9__gnu_cxx13new_allocatorImE9constructImJRKmEEEvPT_DpOT0_(ptr %0, ptr %1, ptr %2), !dbg !3116
  ret void, !dbg !3118
}

define linkonce_odr void @_ZNSt6vectorImSaImEE17_M_realloc_insertIJRKmEEEvN9__gnu_cxx17__normal_iteratorIPmS1_EEDpOT_(ptr %0, %"class.__gnu_cxx::__normal_iterator.27" %1, ptr %2) !dbg !3119 {
  %4 = alloca %"class.__gnu_cxx::__normal_iterator.27", i64 1, align 8, !dbg !3120
  %5 = alloca %"class.__gnu_cxx::__normal_iterator.27", i64 1, align 8, !dbg !3122
  store %"class.__gnu_cxx::__normal_iterator.27" %1, ptr %5, align 8, !dbg !3123
  %6 = call i64 @_ZNKSt6vectorImSaImEE12_M_check_lenEmPKc(ptr %0, i64 1, ptr @str35), !dbg !3124
  %7 = getelementptr %"class.std::vector.1", ptr %0, i32 0, i32 0, !dbg !3125
  %8 = getelementptr %"struct.std::_Vector_base.2", ptr %7, i32 0, i32 0, !dbg !3126
  %9 = getelementptr %"struct.std::_Vector_base<unsigned long, std::allocator<unsigned long>>::_Vector_impl", ptr %8, i32 0, i32 0, !dbg !3127
  %10 = getelementptr %"struct.std::_Vector_base<unsigned long, std::allocator<unsigned long>>::_Vector_impl_data", ptr %9, i32 0, i32 0, !dbg !3128
  %11 = load ptr, ptr %10, align 8, !dbg !3129
  %12 = getelementptr %"struct.std::_Vector_base<unsigned long, std::allocator<unsigned long>>::_Vector_impl_data", ptr %9, i32 0, i32 1, !dbg !3130
  %13 = load ptr, ptr %12, align 8, !dbg !3131
  %14 = call %"class.__gnu_cxx::__normal_iterator.27" @_ZNSt6vectorImSaImEE5beginEv(ptr %0), !dbg !3132
  store %"class.__gnu_cxx::__normal_iterator.27" %14, ptr %4, align 8, !dbg !3133
  %15 = call i64 @_ZN9__gnu_cxxmiIPmSt6vectorImSaImEEEENS_17__normal_iteratorIT_T0_E15difference_typeERKS8_SB_(ptr %5, ptr %4), !dbg !3134
  %16 = call ptr @_ZNSt12_Vector_baseImSaImEE11_M_allocateEm(ptr %7, i64 %6), !dbg !3135
  %17 = icmp ne ptr %8, null, !dbg !3136
  %18 = select i1 %17, ptr %8, ptr null, !dbg !3137
  %19 = getelementptr i64, ptr %16, i64 %15, !dbg !3138
  call void @_ZNSt16allocator_traitsISaImEE9constructImJRKmEEEvRS0_PT_DpOT0_(ptr %18, ptr %19, ptr %2), !dbg !3139
  %20 = call i8 @_ZNSt6vectorImSaImEE15_S_use_relocateEv(), !dbg !3140
  %21 = icmp ne i8 %20, 0, !dbg !3141
  br i1 %21, label %22, label %32, !dbg !3142

22:                                               ; preds = %3
  %23 = call ptr @_ZNK9__gnu_cxx17__normal_iteratorIPmSt6vectorImSaImEEE4baseEv(ptr %5), !dbg !3143
  %24 = load ptr, ptr %23, align 8, !dbg !3144
  %25 = call ptr @_ZNSt12_Vector_baseImSaImEE19_M_get_Tp_allocatorEv(ptr %7), !dbg !3145
  %26 = call ptr @_ZSt14__relocate_a_1ImmENSt9enable_ifIXsr3std24__is_bitwise_relocatableIT_EE5valueEPS1_E4typeES2_S2_S2_RSaIT0_E(ptr %11, ptr %24, ptr %16, ptr %25), !dbg !3146
  %27 = getelementptr i64, ptr %26, i32 1, !dbg !3147
  %28 = call ptr @_ZNK9__gnu_cxx17__normal_iteratorIPmSt6vectorImSaImEEE4baseEv(ptr %5), !dbg !3148
  %29 = load ptr, ptr %28, align 8, !dbg !3149
  %30 = call ptr @_ZNSt12_Vector_baseImSaImEE19_M_get_Tp_allocatorEv(ptr %7), !dbg !3150
  %31 = call ptr @_ZSt14__relocate_a_1ImmENSt9enable_ifIXsr3std24__is_bitwise_relocatableIT_EE5valueEPS1_E4typeES2_S2_S2_RSaIT0_E(ptr %29, ptr %13, ptr %27, ptr %30), !dbg !3151
  br label %42, !dbg !3152

32:                                               ; preds = %3
  %33 = call ptr @_ZNK9__gnu_cxx17__normal_iteratorIPmSt6vectorImSaImEEE4baseEv(ptr %5), !dbg !3153
  %34 = load ptr, ptr %33, align 8, !dbg !3154
  %35 = call ptr @_ZNSt12_Vector_baseImSaImEE19_M_get_Tp_allocatorEv(ptr %7), !dbg !3155
  %36 = call ptr @_ZSt34__uninitialized_move_if_noexcept_aIPmS0_SaImEET0_T_S3_S2_RT1_(ptr %11, ptr %34, ptr %16, ptr %35), !dbg !3156
  %37 = getelementptr i64, ptr %36, i32 1, !dbg !3157
  %38 = call ptr @_ZNK9__gnu_cxx17__normal_iteratorIPmSt6vectorImSaImEEE4baseEv(ptr %5), !dbg !3158
  %39 = load ptr, ptr %38, align 8, !dbg !3159
  %40 = call ptr @_ZNSt12_Vector_baseImSaImEE19_M_get_Tp_allocatorEv(ptr %7), !dbg !3160
  %41 = call ptr @_ZSt34__uninitialized_move_if_noexcept_aIPmS0_SaImEET0_T_S3_S2_RT1_(ptr %39, ptr %13, ptr %37, ptr %40), !dbg !3161
  br label %42, !dbg !3162

42:                                               ; preds = %22, %32
  %43 = phi ptr [ %41, %32 ], [ %31, %22 ]
  br label %44, !dbg !3163

44:                                               ; preds = %42
  %45 = call i8 @_ZNSt6vectorImSaImEE15_S_use_relocateEv(), !dbg !3164
  %46 = icmp eq i8 %45, 0, !dbg !3165
  br i1 %46, label %47, label %49, !dbg !3166

47:                                               ; preds = %44
  %48 = call ptr @_ZNSt12_Vector_baseImSaImEE19_M_get_Tp_allocatorEv(ptr %7), !dbg !3167
  br label %49, !dbg !3168

49:                                               ; preds = %47, %44
  %50 = getelementptr %"struct.std::_Vector_base<unsigned long, std::allocator<unsigned long>>::_Vector_impl_data", ptr %9, i32 0, i32 2, !dbg !3169
  %51 = load ptr, ptr %50, align 8, !dbg !3170
  %52 = ptrtoint ptr %51 to i64, !dbg !3171
  %53 = ptrtoint ptr %11 to i64, !dbg !3172
  %54 = sub i64 %52, %53, !dbg !3173
  %55 = sdiv i64 %54, 8, !dbg !3174
  call void @_ZNSt12_Vector_baseImSaImEE13_M_deallocateEPmm(ptr %7, ptr %11, i64 %55), !dbg !3175
  store ptr %16, ptr %10, align 8, !dbg !3176
  store ptr %43, ptr %12, align 8, !dbg !3177
  %56 = getelementptr i64, ptr %16, i64 %6, !dbg !3178
  store ptr %56, ptr %50, align 8, !dbg !3179
  ret void, !dbg !3180
}

define linkonce_odr void @_ZN9__gnu_cxx17__normal_iteratorIPmSt6vectorImSaImEEEC1EOS5_(ptr %0, ptr %1) !dbg !3181 {
  %3 = getelementptr %"class.__gnu_cxx::__normal_iterator.27", ptr %1, i32 0, i32 0, !dbg !3182
  %4 = load ptr, ptr %3, align 8, !dbg !3184
  %5 = getelementptr %"class.__gnu_cxx::__normal_iterator.27", ptr %0, i32 0, i32 0, !dbg !3185
  store ptr %4, ptr %5, align 8, !dbg !3186
  ret void, !dbg !3187
}

define linkonce_odr %"class.__gnu_cxx::__normal_iterator.27" @_ZNSt6vectorImSaImEE3endEv(ptr %0) !dbg !3188 {
  %2 = alloca %"class.__gnu_cxx::__normal_iterator.27", i64 1, align 8, !dbg !3189
  %3 = alloca %"class.__gnu_cxx::__normal_iterator.27", i64 1, align 8, !dbg !3191
  %4 = alloca %"class.__gnu_cxx::__normal_iterator.27", i64 1, align 8, !dbg !3192
  %5 = getelementptr %"class.std::vector.1", ptr %0, i32 0, i32 0, !dbg !3193
  %6 = getelementptr %"struct.std::_Vector_base.2", ptr %5, i32 0, i32 0, !dbg !3194
  %7 = getelementptr %"struct.std::_Vector_base<unsigned long, std::allocator<unsigned long>>::_Vector_impl", ptr %6, i32 0, i32 0, !dbg !3195
  %8 = getelementptr %"struct.std::_Vector_base<unsigned long, std::allocator<unsigned long>>::_Vector_impl_data", ptr %7, i32 0, i32 1, !dbg !3196
  call void @_ZN9__gnu_cxx17__normal_iteratorIPmSt6vectorImSaImEEEC1ERKS1_(ptr %3, ptr %8), !dbg !3197
  %9 = load %"class.__gnu_cxx::__normal_iterator.27", ptr %3, align 8, !dbg !3198
  store %"class.__gnu_cxx::__normal_iterator.27" %9, ptr %2, align 8, !dbg !3199
  call void @_ZN9__gnu_cxx17__normal_iteratorIPmSt6vectorImSaImEEEC1EOS5_(ptr %4, ptr %2), !dbg !3200
  %10 = load %"class.__gnu_cxx::__normal_iterator.27", ptr %4, align 8, !dbg !3201
  ret %"class.__gnu_cxx::__normal_iterator.27" %10, !dbg !3202
}

define linkonce_odr void @_ZNSt16allocator_traitsISaIsEE9constructIsJRKsEEEvRS0_PT_DpOT0_(ptr %0, ptr %1, ptr %2) !dbg !3203 {
  call void @_ZN9__gnu_cxx13new_allocatorIsE9constructIsJRKsEEEvPT_DpOT0_(ptr %0, ptr %1, ptr %2), !dbg !3204
  ret void, !dbg !3206
}

define linkonce_odr void @_ZNSt6vectorIsSaIsEE17_M_realloc_insertIJRKsEEEvN9__gnu_cxx17__normal_iteratorIPsS1_EEDpOT_(ptr %0, %"class.__gnu_cxx::__normal_iterator.28" %1, ptr %2) !dbg !3207 {
  %4 = alloca %"class.__gnu_cxx::__normal_iterator.28", i64 1, align 8, !dbg !3208
  %5 = alloca %"class.__gnu_cxx::__normal_iterator.28", i64 1, align 8, !dbg !3210
  store %"class.__gnu_cxx::__normal_iterator.28" %1, ptr %5, align 8, !dbg !3211
  %6 = call i64 @_ZNKSt6vectorIsSaIsEE12_M_check_lenEmPKc(ptr %0, i64 1, ptr @str35), !dbg !3212
  %7 = getelementptr %"class.std::vector.16", ptr %0, i32 0, i32 0, !dbg !3213
  %8 = getelementptr %"struct.std::_Vector_base.17", ptr %7, i32 0, i32 0, !dbg !3214
  %9 = getelementptr %"struct.std::_Vector_base<short, std::allocator<short>>::_Vector_impl", ptr %8, i32 0, i32 0, !dbg !3215
  %10 = getelementptr %"struct.std::_Vector_base<short, std::allocator<short>>::_Vector_impl_data", ptr %9, i32 0, i32 0, !dbg !3216
  %11 = load ptr, ptr %10, align 8, !dbg !3217
  %12 = getelementptr %"struct.std::_Vector_base<short, std::allocator<short>>::_Vector_impl_data", ptr %9, i32 0, i32 1, !dbg !3218
  %13 = load ptr, ptr %12, align 8, !dbg !3219
  %14 = call %"class.__gnu_cxx::__normal_iterator.28" @_ZNSt6vectorIsSaIsEE5beginEv(ptr %0), !dbg !3220
  store %"class.__gnu_cxx::__normal_iterator.28" %14, ptr %4, align 8, !dbg !3221
  %15 = call i64 @_ZN9__gnu_cxxmiIPsSt6vectorIsSaIsEEEENS_17__normal_iteratorIT_T0_E15difference_typeERKS8_SB_(ptr %5, ptr %4), !dbg !3222
  %16 = call ptr @_ZNSt12_Vector_baseIsSaIsEE11_M_allocateEm(ptr %7, i64 %6), !dbg !3223
  %17 = icmp ne ptr %8, null, !dbg !3224
  %18 = select i1 %17, ptr %8, ptr null, !dbg !3225
  %19 = getelementptr i16, ptr %16, i64 %15, !dbg !3226
  call void @_ZNSt16allocator_traitsISaIsEE9constructIsJRKsEEEvRS0_PT_DpOT0_(ptr %18, ptr %19, ptr %2), !dbg !3227
  %20 = call i8 @_ZNSt6vectorIsSaIsEE15_S_use_relocateEv(), !dbg !3228
  %21 = icmp ne i8 %20, 0, !dbg !3229
  br i1 %21, label %22, label %32, !dbg !3230

22:                                               ; preds = %3
  %23 = call ptr @_ZNK9__gnu_cxx17__normal_iteratorIPsSt6vectorIsSaIsEEE4baseEv(ptr %5), !dbg !3231
  %24 = load ptr, ptr %23, align 8, !dbg !3232
  %25 = call ptr @_ZNSt12_Vector_baseIsSaIsEE19_M_get_Tp_allocatorEv(ptr %7), !dbg !3233
  %26 = call ptr @_ZSt14__relocate_a_1IssENSt9enable_ifIXsr3std24__is_bitwise_relocatableIT_EE5valueEPS1_E4typeES2_S2_S2_RSaIT0_E(ptr %11, ptr %24, ptr %16, ptr %25), !dbg !3234
  %27 = getelementptr i16, ptr %26, i32 1, !dbg !3235
  %28 = call ptr @_ZNK9__gnu_cxx17__normal_iteratorIPsSt6vectorIsSaIsEEE4baseEv(ptr %5), !dbg !3236
  %29 = load ptr, ptr %28, align 8, !dbg !3237
  %30 = call ptr @_ZNSt12_Vector_baseIsSaIsEE19_M_get_Tp_allocatorEv(ptr %7), !dbg !3238
  %31 = call ptr @_ZSt14__relocate_a_1IssENSt9enable_ifIXsr3std24__is_bitwise_relocatableIT_EE5valueEPS1_E4typeES2_S2_S2_RSaIT0_E(ptr %29, ptr %13, ptr %27, ptr %30), !dbg !3239
  br label %42, !dbg !3240

32:                                               ; preds = %3
  %33 = call ptr @_ZNK9__gnu_cxx17__normal_iteratorIPsSt6vectorIsSaIsEEE4baseEv(ptr %5), !dbg !3241
  %34 = load ptr, ptr %33, align 8, !dbg !3242
  %35 = call ptr @_ZNSt12_Vector_baseIsSaIsEE19_M_get_Tp_allocatorEv(ptr %7), !dbg !3243
  %36 = call ptr @_ZSt34__uninitialized_move_if_noexcept_aIPsS0_SaIsEET0_T_S3_S2_RT1_(ptr %11, ptr %34, ptr %16, ptr %35), !dbg !3244
  %37 = getelementptr i16, ptr %36, i32 1, !dbg !3245
  %38 = call ptr @_ZNK9__gnu_cxx17__normal_iteratorIPsSt6vectorIsSaIsEEE4baseEv(ptr %5), !dbg !3246
  %39 = load ptr, ptr %38, align 8, !dbg !3247
  %40 = call ptr @_ZNSt12_Vector_baseIsSaIsEE19_M_get_Tp_allocatorEv(ptr %7), !dbg !3248
  %41 = call ptr @_ZSt34__uninitialized_move_if_noexcept_aIPsS0_SaIsEET0_T_S3_S2_RT1_(ptr %39, ptr %13, ptr %37, ptr %40), !dbg !3249
  br label %42, !dbg !3250

42:                                               ; preds = %22, %32
  %43 = phi ptr [ %41, %32 ], [ %31, %22 ]
  br label %44, !dbg !3251

44:                                               ; preds = %42
  %45 = call i8 @_ZNSt6vectorIsSaIsEE15_S_use_relocateEv(), !dbg !3252
  %46 = icmp eq i8 %45, 0, !dbg !3253
  br i1 %46, label %47, label %49, !dbg !3254

47:                                               ; preds = %44
  %48 = call ptr @_ZNSt12_Vector_baseIsSaIsEE19_M_get_Tp_allocatorEv(ptr %7), !dbg !3255
  br label %49, !dbg !3256

49:                                               ; preds = %47, %44
  %50 = getelementptr %"struct.std::_Vector_base<short, std::allocator<short>>::_Vector_impl_data", ptr %9, i32 0, i32 2, !dbg !3257
  %51 = load ptr, ptr %50, align 8, !dbg !3258
  %52 = ptrtoint ptr %51 to i64, !dbg !3259
  %53 = ptrtoint ptr %11 to i64, !dbg !3260
  %54 = sub i64 %52, %53, !dbg !3261
  %55 = sdiv i64 %54, 2, !dbg !3262
  call void @_ZNSt12_Vector_baseIsSaIsEE13_M_deallocateEPsm(ptr %7, ptr %11, i64 %55), !dbg !3263
  store ptr %16, ptr %10, align 8, !dbg !3264
  store ptr %43, ptr %12, align 8, !dbg !3265
  %56 = getelementptr i16, ptr %16, i64 %6, !dbg !3266
  store ptr %56, ptr %50, align 8, !dbg !3267
  ret void, !dbg !3268
}

define linkonce_odr void @_ZN9__gnu_cxx17__normal_iteratorIPsSt6vectorIsSaIsEEEC1EOS5_(ptr %0, ptr %1) !dbg !3269 {
  %3 = getelementptr %"class.__gnu_cxx::__normal_iterator.28", ptr %1, i32 0, i32 0, !dbg !3270
  %4 = load ptr, ptr %3, align 8, !dbg !3272
  %5 = getelementptr %"class.__gnu_cxx::__normal_iterator.28", ptr %0, i32 0, i32 0, !dbg !3273
  store ptr %4, ptr %5, align 8, !dbg !3274
  ret void, !dbg !3275
}

define linkonce_odr %"class.__gnu_cxx::__normal_iterator.28" @_ZNSt6vectorIsSaIsEE3endEv(ptr %0) !dbg !3276 {
  %2 = alloca %"class.__gnu_cxx::__normal_iterator.28", i64 1, align 8, !dbg !3277
  %3 = alloca %"class.__gnu_cxx::__normal_iterator.28", i64 1, align 8, !dbg !3279
  %4 = alloca %"class.__gnu_cxx::__normal_iterator.28", i64 1, align 8, !dbg !3280
  %5 = getelementptr %"class.std::vector.16", ptr %0, i32 0, i32 0, !dbg !3281
  %6 = getelementptr %"struct.std::_Vector_base.17", ptr %5, i32 0, i32 0, !dbg !3282
  %7 = getelementptr %"struct.std::_Vector_base<short, std::allocator<short>>::_Vector_impl", ptr %6, i32 0, i32 0, !dbg !3283
  %8 = getelementptr %"struct.std::_Vector_base<short, std::allocator<short>>::_Vector_impl_data", ptr %7, i32 0, i32 1, !dbg !3284
  call void @_ZN9__gnu_cxx17__normal_iteratorIPsSt6vectorIsSaIsEEEC1ERKS1_(ptr %3, ptr %8), !dbg !3285
  %9 = load %"class.__gnu_cxx::__normal_iterator.28", ptr %3, align 8, !dbg !3286
  store %"class.__gnu_cxx::__normal_iterator.28" %9, ptr %2, align 8, !dbg !3287
  call void @_ZN9__gnu_cxx17__normal_iteratorIPsSt6vectorIsSaIsEEEC1EOS5_(ptr %4, ptr %2), !dbg !3288
  %10 = load %"class.__gnu_cxx::__normal_iterator.28", ptr %4, align 8, !dbg !3289
  ret %"class.__gnu_cxx::__normal_iterator.28" %10, !dbg !3290
}

define linkonce_odr void @_ZNSt6chrono8durationIlSt5ratioILl1ELl1000000EEEC1IlvEERKT_(ptr %0, ptr %1) !dbg !3291 {
  %3 = load i64, ptr %1, align 8, !dbg !3292
  %4 = getelementptr %"struct.std::chrono::duration.0", ptr %0, i32 0, i32 0, !dbg !3294
  store i64 %3, ptr %4, align 8, !dbg !3295
  ret void, !dbg !3296
}

define linkonce_odr i64 @_ZNKSt6chrono8durationIlSt5ratioILl1ELl1000000000EEE5countEv(ptr %0) !dbg !3297 {
  %2 = getelementptr %"struct.std::chrono::duration", ptr %0, i32 0, i32 0, !dbg !3298
  %3 = load i64, ptr %2, align 8, !dbg !3300
  ret i64 %3, !dbg !3301
}

define linkonce_odr i64 @_ZNKSt6vectorIiSaIiEE8max_sizeEv(ptr %0) !dbg !3302 {
  %2 = getelementptr %"class.std::vector", ptr %0, i32 0, i32 0, !dbg !3303
  %3 = call ptr @_ZNKSt12_Vector_baseIiSaIiEE19_M_get_Tp_allocatorEv(ptr %2), !dbg !3305
  %4 = call i64 @_ZNSt6vectorIiSaIiEE11_S_max_sizeERKS0_(ptr %3), !dbg !3306
  ret i64 %4, !dbg !3307
}

define linkonce_odr i64 @_ZNKSt6vectorIiSaIiEE8capacityEv(ptr %0) !dbg !3308 {
  %2 = getelementptr %"class.std::vector", ptr %0, i32 0, i32 0, !dbg !3309
  %3 = getelementptr %"struct.std::_Vector_base", ptr %2, i32 0, i32 0, !dbg !3311
  %4 = getelementptr %"struct.std::_Vector_base<int, std::allocator<int>>::_Vector_impl", ptr %3, i32 0, i32 0, !dbg !3312
  %5 = getelementptr %"struct.std::_Vector_base<int, std::allocator<int>>::_Vector_impl_data", ptr %4, i32 0, i32 2, !dbg !3313
  %6 = load ptr, ptr %5, align 8, !dbg !3314
  %7 = getelementptr %"struct.std::_Vector_base<int, std::allocator<int>>::_Vector_impl_data", ptr %4, i32 0, i32 0, !dbg !3315
  %8 = load ptr, ptr %7, align 8, !dbg !3316
  %9 = ptrtoint ptr %6 to i64, !dbg !3317
  %10 = ptrtoint ptr %8 to i64, !dbg !3318
  %11 = sub i64 %9, %10, !dbg !3319
  %12 = sdiv i64 %11, 4, !dbg !3320
  ret i64 %12, !dbg !3321
}

define linkonce_odr i8 @_ZNSt6vectorIiSaIiEE15_S_use_relocateEv() !dbg !3322 {
  %1 = alloca %"struct.std::__is_move_insertable.34", i64 1, align 8, !dbg !3323
  call void @llvm.memset.p0.i64(ptr %1, i8 0, i64 1, i1 false), !dbg !3325
  ret i8 1, !dbg !3326
}

define linkonce_odr ptr @_ZNSt12_Vector_baseIiSaIiEE11_M_allocateEm(ptr %0, i64 %1) !dbg !3327 {
  %3 = icmp ne i64 %1, 0, !dbg !3328
  br i1 %3, label %4, label %9, !dbg !3330

4:                                                ; preds = %2
  %5 = getelementptr %"struct.std::_Vector_base", ptr %0, i32 0, i32 0, !dbg !3331
  %6 = icmp ne ptr %5, null, !dbg !3332
  %7 = select i1 %6, ptr %5, ptr null, !dbg !3333
  %8 = call ptr @_ZNSt16allocator_traitsISaIiEE8allocateERS0_m(ptr %7, i64 %1), !dbg !3334
  br label %10, !dbg !3335

9:                                                ; preds = %2
  br label %10, !dbg !3336

10:                                               ; preds = %4, %9
  %11 = phi ptr [ null, %9 ], [ %8, %4 ]
  br label %12, !dbg !3337

12:                                               ; preds = %10
  ret ptr %11, !dbg !3338
}

define linkonce_odr ptr @_ZNSt6vectorIiSaIiEE11_S_relocateEPiS2_S2_RS0_(ptr %0, ptr %1, ptr %2, ptr %3) !dbg !3339 {
  %5 = call ptr @_ZSt14__relocate_a_1IiiENSt9enable_ifIXsr3std24__is_bitwise_relocatableIT_EE5valueEPS1_E4typeES2_S2_S2_RSaIT0_E(ptr %0, ptr %1, ptr %2, ptr %3), !dbg !3340
  ret ptr %5, !dbg !3342
}

define linkonce_odr ptr @_ZNSt12_Vector_baseIiSaIiEE19_M_get_Tp_allocatorEv(ptr %0) !dbg !3343 {
  %2 = getelementptr %"struct.std::_Vector_base", ptr %0, i32 0, i32 0, !dbg !3344
  %3 = icmp ne ptr %2, null, !dbg !3346
  %4 = select i1 %3, ptr %2, ptr null, !dbg !3347
  ret ptr %4, !dbg !3348
}

define linkonce_odr ptr @_ZNSt6vectorIiSaIiEE20_M_allocate_and_copyISt13move_iteratorIPiEEES4_mT_S6_(ptr %0, i64 %1, %"class.std::move_iterator.29" %2, %"class.std::move_iterator.29" %3) !dbg !3349 {
  %5 = alloca %"class.std::move_iterator.29", i64 1, align 8, !dbg !3350
  %6 = alloca %"class.std::move_iterator.29", i64 1, align 8, !dbg !3352
  %7 = alloca %"class.std::move_iterator.29", i64 1, align 8, !dbg !3353
  %8 = alloca %"class.std::move_iterator.29", i64 1, align 8, !dbg !3354
  store %"class.std::move_iterator.29" %2, ptr %8, align 8, !dbg !3355
  store %"class.std::move_iterator.29" %3, ptr %7, align 8, !dbg !3356
  %9 = getelementptr %"class.std::vector", ptr %0, i32 0, i32 0, !dbg !3357
  %10 = call ptr @_ZNSt12_Vector_baseIiSaIiEE11_M_allocateEm(ptr %9, i64 %1), !dbg !3358
  call void @_ZNSt13move_iteratorIPiEC1ERKS1_(ptr %6, ptr %8), !dbg !3359
  call void @_ZNSt13move_iteratorIPiEC1ERKS1_(ptr %5, ptr %7), !dbg !3360
  %11 = call ptr @_ZNSt12_Vector_baseIiSaIiEE19_M_get_Tp_allocatorEv(ptr %9), !dbg !3361
  %12 = load %"class.std::move_iterator.29", ptr %6, align 8, !dbg !3362
  %13 = load %"class.std::move_iterator.29", ptr %5, align 8, !dbg !3363
  %14 = call ptr @_ZSt22__uninitialized_copy_aISt13move_iteratorIPiES1_iET0_T_S4_S3_RSaIT1_E(%"class.std::move_iterator.29" %12, %"class.std::move_iterator.29" %13, ptr %10, ptr %11), !dbg !3364
  ret ptr %10, !dbg !3365
}

define linkonce_odr void @_ZNSt13move_iteratorIPiEC1EOS1_(ptr %0, ptr %1) !dbg !3366 {
  %3 = getelementptr %"class.std::move_iterator.29", ptr %1, i32 0, i32 0, !dbg !3367
  %4 = load ptr, ptr %3, align 8, !dbg !3369
  %5 = getelementptr %"class.std::move_iterator.29", ptr %0, i32 0, i32 0, !dbg !3370
  store ptr %4, ptr %5, align 8, !dbg !3371
  ret void, !dbg !3372
}

define linkonce_odr %"class.std::move_iterator.29" @_ZSt32__make_move_if_noexcept_iteratorIiSt13move_iteratorIPiEET0_PT_(ptr %0) !dbg !3373 {
  %2 = alloca %"class.std::move_iterator.29", i64 1, align 8, !dbg !3374
  %3 = alloca %"class.std::move_iterator.29", i64 1, align 8, !dbg !3376
  %4 = alloca %"class.std::move_iterator.29", i64 1, align 8, !dbg !3377
  call void @_ZNSt13move_iteratorIPiEC1ES0_(ptr %3, ptr %0), !dbg !3378
  %5 = load %"class.std::move_iterator.29", ptr %3, align 8, !dbg !3379
  store %"class.std::move_iterator.29" %5, ptr %2, align 8, !dbg !3380
  call void @_ZNSt13move_iteratorIPiEC1EOS1_(ptr %4, ptr %2), !dbg !3381
  %6 = load %"class.std::move_iterator.29", ptr %4, align 8, !dbg !3382
  ret %"class.std::move_iterator.29" %6, !dbg !3383
}

define linkonce_odr void @_ZSt8_DestroyIPiiEvT_S1_RSaIT0_E(ptr %0, ptr %1, ptr %2) !dbg !3384 {
  ret void, !dbg !3385
}

define linkonce_odr void @_ZNSt12_Vector_baseIiSaIiEE13_M_deallocateEPim(ptr %0, ptr %1, i64 %2) !dbg !3387 {
  %4 = icmp ne ptr %1, null, !dbg !3388
  br i1 %4, label %5, label %9, !dbg !3390

5:                                                ; preds = %3
  %6 = getelementptr %"struct.std::_Vector_base", ptr %0, i32 0, i32 0, !dbg !3391
  %7 = icmp ne ptr %6, null, !dbg !3392
  %8 = select i1 %7, ptr %6, ptr null, !dbg !3393
  call void @_ZNSt16allocator_traitsISaIiEE10deallocateERS0_Pim(ptr %8, ptr %1, i64 %2), !dbg !3394
  br label %9, !dbg !3395

9:                                                ; preds = %5, %3
  ret void, !dbg !3396
}

define linkonce_odr void @_ZNSt12_Vector_baseIiSaIiEE12_Vector_implC1Ev(ptr %0) !dbg !3397 {
  %2 = getelementptr %"struct.std::_Vector_base<int, std::allocator<int>>::_Vector_impl", ptr %0, i32 0, i32 0, !dbg !3398
  call void @_ZNSt12_Vector_baseIiSaIiEE17_Vector_impl_dataC1Ev(ptr %2), !dbg !3400
  ret void, !dbg !3401
}

define linkonce_odr void @_ZN9__gnu_cxx13new_allocatorIiE9constructIiJRKiEEEvPT_DpOT0_(ptr %0, ptr %1, ptr %2) !dbg !3402 {
  %4 = load i32, ptr %2, align 4, !dbg !3403
  store i32 %4, ptr %1, align 4, !dbg !3405
  ret void, !dbg !3406
}

define linkonce_odr i64 @_ZNKSt6vectorIiSaIiEE12_M_check_lenEmPKc(ptr %0, i64 %1, ptr %2) !dbg !3407 {
  %4 = alloca i64, i64 1, align 8, !dbg !3408
  store i64 undef, ptr %4, align 8, !dbg !3410
  %5 = alloca i64, i64 1, align 8, !dbg !3411
  store i64 undef, ptr %5, align 8, !dbg !3412
  store i64 %1, ptr %5, align 8, !dbg !3413
  %6 = call i64 @_ZNKSt6vectorIiSaIiEE8max_sizeEv(ptr %0), !dbg !3414
  %7 = call i64 @_ZNKSt6vectorIiSaIiEE4sizeEv(ptr %0), !dbg !3415
  %8 = sub i64 %6, %7, !dbg !3416
  %9 = load i64, ptr %5, align 8, !dbg !3417
  %10 = icmp slt i64 %8, %9, !dbg !3418
  br i1 %10, label %11, label %12, !dbg !3419

11:                                               ; preds = %3
  call void @_ZSt20__throw_length_errorPKc(ptr %2), !dbg !3420
  br label %12, !dbg !3421

12:                                               ; preds = %11, %3
  %13 = call i64 @_ZNKSt6vectorIiSaIiEE4sizeEv(ptr %0), !dbg !3422
  %14 = call i64 @_ZNKSt6vectorIiSaIiEE4sizeEv(ptr %0), !dbg !3423
  store i64 %14, ptr %4, align 8, !dbg !3424
  %15 = call ptr @_ZSt3maxImERKT_S2_S2_(ptr %4, ptr %5), !dbg !3425
  %16 = load i64, ptr %15, align 8, !dbg !3426
  %17 = add i64 %13, %16, !dbg !3427
  %18 = call i64 @_ZNKSt6vectorIiSaIiEE4sizeEv(ptr %0), !dbg !3428
  %19 = icmp slt i64 %17, %18, !dbg !3429
  br i1 %19, label %20, label %21, !dbg !3430

20:                                               ; preds = %12
  br label %24, !dbg !3431

21:                                               ; preds = %12
  %22 = call i64 @_ZNKSt6vectorIiSaIiEE8max_sizeEv(ptr %0), !dbg !3432
  %23 = icmp sgt i64 %17, %22, !dbg !3433
  br label %24, !dbg !3434

24:                                               ; preds = %20, %21
  %25 = phi i1 [ %23, %21 ], [ true, %20 ]
  br label %26, !dbg !3435

26:                                               ; preds = %24
  br i1 %25, label %27, label %29, !dbg !3436

27:                                               ; preds = %26
  %28 = call i64 @_ZNKSt6vectorIiSaIiEE8max_sizeEv(ptr %0), !dbg !3437
  br label %30, !dbg !3438

29:                                               ; preds = %26
  br label %30, !dbg !3439

30:                                               ; preds = %27, %29
  %31 = phi i64 [ %17, %29 ], [ %28, %27 ]
  br label %32, !dbg !3440

32:                                               ; preds = %30
  ret i64 %31, !dbg !3441
}

define linkonce_odr i64 @_ZN9__gnu_cxxmiIPiSt6vectorIiSaIiEEEENS_17__normal_iteratorIT_T0_E15difference_typeERKS8_SB_(ptr %0, ptr %1) !dbg !3442 {
  %3 = call ptr @_ZNK9__gnu_cxx17__normal_iteratorIPiSt6vectorIiSaIiEEE4baseEv(ptr %0), !dbg !3443
  %4 = load ptr, ptr %3, align 8, !dbg !3445
  %5 = call ptr @_ZNK9__gnu_cxx17__normal_iteratorIPiSt6vectorIiSaIiEEE4baseEv(ptr %1), !dbg !3446
  %6 = load ptr, ptr %5, align 8, !dbg !3447
  %7 = ptrtoint ptr %4 to i64, !dbg !3448
  %8 = ptrtoint ptr %6 to i64, !dbg !3449
  %9 = sub i64 %7, %8, !dbg !3450
  %10 = sdiv i64 %9, 4, !dbg !3451
  ret i64 %10, !dbg !3452
}

define linkonce_odr ptr @_ZSt34__uninitialized_move_if_noexcept_aIPiS0_SaIiEET0_T_S3_S2_RT1_(ptr %0, ptr %1, ptr %2, ptr %3) !dbg !3453 {
  %5 = alloca %"class.std::move_iterator.29", i64 1, align 8, !dbg !3454
  %6 = alloca %"class.std::move_iterator.29", i64 1, align 8, !dbg !3456
  %7 = alloca %"class.std::move_iterator.29", i64 1, align 8, !dbg !3457
  %8 = alloca %"class.std::move_iterator.29", i64 1, align 8, !dbg !3458
  %9 = call %"class.std::move_iterator.29" @_ZSt32__make_move_if_noexcept_iteratorIiSt13move_iteratorIPiEET0_PT_(ptr %0), !dbg !3459
  store %"class.std::move_iterator.29" %9, ptr %7, align 8, !dbg !3460
  call void @_ZNSt13move_iteratorIPiEC1EOS1_(ptr %8, ptr %7), !dbg !3461
  %10 = call %"class.std::move_iterator.29" @_ZSt32__make_move_if_noexcept_iteratorIiSt13move_iteratorIPiEET0_PT_(ptr %1), !dbg !3462
  store %"class.std::move_iterator.29" %10, ptr %5, align 8, !dbg !3463
  call void @_ZNSt13move_iteratorIPiEC1EOS1_(ptr %6, ptr %5), !dbg !3464
  %11 = load %"class.std::move_iterator.29", ptr %8, align 8, !dbg !3465
  %12 = load %"class.std::move_iterator.29", ptr %6, align 8, !dbg !3466
  %13 = call ptr @_ZSt22__uninitialized_copy_aISt13move_iteratorIPiES1_iET0_T_S4_S3_RSaIT1_E(%"class.std::move_iterator.29" %11, %"class.std::move_iterator.29" %12, ptr %2, ptr %3), !dbg !3467
  ret ptr %13, !dbg !3468
}

define linkonce_odr void @_ZNSt12_Vector_baseImSaImEE12_Vector_implC1Ev(ptr %0) !dbg !3469 {
  %2 = getelementptr %"struct.std::_Vector_base<unsigned long, std::allocator<unsigned long>>::_Vector_impl", ptr %0, i32 0, i32 0, !dbg !3470
  call void @_ZNSt12_Vector_baseImSaImEE17_Vector_impl_dataC1Ev(ptr %2), !dbg !3472
  ret void, !dbg !3473
}

define linkonce_odr i64 @_ZNSt6vectorImSaImEE11_S_max_sizeERKS0_(ptr %0) !dbg !3474 {
  %2 = alloca i64, i64 1, align 8, !dbg !3475
  store i64 undef, ptr %2, align 8, !dbg !3477
  %3 = alloca i64, i64 1, align 8, !dbg !3478
  store i64 undef, ptr %3, align 8, !dbg !3479
  store i64 1152921504606846975, ptr %3, align 8, !dbg !3480
  store i64 1152921504606846975, ptr %2, align 8, !dbg !3481
  %4 = call ptr @_ZSt3minImERKT_S2_S2_(ptr %3, ptr %2), !dbg !3482
  %5 = load i64, ptr %4, align 8, !dbg !3483
  ret i64 %5, !dbg !3484
}

define linkonce_odr ptr @_ZNKSt12_Vector_baseImSaImEE19_M_get_Tp_allocatorEv(ptr %0) !dbg !3485 {
  %2 = getelementptr %"struct.std::_Vector_base.2", ptr %0, i32 0, i32 0, !dbg !3486
  %3 = icmp ne ptr %2, null, !dbg !3488
  %4 = select i1 %3, ptr %2, ptr null, !dbg !3489
  ret ptr %4, !dbg !3490
}

define linkonce_odr i8 @_ZNSt6vectorImSaImEE19_S_nothrow_relocateESt17integral_constantIbLb1EE(%"struct.std::integral_constant" %0) !dbg !3491 {
  ret i8 1, !dbg !3492
}

define linkonce_odr void @_ZNSt17integral_constantIbLb1EEC1EOS0_(ptr %0, ptr %1) !dbg !3494 {
  ret void, !dbg !3495
}

define linkonce_odr ptr @_ZNSt16allocator_traitsISaImEE8allocateERS0_m(ptr %0, i64 %1) !dbg !3497 {
  %3 = call ptr @_ZN9__gnu_cxx13new_allocatorImE8allocateEmPKv(ptr %0, i64 %1, ptr null), !dbg !3498
  ret ptr %3, !dbg !3500
}

define linkonce_odr ptr @_ZNSt6vectorImSaImEE14_S_do_relocateEPmS2_S2_RS0_St17integral_constantIbLb1EE(ptr %0, ptr %1, ptr %2, ptr %3, %"struct.std::integral_constant" %4) !dbg !3501 {
  %6 = call ptr @_ZSt14__relocate_a_1ImmENSt9enable_ifIXsr3std24__is_bitwise_relocatableIT_EE5valueEPS1_E4typeES2_S2_S2_RSaIT0_E(ptr %0, ptr %1, ptr %2, ptr %3), !dbg !3502
  ret ptr %6, !dbg !3504
}

define linkonce_odr ptr @_ZSt22__uninitialized_copy_aISt13move_iteratorIPmES1_mET0_T_S4_S3_RSaIT1_E(%"class.std::move_iterator" %0, %"class.std::move_iterator" %1, ptr %2, ptr %3) !dbg !3505 {
  %5 = alloca %"class.std::move_iterator", i64 1, align 8, !dbg !3506
  %6 = alloca %"class.std::move_iterator", i64 1, align 8, !dbg !3508
  %7 = alloca %"class.std::move_iterator", i64 1, align 8, !dbg !3509
  %8 = alloca %"class.std::move_iterator", i64 1, align 8, !dbg !3510
  store %"class.std::move_iterator" %0, ptr %8, align 8, !dbg !3511
  store %"class.std::move_iterator" %1, ptr %7, align 8, !dbg !3512
  call void @_ZNSt13move_iteratorIPmEC1ERKS1_(ptr %6, ptr %8), !dbg !3513
  call void @_ZNSt13move_iteratorIPmEC1ERKS1_(ptr %5, ptr %7), !dbg !3514
  %9 = load %"class.std::move_iterator", ptr %6, align 8, !dbg !3515
  %10 = load %"class.std::move_iterator", ptr %5, align 8, !dbg !3516
  %11 = call ptr @_ZSt18uninitialized_copyISt13move_iteratorIPmES1_ET0_T_S4_S3_(%"class.std::move_iterator" %9, %"class.std::move_iterator" %10, ptr %2), !dbg !3517
  ret ptr %11, !dbg !3518
}

define linkonce_odr void @_ZNSt13move_iteratorIPmEC1ERKS1_(ptr %0, ptr %1) !dbg !3519 {
  %3 = getelementptr %"class.std::move_iterator", ptr %1, i32 0, i32 0, !dbg !3520
  %4 = load ptr, ptr %3, align 8, !dbg !3522
  %5 = getelementptr %"class.std::move_iterator", ptr %0, i32 0, i32 0, !dbg !3523
  store ptr %4, ptr %5, align 8, !dbg !3524
  ret void, !dbg !3525
}

define linkonce_odr void @_ZNSt13move_iteratorIPmEC1ES0_(ptr %0, ptr %1) !dbg !3526 {
  %3 = getelementptr %"class.std::move_iterator", ptr %0, i32 0, i32 0, !dbg !3527
  store ptr %1, ptr %3, align 8, !dbg !3529
  ret void, !dbg !3530
}

define linkonce_odr void @_ZSt8_DestroyIPmEvT_S1_(ptr %0, ptr %1) !dbg !3531 {
  ret void, !dbg !3532
}

define linkonce_odr void @_ZNSt16allocator_traitsISaImEE10deallocateERS0_Pmm(ptr %0, ptr %1, i64 %2) !dbg !3534 {
  call void @_ZN9__gnu_cxx13new_allocatorImE10deallocateEPmm(ptr %0, ptr %1, i64 %2), !dbg !3535
  ret void, !dbg !3537
}

define linkonce_odr void @_ZNSt12_Vector_baseIsSaIsEE12_Vector_implC1Ev(ptr %0) !dbg !3538 {
  %2 = getelementptr %"struct.std::_Vector_base<short, std::allocator<short>>::_Vector_impl", ptr %0, i32 0, i32 0, !dbg !3539
  call void @_ZNSt12_Vector_baseIsSaIsEE17_Vector_impl_dataC1Ev(ptr %2), !dbg !3541
  ret void, !dbg !3542
}

define linkonce_odr i64 @_ZNSt6vectorIsSaIsEE11_S_max_sizeERKS0_(ptr %0) !dbg !3543 {
  %2 = alloca i64, i64 1, align 8, !dbg !3544
  store i64 undef, ptr %2, align 8, !dbg !3546
  %3 = alloca i64, i64 1, align 8, !dbg !3547
  store i64 undef, ptr %3, align 8, !dbg !3548
  store i64 4611686018427387903, ptr %3, align 8, !dbg !3549
  store i64 4611686018427387903, ptr %2, align 8, !dbg !3550
  %4 = call ptr @_ZSt3minImERKT_S2_S2_(ptr %3, ptr %2), !dbg !3551
  %5 = load i64, ptr %4, align 8, !dbg !3552
  ret i64 %5, !dbg !3553
}

define linkonce_odr ptr @_ZNKSt12_Vector_baseIsSaIsEE19_M_get_Tp_allocatorEv(ptr %0) !dbg !3554 {
  %2 = getelementptr %"struct.std::_Vector_base.17", ptr %0, i32 0, i32 0, !dbg !3555
  %3 = icmp ne ptr %2, null, !dbg !3557
  %4 = select i1 %3, ptr %2, ptr null, !dbg !3558
  ret ptr %4, !dbg !3559
}

define linkonce_odr i8 @_ZNSt6vectorIsSaIsEE19_S_nothrow_relocateESt17integral_constantIbLb1EE(%"struct.std::integral_constant" %0) !dbg !3560 {
  ret i8 1, !dbg !3561
}

define linkonce_odr ptr @_ZNSt16allocator_traitsISaIsEE8allocateERS0_m(ptr %0, i64 %1) !dbg !3563 {
  %3 = call ptr @_ZN9__gnu_cxx13new_allocatorIsE8allocateEmPKv(ptr %0, i64 %1, ptr null), !dbg !3564
  ret ptr %3, !dbg !3566
}

define linkonce_odr ptr @_ZNSt6vectorIsSaIsEE14_S_do_relocateEPsS2_S2_RS0_St17integral_constantIbLb1EE(ptr %0, ptr %1, ptr %2, ptr %3, %"struct.std::integral_constant" %4) !dbg !3567 {
  %6 = call ptr @_ZSt14__relocate_a_1IssENSt9enable_ifIXsr3std24__is_bitwise_relocatableIT_EE5valueEPS1_E4typeES2_S2_S2_RSaIT0_E(ptr %0, ptr %1, ptr %2, ptr %3), !dbg !3568
  ret ptr %6, !dbg !3570
}

define linkonce_odr ptr @_ZSt22__uninitialized_copy_aISt13move_iteratorIPsES1_sET0_T_S4_S3_RSaIT1_E(%"class.std::move_iterator.26" %0, %"class.std::move_iterator.26" %1, ptr %2, ptr %3) !dbg !3571 {
  %5 = alloca %"class.std::move_iterator.26", i64 1, align 8, !dbg !3572
  %6 = alloca %"class.std::move_iterator.26", i64 1, align 8, !dbg !3574
  %7 = alloca %"class.std::move_iterator.26", i64 1, align 8, !dbg !3575
  %8 = alloca %"class.std::move_iterator.26", i64 1, align 8, !dbg !3576
  store %"class.std::move_iterator.26" %0, ptr %8, align 8, !dbg !3577
  store %"class.std::move_iterator.26" %1, ptr %7, align 8, !dbg !3578
  call void @_ZNSt13move_iteratorIPsEC1ERKS1_(ptr %6, ptr %8), !dbg !3579
  call void @_ZNSt13move_iteratorIPsEC1ERKS1_(ptr %5, ptr %7), !dbg !3580
  %9 = load %"class.std::move_iterator.26", ptr %6, align 8, !dbg !3581
  %10 = load %"class.std::move_iterator.26", ptr %5, align 8, !dbg !3582
  %11 = call ptr @_ZSt18uninitialized_copyISt13move_iteratorIPsES1_ET0_T_S4_S3_(%"class.std::move_iterator.26" %9, %"class.std::move_iterator.26" %10, ptr %2), !dbg !3583
  ret ptr %11, !dbg !3584
}

define linkonce_odr void @_ZNSt13move_iteratorIPsEC1ERKS1_(ptr %0, ptr %1) !dbg !3585 {
  %3 = getelementptr %"class.std::move_iterator.26", ptr %1, i32 0, i32 0, !dbg !3586
  %4 = load ptr, ptr %3, align 8, !dbg !3588
  %5 = getelementptr %"class.std::move_iterator.26", ptr %0, i32 0, i32 0, !dbg !3589
  store ptr %4, ptr %5, align 8, !dbg !3590
  ret void, !dbg !3591
}

define linkonce_odr void @_ZNSt13move_iteratorIPsEC1ES0_(ptr %0, ptr %1) !dbg !3592 {
  %3 = getelementptr %"class.std::move_iterator.26", ptr %0, i32 0, i32 0, !dbg !3593
  store ptr %1, ptr %3, align 8, !dbg !3595
  ret void, !dbg !3596
}

define linkonce_odr void @_ZSt8_DestroyIPsEvT_S1_(ptr %0, ptr %1) !dbg !3597 {
  ret void, !dbg !3598
}

define linkonce_odr void @_ZNSt16allocator_traitsISaIsEE10deallocateERS0_Psm(ptr %0, ptr %1, i64 %2) !dbg !3600 {
  call void @_ZN9__gnu_cxx13new_allocatorIsE10deallocateEPsm(ptr %0, ptr %1, i64 %2), !dbg !3601
  ret void, !dbg !3603
}

define linkonce_odr void @_ZN9__gnu_cxx13new_allocatorImE9constructImJRKmEEEvPT_DpOT0_(ptr %0, ptr %1, ptr %2) !dbg !3604 {
  %4 = load i64, ptr %2, align 8, !dbg !3605
  store i64 %4, ptr %1, align 8, !dbg !3607
  ret void, !dbg !3608
}

define linkonce_odr i64 @_ZNKSt6vectorImSaImEE12_M_check_lenEmPKc(ptr %0, i64 %1, ptr %2) !dbg !3609 {
  %4 = alloca i64, i64 1, align 8, !dbg !3610
  store i64 undef, ptr %4, align 8, !dbg !3612
  %5 = alloca i64, i64 1, align 8, !dbg !3613
  store i64 undef, ptr %5, align 8, !dbg !3614
  store i64 %1, ptr %5, align 8, !dbg !3615
  %6 = call i64 @_ZNKSt6vectorImSaImEE8max_sizeEv(ptr %0), !dbg !3616
  %7 = call i64 @_ZNKSt6vectorImSaImEE4sizeEv(ptr %0), !dbg !3617
  %8 = sub i64 %6, %7, !dbg !3618
  %9 = load i64, ptr %5, align 8, !dbg !3619
  %10 = icmp slt i64 %8, %9, !dbg !3620
  br i1 %10, label %11, label %12, !dbg !3621

11:                                               ; preds = %3
  call void @_ZSt20__throw_length_errorPKc(ptr %2), !dbg !3622
  br label %12, !dbg !3623

12:                                               ; preds = %11, %3
  %13 = call i64 @_ZNKSt6vectorImSaImEE4sizeEv(ptr %0), !dbg !3624
  %14 = call i64 @_ZNKSt6vectorImSaImEE4sizeEv(ptr %0), !dbg !3625
  store i64 %14, ptr %4, align 8, !dbg !3626
  %15 = call ptr @_ZSt3maxImERKT_S2_S2_(ptr %4, ptr %5), !dbg !3627
  %16 = load i64, ptr %15, align 8, !dbg !3628
  %17 = add i64 %13, %16, !dbg !3629
  %18 = call i64 @_ZNKSt6vectorImSaImEE4sizeEv(ptr %0), !dbg !3630
  %19 = icmp slt i64 %17, %18, !dbg !3631
  br i1 %19, label %20, label %21, !dbg !3632

20:                                               ; preds = %12
  br label %24, !dbg !3633

21:                                               ; preds = %12
  %22 = call i64 @_ZNKSt6vectorImSaImEE8max_sizeEv(ptr %0), !dbg !3634
  %23 = icmp sgt i64 %17, %22, !dbg !3635
  br label %24, !dbg !3636

24:                                               ; preds = %20, %21
  %25 = phi i1 [ %23, %21 ], [ true, %20 ]
  br label %26, !dbg !3637

26:                                               ; preds = %24
  br i1 %25, label %27, label %29, !dbg !3638

27:                                               ; preds = %26
  %28 = call i64 @_ZNKSt6vectorImSaImEE8max_sizeEv(ptr %0), !dbg !3639
  br label %30, !dbg !3640

29:                                               ; preds = %26
  br label %30, !dbg !3641

30:                                               ; preds = %27, %29
  %31 = phi i64 [ %17, %29 ], [ %28, %27 ]
  br label %32, !dbg !3642

32:                                               ; preds = %30
  ret i64 %31, !dbg !3643
}

define linkonce_odr i64 @_ZN9__gnu_cxxmiIPmSt6vectorImSaImEEEENS_17__normal_iteratorIT_T0_E15difference_typeERKS8_SB_(ptr %0, ptr %1) !dbg !3644 {
  %3 = call ptr @_ZNK9__gnu_cxx17__normal_iteratorIPmSt6vectorImSaImEEE4baseEv(ptr %0), !dbg !3645
  %4 = load ptr, ptr %3, align 8, !dbg !3647
  %5 = call ptr @_ZNK9__gnu_cxx17__normal_iteratorIPmSt6vectorImSaImEEE4baseEv(ptr %1), !dbg !3648
  %6 = load ptr, ptr %5, align 8, !dbg !3649
  %7 = ptrtoint ptr %4 to i64, !dbg !3650
  %8 = ptrtoint ptr %6 to i64, !dbg !3651
  %9 = sub i64 %7, %8, !dbg !3652
  %10 = sdiv i64 %9, 8, !dbg !3653
  ret i64 %10, !dbg !3654
}

define linkonce_odr %"class.__gnu_cxx::__normal_iterator.27" @_ZNSt6vectorImSaImEE5beginEv(ptr %0) !dbg !3655 {
  %2 = alloca %"class.__gnu_cxx::__normal_iterator.27", i64 1, align 8, !dbg !3656
  %3 = alloca %"class.__gnu_cxx::__normal_iterator.27", i64 1, align 8, !dbg !3658
  %4 = alloca %"class.__gnu_cxx::__normal_iterator.27", i64 1, align 8, !dbg !3659
  %5 = getelementptr %"class.std::vector.1", ptr %0, i32 0, i32 0, !dbg !3660
  %6 = getelementptr %"struct.std::_Vector_base.2", ptr %5, i32 0, i32 0, !dbg !3661
  %7 = getelementptr %"struct.std::_Vector_base<unsigned long, std::allocator<unsigned long>>::_Vector_impl", ptr %6, i32 0, i32 0, !dbg !3662
  %8 = getelementptr %"struct.std::_Vector_base<unsigned long, std::allocator<unsigned long>>::_Vector_impl_data", ptr %7, i32 0, i32 0, !dbg !3663
  call void @_ZN9__gnu_cxx17__normal_iteratorIPmSt6vectorImSaImEEEC1ERKS1_(ptr %3, ptr %8), !dbg !3664
  %9 = load %"class.__gnu_cxx::__normal_iterator.27", ptr %3, align 8, !dbg !3665
  store %"class.__gnu_cxx::__normal_iterator.27" %9, ptr %2, align 8, !dbg !3666
  call void @_ZN9__gnu_cxx17__normal_iteratorIPmSt6vectorImSaImEEEC1EOS5_(ptr %4, ptr %2), !dbg !3667
  %10 = load %"class.__gnu_cxx::__normal_iterator.27", ptr %4, align 8, !dbg !3668
  ret %"class.__gnu_cxx::__normal_iterator.27" %10, !dbg !3669
}

define linkonce_odr ptr @_ZNK9__gnu_cxx17__normal_iteratorIPmSt6vectorImSaImEEE4baseEv(ptr %0) !dbg !3670 {
  %2 = getelementptr %"class.__gnu_cxx::__normal_iterator.27", ptr %0, i32 0, i32 0, !dbg !3671
  ret ptr %2, !dbg !3673
}

define linkonce_odr ptr @_ZSt34__uninitialized_move_if_noexcept_aIPmS0_SaImEET0_T_S3_S2_RT1_(ptr %0, ptr %1, ptr %2, ptr %3) !dbg !3674 {
  %5 = alloca %"class.std::move_iterator", i64 1, align 8, !dbg !3675
  %6 = alloca %"class.std::move_iterator", i64 1, align 8, !dbg !3677
  %7 = alloca %"class.std::move_iterator", i64 1, align 8, !dbg !3678
  %8 = alloca %"class.std::move_iterator", i64 1, align 8, !dbg !3679
  %9 = call %"class.std::move_iterator" @_ZSt32__make_move_if_noexcept_iteratorImSt13move_iteratorIPmEET0_PT_(ptr %0), !dbg !3680
  store %"class.std::move_iterator" %9, ptr %7, align 8, !dbg !3681
  call void @_ZNSt13move_iteratorIPmEC1EOS1_(ptr %8, ptr %7), !dbg !3682
  %10 = call %"class.std::move_iterator" @_ZSt32__make_move_if_noexcept_iteratorImSt13move_iteratorIPmEET0_PT_(ptr %1), !dbg !3683
  store %"class.std::move_iterator" %10, ptr %5, align 8, !dbg !3684
  call void @_ZNSt13move_iteratorIPmEC1EOS1_(ptr %6, ptr %5), !dbg !3685
  %11 = load %"class.std::move_iterator", ptr %8, align 8, !dbg !3686
  %12 = load %"class.std::move_iterator", ptr %6, align 8, !dbg !3687
  %13 = call ptr @_ZSt22__uninitialized_copy_aISt13move_iteratorIPmES1_mET0_T_S4_S3_RSaIT1_E(%"class.std::move_iterator" %11, %"class.std::move_iterator" %12, ptr %2, ptr %3), !dbg !3688
  ret ptr %13, !dbg !3689
}

define linkonce_odr void @_ZN9__gnu_cxx17__normal_iteratorIPmSt6vectorImSaImEEEC1ERKS1_(ptr %0, ptr %1) !dbg !3690 {
  %3 = load ptr, ptr %1, align 8, !dbg !3691
  %4 = getelementptr %"class.__gnu_cxx::__normal_iterator.27", ptr %0, i32 0, i32 0, !dbg !3693
  store ptr %3, ptr %4, align 8, !dbg !3694
  ret void, !dbg !3695
}

define linkonce_odr void @_ZN9__gnu_cxx13new_allocatorIsE9constructIsJRKsEEEvPT_DpOT0_(ptr %0, ptr %1, ptr %2) !dbg !3696 {
  %4 = load i16, ptr %2, align 2, !dbg !3697
  store i16 %4, ptr %1, align 2, !dbg !3699
  ret void, !dbg !3700
}

define linkonce_odr i64 @_ZNKSt6vectorIsSaIsEE12_M_check_lenEmPKc(ptr %0, i64 %1, ptr %2) !dbg !3701 {
  %4 = alloca i64, i64 1, align 8, !dbg !3702
  store i64 undef, ptr %4, align 8, !dbg !3704
  %5 = alloca i64, i64 1, align 8, !dbg !3705
  store i64 undef, ptr %5, align 8, !dbg !3706
  store i64 %1, ptr %5, align 8, !dbg !3707
  %6 = call i64 @_ZNKSt6vectorIsSaIsEE8max_sizeEv(ptr %0), !dbg !3708
  %7 = call i64 @_ZNKSt6vectorIsSaIsEE4sizeEv(ptr %0), !dbg !3709
  %8 = sub i64 %6, %7, !dbg !3710
  %9 = load i64, ptr %5, align 8, !dbg !3711
  %10 = icmp slt i64 %8, %9, !dbg !3712
  br i1 %10, label %11, label %12, !dbg !3713

11:                                               ; preds = %3
  call void @_ZSt20__throw_length_errorPKc(ptr %2), !dbg !3714
  br label %12, !dbg !3715

12:                                               ; preds = %11, %3
  %13 = call i64 @_ZNKSt6vectorIsSaIsEE4sizeEv(ptr %0), !dbg !3716
  %14 = call i64 @_ZNKSt6vectorIsSaIsEE4sizeEv(ptr %0), !dbg !3717
  store i64 %14, ptr %4, align 8, !dbg !3718
  %15 = call ptr @_ZSt3maxImERKT_S2_S2_(ptr %4, ptr %5), !dbg !3719
  %16 = load i64, ptr %15, align 8, !dbg !3720
  %17 = add i64 %13, %16, !dbg !3721
  %18 = call i64 @_ZNKSt6vectorIsSaIsEE4sizeEv(ptr %0), !dbg !3722
  %19 = icmp slt i64 %17, %18, !dbg !3723
  br i1 %19, label %20, label %21, !dbg !3724

20:                                               ; preds = %12
  br label %24, !dbg !3725

21:                                               ; preds = %12
  %22 = call i64 @_ZNKSt6vectorIsSaIsEE8max_sizeEv(ptr %0), !dbg !3726
  %23 = icmp sgt i64 %17, %22, !dbg !3727
  br label %24, !dbg !3728

24:                                               ; preds = %20, %21
  %25 = phi i1 [ %23, %21 ], [ true, %20 ]
  br label %26, !dbg !3729

26:                                               ; preds = %24
  br i1 %25, label %27, label %29, !dbg !3730

27:                                               ; preds = %26
  %28 = call i64 @_ZNKSt6vectorIsSaIsEE8max_sizeEv(ptr %0), !dbg !3731
  br label %30, !dbg !3732

29:                                               ; preds = %26
  br label %30, !dbg !3733

30:                                               ; preds = %27, %29
  %31 = phi i64 [ %17, %29 ], [ %28, %27 ]
  br label %32, !dbg !3734

32:                                               ; preds = %30
  ret i64 %31, !dbg !3735
}

define linkonce_odr i64 @_ZN9__gnu_cxxmiIPsSt6vectorIsSaIsEEEENS_17__normal_iteratorIT_T0_E15difference_typeERKS8_SB_(ptr %0, ptr %1) !dbg !3736 {
  %3 = call ptr @_ZNK9__gnu_cxx17__normal_iteratorIPsSt6vectorIsSaIsEEE4baseEv(ptr %0), !dbg !3737
  %4 = load ptr, ptr %3, align 8, !dbg !3739
  %5 = call ptr @_ZNK9__gnu_cxx17__normal_iteratorIPsSt6vectorIsSaIsEEE4baseEv(ptr %1), !dbg !3740
  %6 = load ptr, ptr %5, align 8, !dbg !3741
  %7 = ptrtoint ptr %4 to i64, !dbg !3742
  %8 = ptrtoint ptr %6 to i64, !dbg !3743
  %9 = sub i64 %7, %8, !dbg !3744
  %10 = sdiv i64 %9, 2, !dbg !3745
  ret i64 %10, !dbg !3746
}

define linkonce_odr %"class.__gnu_cxx::__normal_iterator.28" @_ZNSt6vectorIsSaIsEE5beginEv(ptr %0) !dbg !3747 {
  %2 = alloca %"class.__gnu_cxx::__normal_iterator.28", i64 1, align 8, !dbg !3748
  %3 = alloca %"class.__gnu_cxx::__normal_iterator.28", i64 1, align 8, !dbg !3750
  %4 = alloca %"class.__gnu_cxx::__normal_iterator.28", i64 1, align 8, !dbg !3751
  %5 = getelementptr %"class.std::vector.16", ptr %0, i32 0, i32 0, !dbg !3752
  %6 = getelementptr %"struct.std::_Vector_base.17", ptr %5, i32 0, i32 0, !dbg !3753
  %7 = getelementptr %"struct.std::_Vector_base<short, std::allocator<short>>::_Vector_impl", ptr %6, i32 0, i32 0, !dbg !3754
  %8 = getelementptr %"struct.std::_Vector_base<short, std::allocator<short>>::_Vector_impl_data", ptr %7, i32 0, i32 0, !dbg !3755
  call void @_ZN9__gnu_cxx17__normal_iteratorIPsSt6vectorIsSaIsEEEC1ERKS1_(ptr %3, ptr %8), !dbg !3756
  %9 = load %"class.__gnu_cxx::__normal_iterator.28", ptr %3, align 8, !dbg !3757
  store %"class.__gnu_cxx::__normal_iterator.28" %9, ptr %2, align 8, !dbg !3758
  call void @_ZN9__gnu_cxx17__normal_iteratorIPsSt6vectorIsSaIsEEEC1EOS5_(ptr %4, ptr %2), !dbg !3759
